(lp0
(lp1
I197
aI0
aa(lp2
I270
aI0
aa(lp3
I270
aI1
aa(lp4
I270
aI2
aa(lp5
I270
aI3
aa(lp6
I270
aI4
aa(lp7
I363
aI1
aa(lp8
I363
aI2
aa(lp9
I363
aI3
aa(lp10
I1179
aI1
aa(lp11
I1220
aI0
aa(lp12
I1220
aI1
aa(lp13
I1220
aI2
aa(lp14
I1220
aI4
aa(lp15
I1427
aI2
aa(lp16
I1992
aI2
aa(lp17
I1992
aI3
aa(lp18
I2340
aI1
aa(lp19
I2340
aI4
aa(lp20
I2497
aI0
aa(lp21
I2497
aI1
aa(lp22
I2497
aI2
aa(lp23
I2497
aI3
aa(lp24
I2497
aI4
aa(lp25
I2788
aI4
aa(lp26
I2862
aI0
aa(lp27
I2862
aI1
aa(lp28
I2862
aI2
aa(lp29
I2862
aI3
aa(lp30
I2862
aI4
aa(lp31
I2897
aI0
aa(lp32
I2897
aI3
aa(lp33
I3639
aI3
aa(lp34
I3665
aI2
aa(lp35
I3873
aI2
aa(lp36
I3934
aI2
aa(lp37
I3934
aI4
aa(lp38
I3957
aI0
aa(lp39
I3957
aI1
aa(lp40
I3957
aI2
aa(lp41
I3957
aI3
aa(lp42
I3957
aI4
aa(lp43
I5074
aI1
aa(lp44
I5074
aI2
aa(lp45
I5074
aI3
aa(lp46
I5346
aI4
aa(lp47
I5434
aI0
aa(lp48
I5434
aI1
aa(lp49
I5434
aI2
aa(lp50
I5434
aI3
aa(lp51
I5755
aI0
aa(lp52
I5755
aI1
aa(lp53
I5755
aI2
aa(lp54
I5755
aI3
aa(lp55
I5755
aI4
aa(lp56
I5919
aI0
aa(lp57
I5919
aI1
aa(lp58
I5919
aI2
aa(lp59
I5919
aI3
aa(lp60
I5919
aI4
aa(lp61
I6036
aI1
aa(lp62
I6036
aI2
aa(lp63
I6036
aI3
aa(lp64
I6041
aI2
aa(lp65
I6041
aI4
aa(lp66
I6044
aI0
aa(lp67
I6115
aI0
aa(lp68
I6115
aI1
aa(lp69
I6115
aI2
aa(lp70
I6115
aI4
aa(lp71
I6581
aI1
aa(lp72
I6581
aI2
aa(lp73
I6581
aI4
aa(lp74
I6759
aI0
aa(lp75
I6759
aI1
aa(lp76
I6759
aI2
aa(lp77
I6759
aI3
aa(lp78
I6759
aI4
aa(lp79
I6867
aI0
aa(lp80
I7112
aI1
aa(lp81
I7231
aI0
aa(lp82
I7231
aI1
aa(lp83
I7231
aI2
aa(lp84
I7231
aI3
aa(lp85
I7231
aI4
aa(lp86
I7289
aI0
aa(lp87
I7289
aI1
aa(lp88
I7289
aI2
aa(lp89
I7289
aI3
aa(lp90
I7289
aI4
aa(lp91
I7349
aI1
aa(lp92
I7349
aI4
aa(lp93
I7375
aI0
aa(lp94
I7375
aI3
aa(lp95
I7375
aI4
aa(lp96
I7382
aI1
aa(lp97
I7382
aI2
aa(lp98
I7382
aI4
aa(lp99
I7479
aI1
aa(lp100
I7479
aI4
aa(lp101
I7628
aI0
aa(lp102
I7628
aI2
aa(lp103
I7628
aI3
aa(lp104
I7628
aI4
aa(lp105
I7639
aI0
aa(lp106
I7639
aI2
aa(lp107
I7639
aI3
aa(lp108
I7639
aI4
aa(lp109
I7639
aI5
aa(lp110
I8030
aI0
aa(lp111
I8030
aI2
aa(lp112
I8030
aI4
aa(lp113
I8161
aI0
aa(lp114
I8161
aI1
aa(lp115
I8161
aI2
aa(lp116
I8161
aI3
aa(lp117
I8161
aI4
aa(lp118
I8221
aI0
aa(lp119
I8221
aI1
aa(lp120
I8221
aI2
aa(lp121
I8221
aI3
aa(lp122
I8221
aI4
aa(lp123
I8356
aI3
aa(lp124
I8846
aI0
aa(lp125
I8846
aI1
aa(lp126
I8846
aI2
aa(lp127
I8846
aI3
aa(lp128
I8846
aI4
aa(lp129
I8961
aI0
aa(lp130
I8961
aI1
aa(lp131
I8961
aI2
aa(lp132
I8961
aI3
aa(lp133
I9183
aI3
aa(lp134
I9612
aI1
aa(lp135
I9612
aI2
aa(lp136
I9612
aI4
aa(lp137
I10119
aI0
aa(lp138
I10204
aI0
aa(lp139
I10204
aI1
aa(lp140
I10204
aI2
aa(lp141
I10204
aI3
aa(lp142
I10204
aI4
aa(lp143
I10978
aI0
aa(lp144
I10978
aI2
aa(lp145
I10978
aI4
aa(lp146
I12464
aI0
aa(lp147
I12464
aI1
aa(lp148
I12464
aI3
aa(lp149
I12464
aI4
aa(lp150
I12720
aI0
aa(lp151
I12720
aI1
aa(lp152
I12720
aI2
aa(lp153
I12720
aI4
aa(lp154
I13300
aI0
aa(lp155
I13300
aI1
aa(lp156
I13300
aI3
aa(lp157
I13583
aI4
aa(lp158
I14098
aI0
aa(lp159
I14098
aI1
aa(lp160
I14098
aI2
aa(lp161
I14098
aI3
aa(lp162
I14098
aI4
aa(lp163
I14300
aI0
aa(lp164
I14300
aI1
aa(lp165
I14300
aI2
aa(lp166
I14300
aI3
aa(lp167
I14300
aI4
aa(lp168
I15218
aI3
aa(lp169
I15600
aI0
aa(lp170
I15600
aI1
aa(lp171
I15600
aI2
aa(lp172
I15600
aI3
aa(lp173
I15600
aI4
aa(lp174
I15630
aI0
aa(lp175
I15630
aI1
aa(lp176
I15934
aI0
aa(lp177
I15934
aI1
aa(lp178
I16344
aI0
aa(lp179
I16344
aI2
aa(lp180
I16344
aI3
aa(lp181
I16344
aI4
aa(lp182
I16479
aI0
aa(lp183
I16479
aI3
aa(lp184
I16479
aI4
aa(lp185
I16657
aI2
aa(lp186
I16657
aI3
aa(lp187
I16657
aI4
aa(lp188
I16722
aI0
aa(lp189
I16722
aI2
aa(lp190
I16722
aI3
aa(lp191
I16722
aI4
aa(lp192
I16919
aI0
aa(lp193
I16919
aI1
aa(lp194
I16919
aI2
aa(lp195
I16919
aI3
aa(lp196
I17086
aI0
aa(lp197
I17086
aI2
aa(lp198
I17086
aI3
aa(lp199
I17086
aI4
aa(lp200
I17139
aI1
aa(lp201
I17179
aI0
aa(lp202
I17179
aI3
aa(lp203
I17227
aI0
aa(lp204
I17227
aI3
aa(lp205
I17247
aI2
aa(lp206
I17247
aI3
aa(lp207
I17247
aI4
aa(lp208
I17386
aI0
aa(lp209
I17386
aI1
aa(lp210
I17386
aI2
aa(lp211
I17386
aI4
aa(lp212
I17505
aI0
aa(lp213
I17505
aI1
aa(lp214
I17990
aI0
aa(lp215
I17990
aI2
aa(lp216
I17990
aI4
aa(lp217
I18225
aI0
aa(lp218
I18225
aI1
aa(lp219
I18225
aI2
aa(lp220
I18225
aI3
aa(lp221
I18225
aI4
aa(lp222
I18913
aI0
aa(lp223
I18913
aI1
aa(lp224
I18913
aI2
aa(lp225
I18913
aI3
aa(lp226
I18913
aI4
aa(lp227
I19077
aI0
aa(lp228
I19300
aI0
aa(lp229
I19300
aI1
aa(lp230
I19300
aI3
aa(lp231
I19300
aI4
aa(lp232
I19929
aI2
aa(lp233
I19929
aI4
aa(lp234
I19964
aI0
aa(lp235
I19964
aI2
aa(lp236
I19964
aI3
aa(lp237
I19964
aI4
aa(lp238
I20026
aI0
aa(lp239
I20026
aI1
aa(lp240
I20026
aI2
aa(lp241
I20026
aI3
aa(lp242
I20026
aI4
aa(lp243
I20153
aI0
aa(lp244
I20153
aI3
aa(lp245
I20153
aI4
aa(lp246
I20154
aI1
aa(lp247
I20373
aI0
aa(lp248
I20373
aI1
aa(lp249
I20373
aI2
aa(lp250
I20484
aI0
aa(lp251
I20484
aI1
aa(lp252
I20484
aI2
aa(lp253
I20484
aI3
aa(lp254
I20484
aI4
aa(lp255
I20783
aI0
aa(lp256
I20783
aI2
aa(lp257
I20783
aI3
aa(lp258
I20815
aI2
aa(lp259
I20815
aI4
aa(lp260
I21301
aI0
aa(lp261
I21301
aI1
aa(lp262
I21301
aI2
aa(lp263
I21301
aI3
aa(lp264
I21424
aI2
aa(lp265
I21424
aI4
aa(lp266
I21492
aI0
aa(lp267
I21492
aI2
aa(lp268
I21638
aI2
aa(lp269
I21710
aI1
aa(lp270
I22715
aI2
aa(lp271
I23122
aI0
aa(lp272
I23122
aI1
aa(lp273
I23122
aI3
aa(lp274
I23122
aI4
aa(lp275
I23283
aI0
aa(lp276
I23283
aI2
aa(lp277
I23699
aI0
aa(lp278
I23699
aI1
aa(lp279
I23699
aI2
aa(lp280
I23699
aI3
aa(lp281
I23771
aI0
aa(lp282
I23771
aI1
aa(lp283
I23771
aI3
aa(lp284
I23771
aI4
aa(lp285
I24082
aI0
aa(lp286
I24082
aI1
aa(lp287
I24082
aI2
aa(lp288
I24082
aI4
aa(lp289
I24632
aI0
aa(lp290
I24632
aI4
aa(lp291
I25097
aI0
aa(lp292
I25097
aI1
aa(lp293
I25097
aI2
aa(lp294
I25097
aI3
aa(lp295
I25412
aI0
aa(lp296
I25412
aI1
aa(lp297
I25412
aI3
aa(lp298
I25412
aI4
aa(lp299
I25663
aI0
aa(lp300
I25663
aI1
aa(lp301
I25663
aI2
aa(lp302
I25663
aI3
aa(lp303
I25714
aI0
aa(lp304
I25714
aI1
aa(lp305
I25714
aI3
aa(lp306
I25874
aI1
aa(lp307
I25874
aI2
aa(lp308
I25874
aI3
aa(lp309
I25874
aI4
aa(lp310
I25977
aI0
aa(lp311
I25977
aI2
aa(lp312
I25977
aI3
aa(lp313
I25977
aI4
aa(lp314
I26022
aI0
aa(lp315
I26022
aI1
aa(lp316
I26022
aI3
aa(lp317
I26022
aI4
aa(lp318
I26133
aI0
aa(lp319
I26133
aI3
aa(lp320
I26133
aI4
aa(lp321
I26616
aI0
aa(lp322
I27232
aI1
aa(lp323
I27232
aI2
aa(lp324
I27232
aI3
aa(lp325
I27232
aI4
aa(lp326
I27368
aI1
aa(lp327
I27368
aI2
aa(lp328
I27368
aI4
aa(lp329
I28211
aI1
aa(lp330
I28211
aI2
aa(lp331
I28211
aI4
aa(lp332
I28501
aI1
aa(lp333
I28501
aI2
aa(lp334
I28501
aI3
aa(lp335
I28662
aI2
aa(lp336
I28678
aI0
aa(lp337
I28678
aI2
aa(lp338
I28678
aI3
aa(lp339
I28678
aI4
aa(lp340
I28861
aI0
aa(lp341
I28861
aI1
aa(lp342
I28861
aI3
aa(lp343
I29229
aI1
aa(lp344
I29229
aI3
aa(lp345
I29439
aI0
aa(lp346
I29439
aI2
aa(lp347
I29439
aI3
aa(lp348
I29439
aI4
aa(lp349
I29576
aI2
aa(lp350
I29576
aI3
aa(lp351
I29576
aI4
aa(lp352
I29942
aI0
aa(lp353
I29942
aI3
aa(lp354
I30797
aI1
aa(lp355
I30797
aI2
aa(lp356
I30797
aI4
aa(lp357
I31539
aI0
aa(lp358
I31544
aI1
aa(lp359
I31544
aI2
aa(lp360
I31544
aI3
aa(lp361
I31544
aI4
aa(lp362
I32926
aI1
aa(lp363
I32976
aI0
aa(lp364
I32976
aI2
aa(lp365
I32976
aI3
aa(lp366
I33857
aI1
aa(lp367
I33975
aI0
aa(lp368
I33975
aI3
aa(lp369
I34189
aI0
aa(lp370
I34189
aI1
aa(lp371
I34189
aI4
aa(lp372
I34791
aI0
aa(lp373
I34791
aI1
aa(lp374
I34791
aI2
aa(lp375
I34791
aI3
aa(lp376
I34791
aI4
aa(lp377
I34963
aI0
aa(lp378
I34963
aI2
aa(lp379
I34963
aI4
aa(lp380
I35584
aI1
aa(lp381
I35592
aI2
aa(lp382
I35867
aI0
aa(lp383
I35867
aI1
aa(lp384
I35867
aI3
aa(lp385
I36571
aI0
aa(lp386
I36571
aI2
aa(lp387
I36571
aI3
aa(lp388
I36571
aI4
aa(lp389
I36619
aI1
aa(lp390
I36619
aI2
aa(lp391
I36865
aI0
aa(lp392
I37062
aI0
aa(lp393
I37082
aI1
aa(lp394
I37096
aI0
aa(lp395
I37096
aI1
aa(lp396
I37096
aI2
aa(lp397
I37096
aI3
aa(lp398
I37403
aI0
aa(lp399
I37403
aI2
aa(lp400
I37403
aI3
aa(lp401
I37639
aI0
aa(lp402
I37639
aI1
aa(lp403
I37639
aI3
aa(lp404
I37718
aI0
aa(lp405
I37718
aI3
aa(lp406
I38024
aI2
aa(lp407
I38331
aI0
aa(lp408
I38331
aI1
aa(lp409
I38331
aI3
aa(lp410
I38331
aI4
aa(lp411
I39055
aI0
aa(lp412
I39055
aI1
aa(lp413
I39055
aI2
aa(lp414
I39055
aI3
aa(lp415
I39055
aI4
aa(lp416
I39465
aI2
aa(lp417
I39465
aI4
aa(lp418
I39468
aI0
aa(lp419
I39468
aI4
aa(lp420
I39492
aI0
aa(lp421
I39492
aI1
aa(lp422
I39492
aI2
aa(lp423
I39492
aI4
aa(lp424
I39544
aI0
aa(lp425
I39544
aI1
aa(lp426
I39544
aI3
aa(lp427
I40256
aI0
aa(lp428
I40256
aI1
aa(lp429
I40256
aI3
aa(lp430
I40256
aI4
aa.