(lp0
(lp1
I28
aI0
aa(lp2
I28
aI1
aa(lp3
I28
aI2
aa(lp4
I28
aI3
aa(lp5
I28
aI4
aa(lp6
I100
aI0
aa(lp7
I100
aI1
aa(lp8
I100
aI2
aa(lp9
I100
aI3
aa(lp10
I100
aI4
aa(lp11
I133
aI0
aa(lp12
I133
aI1
aa(lp13
I133
aI2
aa(lp14
I133
aI3
aa(lp15
I138
aI0
aa(lp16
I138
aI1
aa(lp17
I138
aI2
aa(lp18
I138
aI3
aa(lp19
I138
aI4
aa(lp20
I226
aI0
aa(lp21
I226
aI1
aa(lp22
I226
aI2
aa(lp23
I226
aI3
aa(lp24
I226
aI4
aa(lp25
I228
aI0
aa(lp26
I228
aI1
aa(lp27
I228
aI2
aa(lp28
I228
aI3
aa(lp29
I228
aI4
aa(lp30
I233
aI0
aa(lp31
I233
aI1
aa(lp32
I233
aI2
aa(lp33
I233
aI3
aa(lp34
I233
aI4
aa(lp35
I254
aI0
aa(lp36
I254
aI1
aa(lp37
I254
aI2
aa(lp38
I254
aI3
aa(lp39
I254
aI4
aa(lp40
I256
aI2
aa(lp41
I360
aI0
aa(lp42
I360
aI1
aa(lp43
I360
aI2
aa(lp44
I360
aI3
aa(lp45
I398
aI0
aa(lp46
I398
aI1
aa(lp47
I398
aI2
aa(lp48
I398
aI3
aa(lp49
I398
aI4
aa(lp50
I401
aI0
aa(lp51
I401
aI1
aa(lp52
I401
aI2
aa(lp53
I401
aI3
aa(lp54
I401
aI4
aa(lp55
I404
aI0
aa(lp56
I404
aI1
aa(lp57
I404
aI2
aa(lp58
I404
aI3
aa(lp59
I404
aI4
aa(lp60
I435
aI0
aa(lp61
I435
aI1
aa(lp62
I435
aI2
aa(lp63
I435
aI3
aa(lp64
I435
aI4
aa(lp65
I451
aI0
aa(lp66
I451
aI1
aa(lp67
I451
aI2
aa(lp68
I451
aI3
aa(lp69
I451
aI4
aa(lp70
I566
aI0
aa(lp71
I566
aI2
aa(lp72
I566
aI3
aa(lp73
I566
aI4
aa(lp74
I588
aI0
aa(lp75
I588
aI1
aa(lp76
I588
aI2
aa(lp77
I588
aI3
aa(lp78
I588
aI4
aa(lp79
I590
aI1
aa(lp80
I590
aI2
aa(lp81
I590
aI3
aa(lp82
I590
aI4
aa(lp83
I678
aI0
aa(lp84
I678
aI1
aa(lp85
I678
aI2
aa(lp86
I678
aI3
aa(lp87
I678
aI4
aa(lp88
I682
aI0
aa(lp89
I682
aI1
aa(lp90
I682
aI2
aa(lp91
I682
aI3
aa(lp92
I682
aI4
aa(lp93
I685
aI0
aa(lp94
I685
aI1
aa(lp95
I685
aI3
aa(lp96
I685
aI4
aa(lp97
I689
aI4
aa(lp98
I775
aI0
aa(lp99
I775
aI1
aa(lp100
I775
aI2
aa(lp101
I775
aI3
aa(lp102
I775
aI4
aa(lp103
I833
aI1
aa(lp104
I833
aI2
aa(lp105
I833
aI3
aa(lp106
I833
aI4
aa(lp107
I920
aI0
aa(lp108
I920
aI1
aa(lp109
I920
aI2
aa(lp110
I920
aI3
aa(lp111
I920
aI4
aa(lp112
I945
aI0
aa(lp113
I945
aI1
aa(lp114
I945
aI2
aa(lp115
I945
aI3
aa(lp116
I945
aI4
aa(lp117
I958
aI1
aa(lp118
I958
aI2
aa(lp119
I958
aI4
aa(lp120
I1007
aI0
aa(lp121
I1007
aI1
aa(lp122
I1007
aI2
aa(lp123
I1007
aI3
aa(lp124
I1007
aI4
aa(lp125
I1015
aI0
aa(lp126
I1015
aI1
aa(lp127
I1015
aI2
aa(lp128
I1015
aI3
aa(lp129
I1015
aI4
aa(lp130
I1063
aI0
aa(lp131
I1063
aI1
aa(lp132
I1063
aI2
aa(lp133
I1063
aI3
aa(lp134
I1063
aI4
aa(lp135
I1107
aI0
aa(lp136
I1107
aI1
aa(lp137
I1141
aI0
aa(lp138
I1141
aI3
aa(lp139
I1141
aI4
aa(lp140
I1239
aI2
aa(lp141
I1239
aI3
aa(lp142
I1239
aI4
aa(lp143
I1377
aI1
aa(lp144
I1377
aI2
aa(lp145
I1377
aI3
aa(lp146
I1377
aI4
aa(lp147
I1416
aI0
aa(lp148
I1416
aI1
aa(lp149
I1416
aI2
aa(lp150
I1416
aI3
aa(lp151
I1416
aI4
aa(lp152
I1467
aI0
aa(lp153
I1467
aI3
aa(lp154
I1467
aI4
aa(lp155
I1490
aI0
aa(lp156
I1490
aI1
aa(lp157
I1490
aI3
aa(lp158
I1532
aI0
aa(lp159
I1532
aI1
aa(lp160
I1532
aI2
aa(lp161
I1532
aI3
aa(lp162
I1532
aI4
aa(lp163
I1565
aI0
aa(lp164
I1565
aI1
aa(lp165
I1565
aI2
aa(lp166
I1565
aI3
aa(lp167
I1565
aI4
aa(lp168
I1594
aI0
aa(lp169
I1594
aI1
aa(lp170
I1594
aI2
aa(lp171
I1594
aI3
aa(lp172
I1594
aI4
aa(lp173
I1710
aI0
aa(lp174
I1710
aI1
aa(lp175
I1710
aI2
aa(lp176
I1710
aI3
aa(lp177
I1710
aI4
aa(lp178
I1724
aI1
aa(lp179
I1724
aI2
aa(lp180
I1724
aI3
aa(lp181
I1724
aI4
aa(lp182
I1746
aI0
aa(lp183
I1746
aI1
aa(lp184
I1746
aI2
aa(lp185
I1746
aI3
aa(lp186
I1746
aI4
aa(lp187
I1822
aI0
aa(lp188
I1822
aI1
aa(lp189
I1822
aI2
aa(lp190
I1822
aI3
aa(lp191
I1822
aI4
aa(lp192
I1835
aI0
aa(lp193
I1835
aI2
aa(lp194
I1835
aI3
aa(lp195
I1835
aI4
aa(lp196
I1849
aI0
aa(lp197
I1849
aI1
aa(lp198
I1849
aI2
aa(lp199
I1849
aI3
aa(lp200
I1849
aI4
aa(lp201
I1961
aI0
aa(lp202
I1961
aI1
aa(lp203
I1961
aI2
aa(lp204
I1961
aI3
aa(lp205
I1961
aI4
aa(lp206
I1974
aI0
aa(lp207
I1974
aI1
aa(lp208
I1974
aI2
aa(lp209
I1974
aI3
aa(lp210
I1974
aI4
aa(lp211
I1977
aI0
aa(lp212
I1977
aI1
aa(lp213
I1977
aI2
aa(lp214
I1977
aI3
aa(lp215
I1977
aI4
aa(lp216
I1995
aI0
aa(lp217
I1995
aI1
aa(lp218
I1995
aI2
aa(lp219
I1995
aI3
aa(lp220
I1995
aI4
aa(lp221
I2081
aI0
aa(lp222
I2081
aI1
aa(lp223
I2081
aI2
aa(lp224
I2081
aI3
aa(lp225
I2081
aI4
aa(lp226
I2117
aI2
aa(lp227
I2132
aI0
aa(lp228
I2132
aI1
aa(lp229
I2132
aI2
aa(lp230
I2132
aI3
aa(lp231
I2132
aI4
aa(lp232
I2270
aI0
aa(lp233
I2270
aI1
aa(lp234
I2270
aI2
aa(lp235
I2270
aI3
aa(lp236
I2270
aI4
aa(lp237
I2282
aI0
aa(lp238
I2282
aI1
aa(lp239
I2282
aI2
aa(lp240
I2282
aI3
aa(lp241
I2282
aI4
aa(lp242
I2329
aI0
aa(lp243
I2329
aI1
aa(lp244
I2329
aI2
aa(lp245
I2329
aI3
aa(lp246
I2329
aI4
aa(lp247
I2421
aI0
aa(lp248
I2421
aI1
aa(lp249
I2421
aI2
aa(lp250
I2421
aI3
aa(lp251
I2421
aI4
aa(lp252
I2434
aI0
aa(lp253
I2434
aI2
aa(lp254
I2434
aI3
aa(lp255
I2434
aI4
aa(lp256
I2543
aI1
aa(lp257
I2543
aI2
aa(lp258
I2543
aI3
aa(lp259
I2543
aI4
aa(lp260
I2648
aI0
aa(lp261
I2648
aI1
aa(lp262
I2648
aI2
aa(lp263
I2648
aI3
aa(lp264
I2648
aI4
aa(lp265
I2649
aI0
aa(lp266
I2649
aI1
aa(lp267
I2649
aI2
aa(lp268
I2649
aI3
aa(lp269
I2649
aI4
aa(lp270
I2697
aI0
aa(lp271
I2697
aI1
aa(lp272
I2697
aI2
aa(lp273
I2697
aI3
aa(lp274
I2697
aI4
aa(lp275
I2756
aI0
aa(lp276
I2756
aI1
aa(lp277
I2756
aI2
aa(lp278
I2756
aI3
aa(lp279
I2756
aI4
aa(lp280
I2827
aI0
aa(lp281
I2827
aI1
aa(lp282
I2827
aI2
aa(lp283
I2827
aI3
aa(lp284
I2827
aI4
aa(lp285
I3014
aI0
aa(lp286
I3014
aI1
aa(lp287
I3014
aI2
aa(lp288
I3014
aI3
aa(lp289
I3014
aI4
aa(lp290
I3073
aI0
aa(lp291
I3073
aI1
aa(lp292
I3073
aI2
aa(lp293
I3073
aI3
aa(lp294
I3073
aI4
aa(lp295
I3113
aI0
aa(lp296
I3113
aI1
aa(lp297
I3113
aI3
aa(lp298
I3113
aI4
aa(lp299
I3115
aI0
aa(lp300
I3115
aI1
aa(lp301
I3115
aI2
aa(lp302
I3115
aI3
aa(lp303
I3115
aI4
aa(lp304
I3138
aI0
aa(lp305
I3184
aI0
aa(lp306
I3184
aI1
aa(lp307
I3184
aI2
aa(lp308
I3184
aI3
aa(lp309
I3184
aI4
aa(lp310
I3247
aI0
aa(lp311
I3247
aI1
aa(lp312
I3247
aI2
aa(lp313
I3247
aI3
aa(lp314
I3247
aI4
aa(lp315
I3382
aI0
aa(lp316
I3382
aI1
aa(lp317
I3382
aI2
aa(lp318
I3382
aI3
aa(lp319
I3382
aI4
aa(lp320
I3517
aI0
aa(lp321
I3517
aI1
aa(lp322
I3517
aI2
aa(lp323
I3517
aI3
aa(lp324
I3517
aI4
aa(lp325
I3544
aI0
aa(lp326
I3544
aI1
aa(lp327
I3544
aI2
aa(lp328
I3544
aI3
aa(lp329
I3544
aI4
aa(lp330
I3551
aI0
aa(lp331
I3551
aI1
aa(lp332
I3551
aI2
aa(lp333
I3551
aI3
aa(lp334
I3574
aI0
aa(lp335
I3574
aI1
aa(lp336
I3574
aI2
aa(lp337
I3574
aI3
aa(lp338
I3574
aI4
aa(lp339
I3614
aI0
aa(lp340
I3614
aI1
aa(lp341
I3614
aI2
aa(lp342
I3614
aI3
aa(lp343
I3614
aI4
aa(lp344
I3672
aI1
aa(lp345
I3672
aI2
aa(lp346
I3672
aI4
aa(lp347
I3735
aI0
aa(lp348
I3735
aI1
aa(lp349
I3735
aI2
aa(lp350
I3735
aI3
aa(lp351
I3735
aI4
aa(lp352
I3739
aI0
aa(lp353
I3739
aI1
aa(lp354
I3739
aI2
aa(lp355
I3739
aI3
aa(lp356
I3739
aI4
aa(lp357
I3769
aI0
aa(lp358
I3769
aI1
aa(lp359
I3769
aI2
aa(lp360
I3769
aI3
aa(lp361
I3769
aI4
aa(lp362
I3778
aI1
aa(lp363
I3778
aI2
aa(lp364
I3778
aI4
aa(lp365
I3816
aI0
aa(lp366
I3816
aI1
aa(lp367
I3816
aI2
aa(lp368
I3816
aI3
aa(lp369
I3816
aI4
aa(lp370
I3840
aI0
aa(lp371
I3840
aI1
aa(lp372
I3840
aI4
aa(lp373
I3852
aI0
aa(lp374
I3852
aI1
aa(lp375
I3852
aI2
aa(lp376
I3852
aI3
aa(lp377
I3852
aI4
aa(lp378
I3938
aI0
aa(lp379
I3938
aI1
aa(lp380
I3938
aI2
aa(lp381
I3938
aI4
aa(lp382
I3945
aI0
aa(lp383
I3945
aI1
aa(lp384
I3945
aI2
aa(lp385
I3945
aI3
aa(lp386
I3945
aI4
aa(lp387
I4005
aI0
aa(lp388
I4005
aI1
aa(lp389
I4005
aI2
aa(lp390
I4005
aI3
aa(lp391
I4005
aI4
aa(lp392
I4138
aI0
aa(lp393
I4138
aI1
aa(lp394
I4138
aI2
aa(lp395
I4138
aI3
aa(lp396
I4138
aI4
aa(lp397
I4221
aI0
aa(lp398
I4221
aI1
aa(lp399
I4221
aI2
aa(lp400
I4221
aI3
aa(lp401
I4221
aI4
aa(lp402
I4226
aI0
aa(lp403
I4226
aI1
aa(lp404
I4226
aI2
aa(lp405
I4226
aI3
aa(lp406
I4226
aI4
aa(lp407
I4233
aI0
aa(lp408
I4233
aI1
aa(lp409
I4233
aI2
aa(lp410
I4233
aI3
aa(lp411
I4233
aI4
aa(lp412
I4261
aI0
aa(lp413
I4261
aI1
aa(lp414
I4261
aI4
aa(lp415
I4344
aI0
aa(lp416
I4344
aI1
aa(lp417
I4344
aI2
aa(lp418
I4344
aI3
aa(lp419
I4344
aI4
aa(lp420
I4436
aI0
aa(lp421
I4436
aI1
aa(lp422
I4436
aI3
aa(lp423
I4436
aI4
aa(lp424
I4482
aI0
aa(lp425
I4482
aI1
aa(lp426
I4482
aI3
aa(lp427
I4483
aI0
aa(lp428
I4483
aI1
aa(lp429
I4483
aI2
aa(lp430
I4483
aI3
aa(lp431
I4483
aI4
aa(lp432
I4486
aI0
aa(lp433
I4486
aI1
aa(lp434
I4486
aI2
aa(lp435
I4486
aI3
aa(lp436
I4486
aI4
aa(lp437
I4503
aI0
aa(lp438
I4503
aI1
aa(lp439
I4503
aI3
aa(lp440
I4537
aI0
aa(lp441
I4537
aI1
aa(lp442
I4537
aI2
aa(lp443
I4537
aI3
aa(lp444
I4537
aI4
aa(lp445
I4549
aI0
aa(lp446
I4549
aI1
aa(lp447
I4549
aI2
aa(lp448
I4549
aI3
aa(lp449
I4549
aI4
aa(lp450
I4560
aI0
aa(lp451
I4560
aI1
aa(lp452
I4560
aI2
aa(lp453
I4560
aI3
aa(lp454
I4560
aI4
aa(lp455
I4678
aI0
aa(lp456
I4678
aI1
aa(lp457
I4678
aI2
aa(lp458
I4678
aI3
aa(lp459
I4678
aI4
aa(lp460
I4792
aI0
aa(lp461
I4792
aI1
aa(lp462
I4792
aI2
aa(lp463
I4792
aI3
aa(lp464
I4792
aI4
aa(lp465
I4929
aI0
aa(lp466
I4929
aI1
aa(lp467
I4929
aI2
aa(lp468
I4929
aI3
aa(lp469
I4929
aI4
aa(lp470
I4981
aI0
aa(lp471
I4981
aI1
aa(lp472
I4981
aI3
aa(lp473
I4981
aI4
aa(lp474
I5068
aI0
aa(lp475
I5068
aI1
aa(lp476
I5068
aI2
aa(lp477
I5068
aI3
aa(lp478
I5068
aI4
aa(lp479
I5106
aI0
aa(lp480
I5106
aI1
aa(lp481
I5106
aI2
aa(lp482
I5106
aI3
aa(lp483
I5117
aI0
aa(lp484
I5117
aI1
aa(lp485
I5117
aI2
aa(lp486
I5117
aI3
aa(lp487
I5117
aI4
aa(lp488
I5153
aI2
aa(lp489
I5153
aI3
aa(lp490
I5153
aI4
aa(lp491
I5181
aI0
aa(lp492
I5181
aI1
aa(lp493
I5181
aI2
aa(lp494
I5181
aI3
aa(lp495
I5181
aI4
aa(lp496
I5189
aI0
aa(lp497
I5189
aI1
aa(lp498
I5189
aI2
aa(lp499
I5228
aI0
aa(lp500
I5228
aI1
aa(lp501
I5228
aI2
aa(lp502
I5228
aI3
aa(lp503
I5228
aI4
aa(lp504
I5261
aI0
aa(lp505
I5261
aI1
aa(lp506
I5261
aI2
aa(lp507
I5261
aI3
aa(lp508
I5261
aI4
aa(lp509
I5278
aI0
aa(lp510
I5278
aI1
aa(lp511
I5278
aI3
aa(lp512
I5278
aI4
aa(lp513
I5295
aI0
aa(lp514
I5295
aI1
aa(lp515
I5295
aI2
aa(lp516
I5295
aI3
aa(lp517
I5295
aI4
aa(lp518
I5324
aI4
aa(lp519
I5387
aI0
aa(lp520
I5387
aI1
aa(lp521
I5387
aI2
aa(lp522
I5387
aI3
aa(lp523
I5387
aI4
aa(lp524
I5448
aI0
aa(lp525
I5448
aI1
aa(lp526
I5448
aI2
aa(lp527
I5448
aI3
aa(lp528
I5448
aI4
aa(lp529
I5461
aI0
aa(lp530
I5461
aI2
aa(lp531
I5461
aI3
aa(lp532
I5461
aI4
aa(lp533
I5509
aI0
aa(lp534
I5509
aI1
aa(lp535
I5509
aI2
aa(lp536
I5509
aI3
aa(lp537
I5509
aI4
aa(lp538
I5652
aI1
aa(lp539
I5652
aI2
aa(lp540
I5652
aI4
aa(lp541
I5719
aI0
aa(lp542
I5719
aI1
aa(lp543
I5719
aI2
aa(lp544
I5719
aI3
aa(lp545
I5719
aI4
aa(lp546
I5731
aI0
aa(lp547
I5731
aI1
aa(lp548
I5731
aI2
aa(lp549
I5731
aI3
aa(lp550
I5731
aI4
aa(lp551
I5764
aI0
aa(lp552
I5764
aI1
aa(lp553
I5764
aI2
aa(lp554
I5764
aI3
aa(lp555
I5764
aI4
aa(lp556
I5787
aI0
aa(lp557
I5787
aI1
aa(lp558
I5787
aI2
aa(lp559
I5787
aI3
aa(lp560
I5787
aI4
aa(lp561
I5841
aI0
aa(lp562
I5841
aI1
aa(lp563
I5841
aI3
aa(lp564
I5841
aI4
aa(lp565
I5891
aI0
aa(lp566
I5891
aI1
aa(lp567
I5891
aI2
aa(lp568
I5891
aI3
aa(lp569
I5951
aI0
aa(lp570
I5951
aI1
aa(lp571
I5951
aI2
aa(lp572
I5951
aI3
aa(lp573
I5951
aI4
aa(lp574
I5969
aI0
aa(lp575
I5969
aI1
aa(lp576
I5969
aI2
aa(lp577
I5969
aI3
aa(lp578
I5969
aI4
aa(lp579
I5970
aI0
aa(lp580
I5970
aI1
aa(lp581
I5970
aI2
aa(lp582
I5970
aI3
aa(lp583
I5970
aI4
aa(lp584
I5991
aI2
aa(lp585
I5991
aI3
aa(lp586
I5991
aI4
aa(lp587
I6022
aI0
aa(lp588
I6022
aI1
aa(lp589
I6022
aI3
aa(lp590
I6022
aI4
aa(lp591
I6023
aI0
aa(lp592
I6023
aI1
aa(lp593
I6023
aI2
aa(lp594
I6023
aI3
aa(lp595
I6023
aI4
aa(lp596
I6039
aI0
aa(lp597
I6039
aI1
aa(lp598
I6039
aI2
aa(lp599
I6039
aI3
aa(lp600
I6039
aI4
aa(lp601
I6058
aI0
aa(lp602
I6058
aI1
aa(lp603
I6058
aI2
aa(lp604
I6058
aI3
aa(lp605
I6058
aI4
aa(lp606
I6134
aI0
aa(lp607
I6134
aI1
aa(lp608
I6134
aI2
aa(lp609
I6134
aI3
aa(lp610
I6134
aI4
aa(lp611
I6216
aI0
aa(lp612
I6216
aI1
aa(lp613
I6216
aI2
aa(lp614
I6216
aI3
aa(lp615
I6216
aI4
aa(lp616
I6240
aI0
aa(lp617
I6240
aI2
aa(lp618
I6243
aI0
aa(lp619
I6243
aI1
aa(lp620
I6243
aI2
aa(lp621
I6243
aI3
aa(lp622
I6243
aI4
aa(lp623
I6375
aI0
aa(lp624
I6375
aI1
aa(lp625
I6375
aI2
aa(lp626
I6375
aI3
aa(lp627
I6375
aI4
aa(lp628
I6394
aI0
aa(lp629
I6394
aI1
aa(lp630
I6394
aI2
aa(lp631
I6394
aI3
aa(lp632
I6394
aI4
aa(lp633
I6452
aI0
aa(lp634
I6452
aI1
aa(lp635
I6452
aI2
aa(lp636
I6452
aI3
aa(lp637
I6452
aI4
aa(lp638
I6474
aI0
aa(lp639
I6474
aI1
aa(lp640
I6474
aI2
aa(lp641
I6474
aI3
aa(lp642
I6474
aI4
aa(lp643
I6479
aI0
aa(lp644
I6479
aI1
aa(lp645
I6479
aI2
aa(lp646
I6479
aI3
aa(lp647
I6479
aI4
aa(lp648
I6482
aI0
aa(lp649
I6482
aI1
aa(lp650
I6482
aI2
aa(lp651
I6482
aI3
aa(lp652
I6482
aI4
aa(lp653
I6530
aI0
aa(lp654
I6530
aI1
aa(lp655
I6530
aI2
aa(lp656
I6530
aI3
aa(lp657
I6530
aI4
aa(lp658
I6562
aI0
aa(lp659
I6562
aI1
aa(lp660
I6562
aI2
aa(lp661
I6562
aI3
aa(lp662
I6562
aI4
aa(lp663
I6565
aI0
aa(lp664
I6565
aI1
aa(lp665
I6565
aI2
aa(lp666
I6565
aI3
aa(lp667
I6565
aI4
aa(lp668
I6609
aI0
aa(lp669
I6609
aI1
aa(lp670
I6609
aI2
aa(lp671
I6630
aI1
aa(lp672
I6630
aI2
aa(lp673
I6630
aI3
aa(lp674
I6637
aI0
aa(lp675
I6637
aI1
aa(lp676
I6637
aI2
aa(lp677
I6637
aI3
aa(lp678
I6668
aI0
aa(lp679
I6668
aI1
aa(lp680
I6668
aI2
aa(lp681
I6668
aI3
aa(lp682
I6668
aI4
aa(lp683
I6706
aI0
aa(lp684
I6706
aI1
aa(lp685
I6706
aI2
aa(lp686
I6706
aI3
aa(lp687
I6706
aI4
aa(lp688
I6742
aI1
aa(lp689
I6742
aI2
aa(lp690
I6742
aI3
aa(lp691
I6742
aI4
aa(lp692
I6758
aI0
aa(lp693
I6758
aI1
aa(lp694
I6758
aI2
aa(lp695
I6758
aI3
aa(lp696
I6758
aI4
aa(lp697
I6777
aI0
aa(lp698
I6777
aI1
aa(lp699
I6777
aI2
aa(lp700
I6777
aI3
aa(lp701
I6777
aI4
aa(lp702
I6907
aI0
aa(lp703
I6907
aI1
aa(lp704
I6907
aI2
aa(lp705
I6907
aI3
aa(lp706
I6907
aI4
aa(lp707
I6918
aI1
aa(lp708
I6918
aI2
aa(lp709
I6918
aI3
aa(lp710
I6918
aI4
aa(lp711
I6977
aI0
aa(lp712
I6977
aI1
aa(lp713
I6977
aI2
aa(lp714
I6977
aI3
aa(lp715
I6977
aI4
aa(lp716
I6985
aI1
aa(lp717
I6985
aI2
aa(lp718
I6985
aI3
aa(lp719
I6985
aI4
aa(lp720
I7067
aI0
aa(lp721
I7067
aI1
aa(lp722
I7067
aI2
aa(lp723
I7067
aI3
aa(lp724
I7067
aI4
aa(lp725
I7070
aI0
aa(lp726
I7070
aI1
aa(lp727
I7070
aI2
aa(lp728
I7070
aI3
aa(lp729
I7070
aI4
aa(lp730
I7244
aI0
aa(lp731
I7244
aI1
aa(lp732
I7244
aI2
aa(lp733
I7244
aI3
aa(lp734
I7244
aI4
aa(lp735
I7269
aI0
aa(lp736
I7269
aI1
aa(lp737
I7269
aI2
aa(lp738
I7269
aI4
aa(lp739
I7305
aI1
aa(lp740
I7305
aI4
aa(lp741
I7316
aI0
aa(lp742
I7316
aI1
aa(lp743
I7316
aI2
aa(lp744
I7316
aI3
aa(lp745
I7316
aI4
aa(lp746
I7450
aI0
aa(lp747
I7450
aI1
aa(lp748
I7450
aI2
aa(lp749
I7450
aI3
aa(lp750
I7450
aI4
aa(lp751
I7453
aI0
aa(lp752
I7453
aI1
aa(lp753
I7453
aI2
aa(lp754
I7453
aI3
aa(lp755
I7453
aI4
aa(lp756
I7482
aI1
aa(lp757
I7482
aI3
aa(lp758
I7482
aI4
aa(lp759
I7506
aI0
aa(lp760
I7506
aI1
aa(lp761
I7506
aI2
aa(lp762
I7506
aI3
aa(lp763
I7506
aI4
aa(lp764
I7520
aI0
aa(lp765
I7520
aI1
aa(lp766
I7520
aI2
aa(lp767
I7520
aI3
aa(lp768
I7520
aI4
aa(lp769
I7573
aI0
aa(lp770
I7573
aI1
aa(lp771
I7573
aI2
aa(lp772
I7573
aI3
aa(lp773
I7573
aI4
aa(lp774
I7625
aI0
aa(lp775
I7625
aI1
aa(lp776
I7625
aI2
aa(lp777
I7625
aI3
aa(lp778
I7625
aI4
aa(lp779
I7736
aI0
aa(lp780
I7736
aI1
aa(lp781
I7736
aI2
aa(lp782
I7736
aI3
aa(lp783
I7736
aI4
aa(lp784
I7871
aI0
aa(lp785
I7871
aI2
aa(lp786
I7934
aI0
aa(lp787
I7934
aI1
aa(lp788
I7934
aI2
aa(lp789
I7934
aI3
aa(lp790
I7934
aI4
aa(lp791
I7938
aI0
aa(lp792
I7938
aI1
aa(lp793
I7938
aI2
aa(lp794
I7938
aI3
aa(lp795
I7938
aI4
aa(lp796
I8000
aI0
aa(lp797
I8000
aI1
aa(lp798
I8000
aI2
aa(lp799
I8000
aI3
aa(lp800
I8000
aI4
aa(lp801
I8001
aI0
aa(lp802
I8001
aI2
aa(lp803
I8001
aI3
aa(lp804
I8027
aI0
aa(lp805
I8027
aI1
aa(lp806
I8027
aI2
aa(lp807
I8027
aI3
aa(lp808
I8027
aI4
aa(lp809
I8118
aI0
aa(lp810
I8118
aI1
aa(lp811
I8118
aI2
aa(lp812
I8118
aI3
aa(lp813
I8118
aI4
aa(lp814
I8129
aI0
aa(lp815
I8129
aI1
aa(lp816
I8129
aI2
aa(lp817
I8129
aI4
aa(lp818
I8259
aI0
aa(lp819
I8259
aI1
aa(lp820
I8259
aI2
aa(lp821
I8259
aI3
aa(lp822
I8259
aI4
aa(lp823
I8275
aI0
aa(lp824
I8275
aI1
aa(lp825
I8275
aI2
aa(lp826
I8275
aI3
aa(lp827
I8275
aI4
aa(lp828
I8351
aI0
aa(lp829
I8351
aI1
aa(lp830
I8351
aI2
aa(lp831
I8351
aI4
aa(lp832
I8431
aI0
aa(lp833
I8431
aI1
aa(lp834
I8431
aI2
aa(lp835
I8431
aI3
aa(lp836
I8431
aI4
aa(lp837
I8552
aI0
aa(lp838
I8552
aI1
aa(lp839
I8552
aI2
aa(lp840
I8552
aI3
aa(lp841
I8552
aI4
aa(lp842
I8554
aI0
aa(lp843
I8554
aI1
aa(lp844
I8554
aI2
aa(lp845
I8554
aI3
aa(lp846
I8554
aI4
aa(lp847
I8649
aI0
aa(lp848
I8649
aI1
aa(lp849
I8649
aI2
aa(lp850
I8649
aI3
aa(lp851
I8649
aI4
aa(lp852
I8668
aI0
aa(lp853
I8668
aI1
aa(lp854
I8668
aI2
aa(lp855
I8668
aI4
aa(lp856
I8702
aI0
aa(lp857
I8702
aI1
aa(lp858
I8702
aI2
aa(lp859
I8702
aI3
aa(lp860
I8702
aI4
aa(lp861
I8791
aI0
aa(lp862
I8791
aI1
aa(lp863
I8791
aI2
aa(lp864
I8791
aI3
aa(lp865
I8791
aI4
aa(lp866
I8803
aI0
aa(lp867
I8803
aI1
aa(lp868
I8803
aI2
aa(lp869
I8803
aI3
aa(lp870
I8803
aI4
aa(lp871
I8866
aI0
aa(lp872
I8866
aI1
aa(lp873
I8866
aI2
aa(lp874
I8866
aI3
aa(lp875
I8866
aI4
aa(lp876
I8885
aI0
aa(lp877
I8885
aI1
aa(lp878
I8885
aI2
aa(lp879
I8885
aI3
aa(lp880
I8885
aI4
aa(lp881
I9047
aI0
aa(lp882
I9047
aI1
aa(lp883
I9047
aI2
aa(lp884
I9047
aI3
aa(lp885
I9047
aI4
aa(lp886
I9094
aI0
aa(lp887
I9094
aI1
aa(lp888
I9094
aI2
aa(lp889
I9094
aI4
aa(lp890
I9173
aI0
aa(lp891
I9173
aI1
aa(lp892
I9173
aI2
aa(lp893
I9173
aI3
aa(lp894
I9173
aI4
aa(lp895
I9228
aI0
aa(lp896
I9228
aI1
aa(lp897
I9228
aI2
aa(lp898
I9228
aI3
aa(lp899
I9228
aI4
aa(lp900
I9416
aI0
aa(lp901
I9416
aI1
aa(lp902
I9416
aI2
aa(lp903
I9416
aI3
aa(lp904
I9416
aI4
aa(lp905
I9445
aI0
aa(lp906
I9445
aI1
aa(lp907
I9445
aI2
aa(lp908
I9445
aI3
aa(lp909
I9445
aI4
aa(lp910
I9469
aI0
aa(lp911
I9469
aI1
aa(lp912
I9469
aI2
aa(lp913
I9469
aI3
aa(lp914
I9469
aI4
aa(lp915
I9497
aI0
aa(lp916
I9497
aI1
aa(lp917
I9497
aI2
aa(lp918
I9497
aI3
aa(lp919
I9526
aI0
aa(lp920
I9526
aI1
aa(lp921
I9526
aI2
aa(lp922
I9526
aI3
aa(lp923
I9526
aI4
aa(lp924
I9555
aI0
aa(lp925
I9555
aI1
aa(lp926
I9555
aI2
aa(lp927
I9555
aI3
aa(lp928
I9555
aI4
aa(lp929
I9566
aI1
aa(lp930
I9566
aI4
aa(lp931
I9578
aI0
aa(lp932
I9578
aI1
aa(lp933
I9578
aI2
aa(lp934
I9578
aI3
aa(lp935
I9578
aI4
aa(lp936
I9676
aI0
aa(lp937
I9676
aI1
aa(lp938
I9676
aI2
aa(lp939
I9676
aI4
aa(lp940
I9712
aI0
aa(lp941
I9712
aI1
aa(lp942
I9712
aI2
aa(lp943
I9712
aI3
aa(lp944
I9712
aI4
aa(lp945
I9773
aI0
aa(lp946
I9773
aI1
aa(lp947
I9773
aI2
aa(lp948
I9773
aI3
aa(lp949
I9773
aI4
aa(lp950
I9806
aI0
aa(lp951
I9806
aI1
aa(lp952
I9806
aI2
aa(lp953
I9806
aI3
aa(lp954
I9806
aI4
aa(lp955
I9833
aI0
aa(lp956
I9833
aI1
aa(lp957
I9833
aI2
aa(lp958
I9833
aI3
aa(lp959
I9833
aI4
aa(lp960
I9895
aI0
aa(lp961
I9895
aI1
aa(lp962
I9895
aI2
aa(lp963
I9895
aI3
aa(lp964
I9937
aI3
aa(lp965
I9968
aI0
aa(lp966
I9968
aI1
aa(lp967
I9968
aI2
aa(lp968
I9968
aI3
aa(lp969
I9968
aI4
aa(lp970
I10004
aI0
aa(lp971
I10004
aI1
aa(lp972
I10004
aI2
aa(lp973
I10004
aI4
aa(lp974
I10053
aI0
aa(lp975
I10053
aI1
aa(lp976
I10053
aI3
aa(lp977
I10053
aI4
aa(lp978
I10135
aI0
aa(lp979
I10135
aI1
aa(lp980
I10135
aI2
aa(lp981
I10135
aI3
aa(lp982
I10135
aI4
aa(lp983
I10254
aI0
aa(lp984
I10254
aI1
aa(lp985
I10254
aI2
aa(lp986
I10254
aI4
aa(lp987
I10343
aI0
aa(lp988
I10343
aI1
aa(lp989
I10343
aI2
aa(lp990
I10343
aI3
aa(lp991
I10343
aI4
aa(lp992
I10404
aI0
aa(lp993
I10404
aI1
aa(lp994
I10404
aI2
aa(lp995
I10404
aI3
aa(lp996
I10404
aI4
aa(lp997
I10410
aI0
aa(lp998
I10410
aI1
aa(lp999
I10410
aI2
aa(lp1000
I10410
aI3
aa(lp1001
I10410
aI4
aa(lp1002
I10416
aI0
aa(lp1003
I10416
aI2
aa(lp1004
I10416
aI3
aa(lp1005
I10416
aI4
aa(lp1006
I10417
aI0
aa(lp1007
I10417
aI1
aa(lp1008
I10417
aI2
aa(lp1009
I10417
aI3
aa(lp1010
I10417
aI4
aa(lp1011
I10456
aI4
aa(lp1012
I10466
aI0
aa(lp1013
I10466
aI1
aa(lp1014
I10466
aI2
aa(lp1015
I10466
aI3
aa(lp1016
I10466
aI4
aa(lp1017
I10500
aI0
aa(lp1018
I10500
aI2
aa(lp1019
I10500
aI3
aa(lp1020
I10500
aI4
aa(lp1021
I10523
aI0
aa(lp1022
I10523
aI1
aa(lp1023
I10523
aI2
aa(lp1024
I10568
aI0
aa(lp1025
I10568
aI1
aa(lp1026
I10568
aI2
aa(lp1027
I10568
aI4
aa(lp1028
I10571
aI1
aa(lp1029
I10571
aI3
aa(lp1030
I10571
aI4
aa(lp1031
I10584
aI0
aa(lp1032
I10584
aI1
aa(lp1033
I10584
aI2
aa(lp1034
I10584
aI3
aa(lp1035
I10584
aI4
aa(lp1036
I10597
aI0
aa(lp1037
I10597
aI1
aa(lp1038
I10597
aI2
aa(lp1039
I10597
aI3
aa(lp1040
I10597
aI4
aa(lp1041
I10599
aI1
aa(lp1042
I10599
aI2
aa(lp1043
I10599
aI3
aa(lp1044
I10599
aI4
aa(lp1045
I10622
aI0
aa(lp1046
I10622
aI1
aa(lp1047
I10622
aI2
aa(lp1048
I10622
aI3
aa(lp1049
I10622
aI4
aa(lp1050
I10655
aI0
aa(lp1051
I10655
aI1
aa(lp1052
I10655
aI2
aa(lp1053
I10655
aI3
aa(lp1054
I10779
aI0
aa(lp1055
I10779
aI1
aa(lp1056
I10779
aI2
aa(lp1057
I10779
aI3
aa(lp1058
I10779
aI4
aa(lp1059
I10789
aI0
aa(lp1060
I10789
aI1
aa(lp1061
I10789
aI2
aa(lp1062
I10789
aI3
aa(lp1063
I10789
aI4
aa(lp1064
I10794
aI0
aa(lp1065
I10794
aI1
aa(lp1066
I10794
aI2
aa(lp1067
I10794
aI3
aa(lp1068
I10794
aI4
aa(lp1069
I10858
aI0
aa(lp1070
I10858
aI1
aa(lp1071
I10858
aI2
aa(lp1072
I10858
aI3
aa(lp1073
I10858
aI4
aa(lp1074
I10888
aI1
aa(lp1075
I10888
aI3
aa(lp1076
I10888
aI4
aa(lp1077
I10900
aI0
aa(lp1078
I10900
aI1
aa(lp1079
I10900
aI2
aa(lp1080
I10900
aI3
aa(lp1081
I10900
aI4
aa(lp1082
I10977
aI0
aa(lp1083
I10977
aI1
aa(lp1084
I10977
aI2
aa(lp1085
I10977
aI3
aa(lp1086
I10977
aI4
aa(lp1087
I10983
aI0
aa(lp1088
I10983
aI2
aa(lp1089
I11003
aI0
aa(lp1090
I11003
aI1
aa(lp1091
I11003
aI2
aa(lp1092
I11003
aI3
aa(lp1093
I11003
aI4
aa(lp1094
I11038
aI0
aa(lp1095
I11038
aI1
aa(lp1096
I11038
aI2
aa(lp1097
I11038
aI3
aa(lp1098
I11038
aI4
aa(lp1099
I11055
aI0
aa(lp1100
I11055
aI1
aa(lp1101
I11055
aI2
aa(lp1102
I11055
aI3
aa(lp1103
I11055
aI4
aa(lp1104
I11087
aI4
aa(lp1105
I11095
aI0
aa(lp1106
I11095
aI1
aa(lp1107
I11095
aI2
aa(lp1108
I11095
aI3
aa(lp1109
I11095
aI4
aa(lp1110
I11103
aI0
aa(lp1111
I11103
aI1
aa(lp1112
I11103
aI2
aa(lp1113
I11103
aI3
aa(lp1114
I11103
aI4
aa(lp1115
I11132
aI0
aa(lp1116
I11132
aI1
aa(lp1117
I11132
aI2
aa(lp1118
I11132
aI3
aa(lp1119
I11132
aI4
aa(lp1120
I11168
aI0
aa(lp1121
I11168
aI1
aa(lp1122
I11168
aI2
aa(lp1123
I11168
aI3
aa(lp1124
I11168
aI4
aa(lp1125
I11284
aI0
aa(lp1126
I11284
aI1
aa(lp1127
I11284
aI2
aa(lp1128
I11328
aI0
aa(lp1129
I11328
aI1
aa(lp1130
I11328
aI2
aa(lp1131
I11328
aI3
aa(lp1132
I11328
aI4
aa(lp1133
I11347
aI1
aa(lp1134
I11347
aI3
aa(lp1135
I11347
aI4
aa(lp1136
I11404
aI0
aa(lp1137
I11404
aI1
aa(lp1138
I11404
aI2
aa(lp1139
I11404
aI3
aa(lp1140
I11404
aI4
aa(lp1141
I11501
aI2
aa(lp1142
I11501
aI3
aa(lp1143
I11501
aI4
aa(lp1144
I11513
aI0
aa(lp1145
I11513
aI2
aa(lp1146
I11513
aI3
aa(lp1147
I11513
aI4
aa(lp1148
I11582
aI0
aa(lp1149
I11582
aI1
aa(lp1150
I11582
aI2
aa(lp1151
I11582
aI3
aa(lp1152
I11582
aI4
aa(lp1153
I11610
aI0
aa(lp1154
I11610
aI1
aa(lp1155
I11610
aI2
aa(lp1156
I11610
aI3
aa(lp1157
I11610
aI4
aa(lp1158
I11654
aI3
aa(lp1159
I11795
aI0
aa(lp1160
I11795
aI1
aa(lp1161
I11795
aI2
aa(lp1162
I11795
aI3
aa(lp1163
I11795
aI4
aa(lp1164
I11830
aI0
aa(lp1165
I11830
aI1
aa(lp1166
I11830
aI2
aa(lp1167
I11830
aI3
aa(lp1168
I11830
aI4
aa(lp1169
I11894
aI0
aa(lp1170
I11894
aI1
aa(lp1171
I11894
aI2
aa(lp1172
I11894
aI3
aa(lp1173
I11894
aI4
aa(lp1174
I11899
aI0
aa(lp1175
I11899
aI1
aa(lp1176
I11899
aI2
aa(lp1177
I11899
aI3
aa(lp1178
I11899
aI4
aa(lp1179
I11941
aI0
aa(lp1180
I11941
aI1
aa(lp1181
I11941
aI2
aa(lp1182
I11941
aI3
aa(lp1183
I11941
aI4
aa(lp1184
I12004
aI0
aa(lp1185
I12004
aI1
aa(lp1186
I12004
aI2
aa(lp1187
I12004
aI4
aa(lp1188
I12007
aI0
aa(lp1189
I12007
aI3
aa(lp1190
I12007
aI4
aa(lp1191
I12016
aI0
aa(lp1192
I12016
aI1
aa(lp1193
I12016
aI2
aa(lp1194
I12016
aI3
aa(lp1195
I12016
aI4
aa(lp1196
I12020
aI0
aa(lp1197
I12020
aI1
aa(lp1198
I12020
aI2
aa(lp1199
I12020
aI3
aa(lp1200
I12020
aI4
aa(lp1201
I12041
aI1
aa(lp1202
I12041
aI3
aa(lp1203
I12048
aI0
aa(lp1204
I12048
aI1
aa(lp1205
I12048
aI2
aa(lp1206
I12048
aI3
aa(lp1207
I12048
aI4
aa(lp1208
I12059
aI0
aa(lp1209
I12059
aI1
aa(lp1210
I12059
aI2
aa(lp1211
I12059
aI3
aa(lp1212
I12059
aI4
aa(lp1213
I12073
aI0
aa(lp1214
I12073
aI1
aa(lp1215
I12073
aI2
aa(lp1216
I12073
aI3
aa(lp1217
I12073
aI4
aa(lp1218
I12074
aI0
aa(lp1219
I12074
aI1
aa(lp1220
I12074
aI2
aa(lp1221
I12074
aI3
aa(lp1222
I12074
aI4
aa(lp1223
I12130
aI1
aa(lp1224
I12130
aI2
aa(lp1225
I12130
aI3
aa(lp1226
I12130
aI4
aa(lp1227
I12167
aI0
aa(lp1228
I12167
aI1
aa(lp1229
I12167
aI2
aa(lp1230
I12167
aI3
aa(lp1231
I12167
aI4
aa(lp1232
I12252
aI0
aa(lp1233
I12252
aI1
aa(lp1234
I12252
aI2
aa(lp1235
I12252
aI3
aa(lp1236
I12252
aI4
aa(lp1237
I12274
aI0
aa(lp1238
I12274
aI1
aa(lp1239
I12274
aI2
aa(lp1240
I12274
aI3
aa(lp1241
I12274
aI4
aa(lp1242
I12330
aI0
aa(lp1243
I12330
aI1
aa(lp1244
I12330
aI2
aa(lp1245
I12330
aI3
aa(lp1246
I12330
aI4
aa(lp1247
I12352
aI0
aa(lp1248
I12352
aI1
aa(lp1249
I12352
aI2
aa(lp1250
I12352
aI3
aa(lp1251
I12352
aI4
aa(lp1252
I12390
aI1
aa(lp1253
I12390
aI2
aa(lp1254
I12390
aI3
aa(lp1255
I12390
aI4
aa(lp1256
I12423
aI0
aa(lp1257
I12423
aI1
aa(lp1258
I12423
aI2
aa(lp1259
I12423
aI3
aa(lp1260
I12430
aI0
aa(lp1261
I12430
aI1
aa(lp1262
I12430
aI2
aa(lp1263
I12430
aI3
aa(lp1264
I12430
aI4
aa(lp1265
I12497
aI1
aa(lp1266
I12497
aI2
aa(lp1267
I12497
aI3
aa(lp1268
I12571
aI0
aa(lp1269
I12571
aI1
aa(lp1270
I12571
aI2
aa(lp1271
I12571
aI3
aa(lp1272
I12571
aI4
aa(lp1273
I12619
aI0
aa(lp1274
I12619
aI1
aa(lp1275
I12619
aI2
aa(lp1276
I12619
aI3
aa(lp1277
I12619
aI4
aa(lp1278
I12662
aI1
aa(lp1279
I12662
aI2
aa(lp1280
I12662
aI3
aa(lp1281
I12662
aI4
aa(lp1282
I12685
aI0
aa(lp1283
I12685
aI1
aa(lp1284
I12685
aI2
aa(lp1285
I12685
aI3
aa(lp1286
I12685
aI4
aa(lp1287
I12692
aI2
aa(lp1288
I12692
aI3
aa(lp1289
I12751
aI0
aa(lp1290
I12751
aI1
aa(lp1291
I12751
aI2
aa(lp1292
I12751
aI4
aa(lp1293
I12756
aI0
aa(lp1294
I12756
aI1
aa(lp1295
I12756
aI2
aa(lp1296
I12756
aI3
aa(lp1297
I12756
aI4
aa(lp1298
I12787
aI0
aa(lp1299
I12787
aI1
aa(lp1300
I12787
aI2
aa(lp1301
I12787
aI3
aa(lp1302
I12787
aI4
aa(lp1303
I12828
aI0
aa(lp1304
I12828
aI1
aa(lp1305
I12828
aI2
aa(lp1306
I12828
aI3
aa(lp1307
I12828
aI4
aa(lp1308
I13012
aI0
aa(lp1309
I13012
aI1
aa(lp1310
I13012
aI2
aa(lp1311
I13012
aI3
aa(lp1312
I13012
aI4
aa(lp1313
I13044
aI0
aa(lp1314
I13044
aI1
aa(lp1315
I13044
aI2
aa(lp1316
I13044
aI3
aa(lp1317
I13044
aI4
aa(lp1318
I13067
aI0
aa(lp1319
I13067
aI1
aa(lp1320
I13067
aI2
aa(lp1321
I13067
aI3
aa(lp1322
I13067
aI4
aa(lp1323
I13166
aI0
aa(lp1324
I13166
aI1
aa(lp1325
I13166
aI2
aa(lp1326
I13166
aI4
aa(lp1327
I13303
aI0
aa(lp1328
I13303
aI1
aa(lp1329
I13303
aI2
aa(lp1330
I13303
aI3
aa(lp1331
I13303
aI4
aa(lp1332
I13321
aI0
aa(lp1333
I13321
aI3
aa(lp1334
I13321
aI4
aa(lp1335
I13358
aI0
aa(lp1336
I13358
aI1
aa(lp1337
I13358
aI2
aa(lp1338
I13358
aI4
aa(lp1339
I13377
aI0
aa(lp1340
I13377
aI2
aa(lp1341
I13377
aI3
aa(lp1342
I13377
aI4
aa(lp1343
I13378
aI0
aa(lp1344
I13378
aI1
aa(lp1345
I13378
aI2
aa(lp1346
I13378
aI3
aa(lp1347
I13378
aI4
aa(lp1348
I13498
aI0
aa(lp1349
I13498
aI1
aa(lp1350
I13498
aI3
aa(lp1351
I13498
aI4
aa(lp1352
I13504
aI0
aa(lp1353
I13504
aI1
aa(lp1354
I13504
aI2
aa(lp1355
I13504
aI3
aa(lp1356
I13504
aI4
aa(lp1357
I13515
aI0
aa(lp1358
I13515
aI1
aa(lp1359
I13515
aI2
aa(lp1360
I13515
aI3
aa(lp1361
I13515
aI4
aa(lp1362
I13530
aI0
aa(lp1363
I13530
aI1
aa(lp1364
I13530
aI2
aa(lp1365
I13530
aI3
aa(lp1366
I13530
aI4
aa(lp1367
I13581
aI0
aa(lp1368
I13581
aI1
aa(lp1369
I13581
aI2
aa(lp1370
I13581
aI3
aa(lp1371
I13581
aI4
aa(lp1372
I13639
aI1
aa(lp1373
I13639
aI2
aa(lp1374
I13639
aI3
aa(lp1375
I13639
aI4
aa(lp1376
I13706
aI0
aa(lp1377
I13706
aI1
aa(lp1378
I13706
aI2
aa(lp1379
I13706
aI3
aa(lp1380
I13706
aI4
aa(lp1381
I13725
aI0
aa(lp1382
I13725
aI1
aa(lp1383
I13725
aI2
aa(lp1384
I13725
aI3
aa(lp1385
I13729
aI0
aa(lp1386
I13729
aI1
aa(lp1387
I13729
aI3
aa(lp1388
I13729
aI4
aa(lp1389
I13762
aI0
aa(lp1390
I13762
aI1
aa(lp1391
I13762
aI2
aa(lp1392
I13762
aI3
aa(lp1393
I13762
aI4
aa(lp1394
I13772
aI0
aa(lp1395
I13772
aI1
aa(lp1396
I13772
aI2
aa(lp1397
I13772
aI3
aa(lp1398
I13772
aI4
aa(lp1399
I13834
aI0
aa(lp1400
I13834
aI1
aa(lp1401
I13834
aI2
aa(lp1402
I13834
aI3
aa(lp1403
I13834
aI4
aa(lp1404
I13845
aI0
aa(lp1405
I13845
aI1
aa(lp1406
I13845
aI2
aa(lp1407
I13845
aI3
aa(lp1408
I13845
aI4
aa(lp1409
I13870
aI0
aa(lp1410
I13870
aI1
aa(lp1411
I13870
aI2
aa(lp1412
I13870
aI3
aa(lp1413
I13870
aI4
aa(lp1414
I13940
aI0
aa(lp1415
I13940
aI1
aa(lp1416
I13940
aI2
aa(lp1417
I13940
aI3
aa(lp1418
I13956
aI0
aa(lp1419
I13956
aI1
aa(lp1420
I13956
aI2
aa(lp1421
I13956
aI3
aa(lp1422
I13956
aI4
aa(lp1423
I13964
aI4
aa(lp1424
I13979
aI0
aa(lp1425
I13979
aI1
aa(lp1426
I13979
aI2
aa(lp1427
I13979
aI3
aa(lp1428
I13979
aI4
aa(lp1429
I14121
aI0
aa(lp1430
I14121
aI1
aa(lp1431
I14121
aI2
aa(lp1432
I14121
aI3
aa(lp1433
I14121
aI4
aa(lp1434
I14138
aI0
aa(lp1435
I14138
aI1
aa(lp1436
I14138
aI2
aa(lp1437
I14138
aI3
aa(lp1438
I14138
aI4
aa(lp1439
I14200
aI0
aa(lp1440
I14200
aI2
aa(lp1441
I14200
aI3
aa(lp1442
I14200
aI4
aa(lp1443
I14202
aI0
aa(lp1444
I14202
aI1
aa(lp1445
I14202
aI2
aa(lp1446
I14202
aI3
aa(lp1447
I14202
aI4
aa(lp1448
I14212
aI1
aa(lp1449
I14212
aI2
aa(lp1450
I14212
aI3
aa(lp1451
I14212
aI4
aa(lp1452
I14256
aI0
aa(lp1453
I14256
aI1
aa(lp1454
I14256
aI2
aa(lp1455
I14256
aI3
aa(lp1456
I14332
aI0
aa(lp1457
I14332
aI1
aa(lp1458
I14332
aI2
aa(lp1459
I14332
aI4
aa(lp1460
I14456
aI0
aa(lp1461
I14456
aI1
aa(lp1462
I14456
aI2
aa(lp1463
I14456
aI3
aa(lp1464
I14456
aI4
aa(lp1465
I14470
aI0
aa(lp1466
I14470
aI1
aa(lp1467
I14470
aI2
aa(lp1468
I14470
aI3
aa(lp1469
I14470
aI4
aa(lp1470
I14492
aI0
aa(lp1471
I14492
aI1
aa(lp1472
I14492
aI2
aa(lp1473
I14492
aI3
aa(lp1474
I14492
aI4
aa(lp1475
I14498
aI0
aa(lp1476
I14498
aI1
aa(lp1477
I14498
aI2
aa(lp1478
I14498
aI3
aa(lp1479
I14498
aI4
aa(lp1480
I14504
aI0
aa(lp1481
I14504
aI1
aa(lp1482
I14504
aI2
aa(lp1483
I14504
aI3
aa(lp1484
I14504
aI4
aa(lp1485
I14576
aI0
aa(lp1486
I14576
aI1
aa(lp1487
I14576
aI2
aa(lp1488
I14576
aI3
aa(lp1489
I14576
aI4
aa(lp1490
I14626
aI3
aa(lp1491
I14719
aI0
aa(lp1492
I14719
aI1
aa(lp1493
I14719
aI2
aa(lp1494
I14719
aI3
aa(lp1495
I14745
aI0
aa(lp1496
I14745
aI1
aa(lp1497
I14745
aI2
aa(lp1498
I14745
aI3
aa(lp1499
I14745
aI4
aa(lp1500
I14746
aI0
aa(lp1501
I14746
aI1
aa(lp1502
I14746
aI2
aa(lp1503
I14746
aI3
aa(lp1504
I14746
aI4
aa(lp1505
I14816
aI0
aa(lp1506
I14816
aI1
aa(lp1507
I14816
aI2
aa(lp1508
I14816
aI3
aa(lp1509
I14816
aI4
aa(lp1510
I14818
aI0
aa(lp1511
I14818
aI1
aa(lp1512
I14818
aI2
aa(lp1513
I14818
aI3
aa(lp1514
I14851
aI0
aa(lp1515
I14851
aI1
aa(lp1516
I14851
aI2
aa(lp1517
I14851
aI3
aa(lp1518
I14851
aI4
aa(lp1519
I14929
aI0
aa(lp1520
I14929
aI1
aa(lp1521
I14929
aI2
aa(lp1522
I14929
aI3
aa(lp1523
I14964
aI0
aa(lp1524
I14964
aI1
aa(lp1525
I14964
aI2
aa(lp1526
I14964
aI3
aa(lp1527
I14964
aI4
aa(lp1528
I15024
aI0
aa(lp1529
I15024
aI1
aa(lp1530
I15024
aI2
aa(lp1531
I15024
aI3
aa(lp1532
I15024
aI4
aa(lp1533
I15028
aI0
aa(lp1534
I15028
aI1
aa(lp1535
I15028
aI2
aa(lp1536
I15028
aI3
aa(lp1537
I15028
aI4
aa(lp1538
I15114
aI0
aa(lp1539
I15114
aI1
aa(lp1540
I15114
aI2
aa(lp1541
I15114
aI3
aa(lp1542
I15114
aI4
aa(lp1543
I15149
aI0
aa(lp1544
I15149
aI1
aa(lp1545
I15149
aI2
aa(lp1546
I15149
aI3
aa(lp1547
I15149
aI4
aa(lp1548
I15210
aI0
aa(lp1549
I15210
aI2
aa(lp1550
I15210
aI3
aa(lp1551
I15210
aI4
aa(lp1552
I15324
aI0
aa(lp1553
I15324
aI1
aa(lp1554
I15324
aI2
aa(lp1555
I15324
aI3
aa(lp1556
I15324
aI4
aa(lp1557
I15432
aI1
aa(lp1558
I15432
aI2
aa(lp1559
I15442
aI0
aa(lp1560
I15442
aI1
aa(lp1561
I15442
aI2
aa(lp1562
I15442
aI3
aa(lp1563
I15442
aI4
aa(lp1564
I15505
aI0
aa(lp1565
I15505
aI1
aa(lp1566
I15505
aI3
aa(lp1567
I15505
aI4
aa(lp1568
I15639
aI0
aa(lp1569
I15639
aI1
aa(lp1570
I15639
aI2
aa(lp1571
I15639
aI3
aa(lp1572
I15639
aI4
aa(lp1573
I15655
aI0
aa(lp1574
I15655
aI1
aa(lp1575
I15655
aI2
aa(lp1576
I15655
aI3
aa(lp1577
I15655
aI4
aa(lp1578
I15694
aI0
aa(lp1579
I15694
aI1
aa(lp1580
I15694
aI2
aa(lp1581
I15694
aI3
aa(lp1582
I15694
aI4
aa(lp1583
I15718
aI1
aa(lp1584
I15718
aI2
aa(lp1585
I15718
aI4
aa(lp1586
I15755
aI0
aa(lp1587
I15755
aI1
aa(lp1588
I15755
aI2
aa(lp1589
I15764
aI0
aa(lp1590
I15764
aI1
aa(lp1591
I15764
aI2
aa(lp1592
I15764
aI3
aa(lp1593
I15764
aI4
aa(lp1594
I15829
aI0
aa(lp1595
I15829
aI1
aa(lp1596
I15829
aI2
aa(lp1597
I15829
aI3
aa(lp1598
I15829
aI4
aa(lp1599
I15861
aI3
aa(lp1600
I15912
aI0
aa(lp1601
I15912
aI2
aa(lp1602
I15912
aI3
aa(lp1603
I15912
aI4
aa(lp1604
I15932
aI0
aa(lp1605
I15932
aI1
aa(lp1606
I15932
aI2
aa(lp1607
I15932
aI3
aa(lp1608
I15932
aI4
aa(lp1609
I15938
aI0
aa(lp1610
I15938
aI1
aa(lp1611
I15938
aI2
aa(lp1612
I15938
aI3
aa(lp1613
I16048
aI2
aa(lp1614
I16048
aI3
aa(lp1615
I16114
aI0
aa(lp1616
I16114
aI1
aa(lp1617
I16114
aI2
aa(lp1618
I16114
aI3
aa(lp1619
I16114
aI4
aa(lp1620
I16115
aI1
aa(lp1621
I16115
aI2
aa(lp1622
I16115
aI3
aa(lp1623
I16115
aI4
aa(lp1624
I16191
aI0
aa(lp1625
I16191
aI1
aa(lp1626
I16191
aI2
aa(lp1627
I16191
aI3
aa(lp1628
I16191
aI4
aa(lp1629
I16203
aI0
aa(lp1630
I16203
aI1
aa(lp1631
I16203
aI2
aa(lp1632
I16203
aI3
aa(lp1633
I16203
aI4
aa(lp1634
I16212
aI3
aa(lp1635
I16232
aI0
aa(lp1636
I16232
aI1
aa(lp1637
I16232
aI2
aa(lp1638
I16232
aI3
aa(lp1639
I16232
aI4
aa(lp1640
I16263
aI0
aa(lp1641
I16263
aI1
aa(lp1642
I16263
aI2
aa(lp1643
I16263
aI3
aa(lp1644
I16263
aI4
aa(lp1645
I16322
aI0
aa(lp1646
I16322
aI1
aa(lp1647
I16322
aI2
aa(lp1648
I16322
aI3
aa(lp1649
I16322
aI4
aa(lp1650
I16410
aI0
aa(lp1651
I16410
aI1
aa(lp1652
I16410
aI2
aa(lp1653
I16410
aI3
aa(lp1654
I16410
aI4
aa(lp1655
I16418
aI0
aa(lp1656
I16418
aI1
aa(lp1657
I16418
aI2
aa(lp1658
I16418
aI3
aa(lp1659
I16418
aI4
aa(lp1660
I16435
aI0
aa(lp1661
I16435
aI3
aa(lp1662
I16435
aI4
aa(lp1663
I16445
aI0
aa(lp1664
I16445
aI1
aa(lp1665
I16445
aI2
aa(lp1666
I16445
aI3
aa(lp1667
I16445
aI4
aa(lp1668
I16487
aI0
aa(lp1669
I16487
aI1
aa(lp1670
I16487
aI2
aa(lp1671
I16487
aI3
aa(lp1672
I16487
aI4
aa(lp1673
I16512
aI0
aa(lp1674
I16512
aI1
aa(lp1675
I16512
aI2
aa(lp1676
I16512
aI3
aa(lp1677
I16512
aI4
aa(lp1678
I16521
aI0
aa(lp1679
I16521
aI1
aa(lp1680
I16521
aI2
aa(lp1681
I16521
aI3
aa(lp1682
I16521
aI4
aa(lp1683
I16568
aI0
aa(lp1684
I16568
aI1
aa(lp1685
I16568
aI2
aa(lp1686
I16568
aI3
aa(lp1687
I16568
aI4
aa(lp1688
I16573
aI0
aa(lp1689
I16573
aI1
aa(lp1690
I16573
aI2
aa(lp1691
I16573
aI3
aa(lp1692
I16573
aI4
aa(lp1693
I16575
aI0
aa(lp1694
I16575
aI1
aa(lp1695
I16575
aI2
aa(lp1696
I16575
aI3
aa(lp1697
I16575
aI4
aa(lp1698
I16576
aI0
aa(lp1699
I16576
aI1
aa(lp1700
I16576
aI2
aa(lp1701
I16576
aI3
aa(lp1702
I16576
aI4
aa(lp1703
I16585
aI0
aa(lp1704
I16585
aI1
aa(lp1705
I16585
aI2
aa(lp1706
I16585
aI3
aa(lp1707
I16585
aI4
aa(lp1708
I16601
aI1
aa(lp1709
I16618
aI0
aa(lp1710
I16618
aI1
aa(lp1711
I16618
aI2
aa(lp1712
I16618
aI3
aa(lp1713
I16618
aI4
aa(lp1714
I16650
aI0
aa(lp1715
I16650
aI1
aa(lp1716
I16650
aI2
aa(lp1717
I16650
aI3
aa(lp1718
I16650
aI4
aa(lp1719
I16658
aI0
aa(lp1720
I16658
aI1
aa(lp1721
I16658
aI2
aa(lp1722
I16658
aI3
aa(lp1723
I16658
aI4
aa(lp1724
I16670
aI0
aa(lp1725
I16670
aI1
aa(lp1726
I16670
aI2
aa(lp1727
I16670
aI3
aa(lp1728
I16670
aI4
aa(lp1729
I16782
aI0
aa(lp1730
I16782
aI1
aa(lp1731
I16782
aI2
aa(lp1732
I16782
aI3
aa(lp1733
I16782
aI4
aa(lp1734
I16799
aI0
aa(lp1735
I16799
aI1
aa(lp1736
I16799
aI2
aa(lp1737
I16799
aI3
aa(lp1738
I16799
aI4
aa(lp1739
I16834
aI0
aa(lp1740
I16834
aI1
aa(lp1741
I16834
aI2
aa(lp1742
I16834
aI3
aa(lp1743
I16834
aI4
aa(lp1744
I16897
aI0
aa(lp1745
I16897
aI1
aa(lp1746
I16897
aI2
aa(lp1747
I16897
aI3
aa(lp1748
I16897
aI4
aa(lp1749
I16943
aI0
aa(lp1750
I16943
aI1
aa(lp1751
I16943
aI2
aa(lp1752
I16943
aI3
aa(lp1753
I16943
aI4
aa(lp1754
I17062
aI0
aa(lp1755
I17062
aI1
aa(lp1756
I17062
aI2
aa(lp1757
I17062
aI3
aa(lp1758
I17062
aI4
aa(lp1759
I17094
aI0
aa(lp1760
I17094
aI1
aa(lp1761
I17094
aI2
aa(lp1762
I17094
aI3
aa(lp1763
I17094
aI4
aa(lp1764
I17152
aI0
aa(lp1765
I17152
aI1
aa(lp1766
I17152
aI2
aa(lp1767
I17152
aI3
aa(lp1768
I17152
aI4
aa(lp1769
I17159
aI0
aa(lp1770
I17159
aI1
aa(lp1771
I17159
aI2
aa(lp1772
I17159
aI3
aa(lp1773
I17159
aI4
aa(lp1774
I17290
aI0
aa(lp1775
I17290
aI1
aa(lp1776
I17290
aI2
aa(lp1777
I17290
aI3
aa(lp1778
I17290
aI4
aa(lp1779
I17395
aI0
aa(lp1780
I17395
aI1
aa(lp1781
I17395
aI2
aa(lp1782
I17395
aI3
aa(lp1783
I17395
aI4
aa(lp1784
I17435
aI0
aa(lp1785
I17435
aI1
aa(lp1786
I17435
aI2
aa(lp1787
I17435
aI3
aa(lp1788
I17435
aI4
aa(lp1789
I17572
aI0
aa(lp1790
I17572
aI1
aa(lp1791
I17572
aI2
aa(lp1792
I17572
aI3
aa(lp1793
I17572
aI4
aa(lp1794
I17716
aI0
aa(lp1795
I17740
aI0
aa(lp1796
I17740
aI1
aa(lp1797
I17740
aI2
aa(lp1798
I17963
aI0
aa(lp1799
I17963
aI1
aa(lp1800
I17963
aI2
aa(lp1801
I17963
aI3
aa(lp1802
I17963
aI4
aa(lp1803
I17967
aI0
aa(lp1804
I17967
aI1
aa(lp1805
I17967
aI2
aa(lp1806
I17967
aI3
aa(lp1807
I17967
aI4
aa(lp1808
I18022
aI0
aa(lp1809
I18022
aI1
aa(lp1810
I18022
aI2
aa(lp1811
I18022
aI3
aa(lp1812
I18022
aI4
aa(lp1813
I18049
aI0
aa(lp1814
I18049
aI1
aa(lp1815
I18049
aI2
aa(lp1816
I18049
aI3
aa(lp1817
I18049
aI4
aa(lp1818
I18118
aI0
aa(lp1819
I18118
aI1
aa(lp1820
I18118
aI2
aa(lp1821
I18118
aI3
aa(lp1822
I18118
aI4
aa(lp1823
I18138
aI0
aa(lp1824
I18138
aI1
aa(lp1825
I18138
aI3
aa(lp1826
I18138
aI4
aa(lp1827
I18181
aI0
aa(lp1828
I18181
aI2
aa(lp1829
I18181
aI3
aa(lp1830
I18181
aI4
aa(lp1831
I18248
aI0
aa(lp1832
I18248
aI1
aa(lp1833
I18248
aI2
aa(lp1834
I18248
aI3
aa(lp1835
I18248
aI4
aa(lp1836
I18364
aI0
aa(lp1837
I18364
aI1
aa(lp1838
I18364
aI3
aa(lp1839
I18364
aI4
aa(lp1840
I18410
aI0
aa(lp1841
I18410
aI1
aa(lp1842
I18410
aI2
aa(lp1843
I18410
aI3
aa(lp1844
I18472
aI0
aa(lp1845
I18472
aI1
aa(lp1846
I18472
aI2
aa(lp1847
I18472
aI3
aa(lp1848
I18472
aI4
aa(lp1849
I18485
aI0
aa(lp1850
I18485
aI1
aa(lp1851
I18485
aI2
aa(lp1852
I18485
aI3
aa(lp1853
I18485
aI4
aa(lp1854
I18490
aI0
aa(lp1855
I18490
aI1
aa(lp1856
I18490
aI2
aa(lp1857
I18490
aI3
aa(lp1858
I18490
aI4
aa(lp1859
I18497
aI0
aa(lp1860
I18497
aI1
aa(lp1861
I18497
aI2
aa(lp1862
I18497
aI3
aa(lp1863
I18497
aI4
aa(lp1864
I18541
aI0
aa(lp1865
I18541
aI1
aa(lp1866
I18541
aI2
aa(lp1867
I18541
aI3
aa(lp1868
I18541
aI4
aa(lp1869
I18552
aI0
aa(lp1870
I18552
aI1
aa(lp1871
I18552
aI2
aa(lp1872
I18552
aI3
aa(lp1873
I18552
aI4
aa(lp1874
I18565
aI0
aa(lp1875
I18565
aI1
aa(lp1876
I18565
aI2
aa(lp1877
I18565
aI3
aa(lp1878
I18565
aI4
aa(lp1879
I18600
aI0
aa(lp1880
I18600
aI1
aa(lp1881
I18600
aI2
aa(lp1882
I18600
aI3
aa(lp1883
I18600
aI4
aa(lp1884
I18645
aI0
aa(lp1885
I18645
aI1
aa(lp1886
I18645
aI2
aa(lp1887
I18645
aI3
aa(lp1888
I18645
aI4
aa(lp1889
I18655
aI0
aa(lp1890
I18655
aI1
aa(lp1891
I18655
aI2
aa(lp1892
I18655
aI3
aa(lp1893
I18655
aI4
aa(lp1894
I18658
aI0
aa(lp1895
I18658
aI1
aa(lp1896
I18658
aI2
aa(lp1897
I18658
aI3
aa(lp1898
I18658
aI4
aa(lp1899
I18708
aI0
aa(lp1900
I18708
aI1
aa(lp1901
I18708
aI2
aa(lp1902
I18708
aI3
aa(lp1903
I18708
aI4
aa(lp1904
I18759
aI0
aa(lp1905
I18759
aI1
aa(lp1906
I18759
aI2
aa(lp1907
I18759
aI3
aa(lp1908
I18759
aI4
aa(lp1909
I18828
aI0
aa(lp1910
I18828
aI2
aa(lp1911
I18828
aI4
aa(lp1912
I18846
aI0
aa(lp1913
I18846
aI1
aa(lp1914
I18846
aI2
aa(lp1915
I18846
aI3
aa(lp1916
I18846
aI4
aa(lp1917
I18863
aI0
aa(lp1918
I18863
aI1
aa(lp1919
I18863
aI2
aa(lp1920
I18863
aI3
aa(lp1921
I18863
aI4
aa(lp1922
I18898
aI0
aa(lp1923
I18898
aI1
aa(lp1924
I18898
aI2
aa(lp1925
I18898
aI3
aa(lp1926
I18898
aI4
aa(lp1927
I19001
aI0
aa(lp1928
I19001
aI1
aa(lp1929
I19001
aI2
aa(lp1930
I19001
aI3
aa(lp1931
I19001
aI4
aa(lp1932
I19017
aI0
aa(lp1933
I19037
aI0
aa(lp1934
I19037
aI1
aa(lp1935
I19037
aI2
aa(lp1936
I19037
aI3
aa(lp1937
I19037
aI4
aa(lp1938
I19058
aI0
aa(lp1939
I19058
aI2
aa(lp1940
I19058
aI3
aa(lp1941
I19058
aI4
aa(lp1942
I19154
aI3
aa(lp1943
I19207
aI0
aa(lp1944
I19207
aI1
aa(lp1945
I19207
aI2
aa(lp1946
I19207
aI3
aa(lp1947
I19207
aI4
aa(lp1948
I19208
aI0
aa(lp1949
I19208
aI1
aa(lp1950
I19208
aI2
aa(lp1951
I19208
aI3
aa(lp1952
I19208
aI4
aa(lp1953
I19210
aI0
aa(lp1954
I19210
aI2
aa(lp1955
I19210
aI3
aa(lp1956
I19210
aI4
aa(lp1957
I19230
aI0
aa(lp1958
I19230
aI1
aa(lp1959
I19230
aI2
aa(lp1960
I19230
aI3
aa(lp1961
I19230
aI4
aa(lp1962
I19369
aI0
aa(lp1963
I19369
aI1
aa(lp1964
I19369
aI2
aa(lp1965
I19369
aI3
aa(lp1966
I19421
aI0
aa(lp1967
I19421
aI1
aa(lp1968
I19421
aI2
aa(lp1969
I19421
aI4
aa(lp1970
I19482
aI0
aa(lp1971
I19482
aI1
aa(lp1972
I19482
aI2
aa(lp1973
I19482
aI3
aa(lp1974
I19482
aI4
aa(lp1975
I19529
aI4
aa(lp1976
I19543
aI0
aa(lp1977
I19543
aI1
aa(lp1978
I19543
aI2
aa(lp1979
I19543
aI3
aa(lp1980
I19543
aI4
aa(lp1981
I19567
aI0
aa(lp1982
I19567
aI1
aa(lp1983
I19567
aI2
aa(lp1984
I19567
aI4
aa(lp1985
I19617
aI0
aa(lp1986
I19617
aI1
aa(lp1987
I19617
aI2
aa(lp1988
I19617
aI3
aa(lp1989
I19617
aI4
aa(lp1990
I19733
aI0
aa(lp1991
I19733
aI1
aa(lp1992
I19733
aI2
aa(lp1993
I19733
aI3
aa(lp1994
I19733
aI4
aa(lp1995
I19786
aI0
aa(lp1996
I19786
aI1
aa(lp1997
I19786
aI2
aa(lp1998
I19786
aI3
aa(lp1999
I19786
aI4
aa(lp2000
I19810
aI0
aa(lp2001
I19810
aI1
aa(lp2002
I19810
aI2
aa(lp2003
I19810
aI3
aa(lp2004
I19849
aI0
aa(lp2005
I19849
aI1
aa(lp2006
I19849
aI2
aa(lp2007
I19897
aI0
aa(lp2008
I19897
aI1
aa(lp2009
I19897
aI2
aa(lp2010
I19897
aI3
aa(lp2011
I19897
aI4
aa(lp2012
I19904
aI4
aa(lp2013
I20074
aI0
aa(lp2014
I20074
aI1
aa(lp2015
I20074
aI2
aa(lp2016
I20074
aI3
aa(lp2017
I20074
aI4
aa(lp2018
I20099
aI0
aa(lp2019
I20099
aI1
aa(lp2020
I20099
aI2
aa(lp2021
I20099
aI4
aa(lp2022
I20100
aI0
aa(lp2023
I20100
aI1
aa(lp2024
I20100
aI2
aa(lp2025
I20100
aI3
aa(lp2026
I20100
aI4
aa(lp2027
I20205
aI0
aa(lp2028
I20246
aI1
aa(lp2029
I20246
aI4
aa(lp2030
I20295
aI0
aa(lp2031
I20295
aI1
aa(lp2032
I20295
aI3
aa(lp2033
I20295
aI4
aa(lp2034
I20348
aI0
aa(lp2035
I20348
aI1
aa(lp2036
I20348
aI2
aa(lp2037
I20348
aI3
aa(lp2038
I20348
aI4
aa(lp2039
I20375
aI1
aa(lp2040
I20375
aI3
aa(lp2041
I20375
aI4
aa(lp2042
I20404
aI0
aa(lp2043
I20404
aI1
aa(lp2044
I20404
aI2
aa(lp2045
I20404
aI3
aa(lp2046
I20404
aI4
aa(lp2047
I20549
aI4
aa(lp2048
I20562
aI0
aa(lp2049
I20562
aI1
aa(lp2050
I20562
aI2
aa(lp2051
I20562
aI3
aa(lp2052
I20562
aI4
aa(lp2053
I20596
aI0
aa(lp2054
I20596
aI1
aa(lp2055
I20596
aI2
aa(lp2056
I20596
aI3
aa(lp2057
I20596
aI4
aa(lp2058
I20668
aI0
aa(lp2059
I20668
aI1
aa(lp2060
I20668
aI2
aa(lp2061
I20668
aI3
aa(lp2062
I20668
aI4
aa(lp2063
I20670
aI0
aa(lp2064
I20670
aI1
aa(lp2065
I20670
aI2
aa(lp2066
I20670
aI3
aa(lp2067
I20670
aI4
aa(lp2068
I20683
aI1
aa(lp2069
I20683
aI2
aa(lp2070
I20683
aI3
aa(lp2071
I20683
aI4
aa(lp2072
I20739
aI0
aa(lp2073
I20739
aI1
aa(lp2074
I20739
aI2
aa(lp2075
I20739
aI3
aa(lp2076
I20739
aI4
aa(lp2077
I20798
aI0
aa(lp2078
I20798
aI1
aa(lp2079
I20798
aI2
aa(lp2080
I20798
aI3
aa(lp2081
I20798
aI4
aa(lp2082
I20875
aI0
aa(lp2083
I20875
aI1
aa(lp2084
I20875
aI2
aa(lp2085
I20875
aI3
aa(lp2086
I20875
aI4
aa(lp2087
I20902
aI0
aa(lp2088
I20902
aI1
aa(lp2089
I20902
aI2
aa(lp2090
I20902
aI3
aa(lp2091
I20902
aI4
aa(lp2092
I20924
aI0
aa(lp2093
I20924
aI1
aa(lp2094
I20924
aI2
aa(lp2095
I20924
aI3
aa(lp2096
I20924
aI4
aa(lp2097
I20987
aI0
aa(lp2098
I20987
aI1
aa(lp2099
I20987
aI2
aa(lp2100
I20987
aI3
aa(lp2101
I20987
aI4
aa(lp2102
I21019
aI0
aa(lp2103
I21019
aI1
aa(lp2104
I21019
aI2
aa(lp2105
I21019
aI3
aa(lp2106
I21019
aI4
aa(lp2107
I21058
aI0
aa(lp2108
I21058
aI2
aa(lp2109
I21058
aI3
aa(lp2110
I21058
aI4
aa(lp2111
I21060
aI0
aa(lp2112
I21060
aI1
aa(lp2113
I21060
aI2
aa(lp2114
I21060
aI3
aa(lp2115
I21060
aI4
aa(lp2116
I21179
aI0
aa(lp2117
I21179
aI1
aa(lp2118
I21179
aI2
aa(lp2119
I21179
aI3
aa(lp2120
I21179
aI4
aa(lp2121
I21233
aI0
aa(lp2122
I21233
aI1
aa(lp2123
I21233
aI2
aa(lp2124
I21233
aI3
aa(lp2125
I21233
aI4
aa(lp2126
I21315
aI0
aa(lp2127
I21315
aI1
aa(lp2128
I21315
aI2
aa(lp2129
I21315
aI3
aa(lp2130
I21315
aI4
aa(lp2131
I21391
aI0
aa(lp2132
I21391
aI1
aa(lp2133
I21391
aI2
aa(lp2134
I21391
aI3
aa(lp2135
I21391
aI4
aa(lp2136
I21459
aI0
aa(lp2137
I21459
aI2
aa(lp2138
I21459
aI3
aa(lp2139
I21459
aI4
aa(lp2140
I21498
aI3
aa(lp2141
I21515
aI0
aa(lp2142
I21515
aI2
aa(lp2143
I21515
aI3
aa(lp2144
I21515
aI4
aa(lp2145
I21642
aI0
aa(lp2146
I21642
aI1
aa(lp2147
I21753
aI0
aa(lp2148
I21753
aI1
aa(lp2149
I21753
aI2
aa(lp2150
I21753
aI3
aa(lp2151
I21753
aI4
aa(lp2152
I21757
aI0
aa(lp2153
I21757
aI1
aa(lp2154
I21757
aI3
aa(lp2155
I21757
aI4
aa(lp2156
I21913
aI0
aa(lp2157
I21939
aI0
aa(lp2158
I21939
aI1
aa(lp2159
I21939
aI2
aa(lp2160
I21939
aI3
aa(lp2161
I21939
aI4
aa(lp2162
I22004
aI0
aa(lp2163
I22004
aI1
aa(lp2164
I22004
aI2
aa(lp2165
I22004
aI3
aa(lp2166
I22004
aI4
aa(lp2167
I22039
aI1
aa(lp2168
I22039
aI4
aa(lp2169
I22061
aI0
aa(lp2170
I22061
aI1
aa(lp2171
I22061
aI2
aa(lp2172
I22061
aI3
aa(lp2173
I22061
aI4
aa(lp2174
I22078
aI0
aa(lp2175
I22078
aI1
aa(lp2176
I22078
aI2
aa(lp2177
I22078
aI3
aa(lp2178
I22078
aI4
aa(lp2179
I22119
aI0
aa(lp2180
I22119
aI1
aa(lp2181
I22119
aI2
aa(lp2182
I22119
aI3
aa(lp2183
I22119
aI4
aa(lp2184
I22199
aI0
aa(lp2185
I22199
aI1
aa(lp2186
I22199
aI2
aa(lp2187
I22199
aI3
aa(lp2188
I22199
aI4
aa(lp2189
I22209
aI0
aa(lp2190
I22209
aI1
aa(lp2191
I22209
aI2
aa(lp2192
I22209
aI3
aa(lp2193
I22209
aI4
aa(lp2194
I22346
aI0
aa(lp2195
I22346
aI1
aa(lp2196
I22346
aI2
aa(lp2197
I22346
aI3
aa(lp2198
I22346
aI4
aa(lp2199
I22398
aI0
aa(lp2200
I22398
aI1
aa(lp2201
I22398
aI2
aa(lp2202
I22398
aI3
aa(lp2203
I22398
aI4
aa(lp2204
I22419
aI0
aa(lp2205
I22419
aI1
aa(lp2206
I22419
aI2
aa(lp2207
I22419
aI3
aa(lp2208
I22419
aI4
aa(lp2209
I22423
aI0
aa(lp2210
I22423
aI1
aa(lp2211
I22423
aI2
aa(lp2212
I22423
aI3
aa(lp2213
I22423
aI4
aa(lp2214
I22431
aI0
aa(lp2215
I22431
aI1
aa(lp2216
I22431
aI2
aa(lp2217
I22431
aI3
aa(lp2218
I22431
aI4
aa(lp2219
I22442
aI0
aa(lp2220
I22442
aI1
aa(lp2221
I22442
aI2
aa(lp2222
I22442
aI3
aa(lp2223
I22442
aI4
aa(lp2224
I22490
aI0
aa(lp2225
I22490
aI1
aa(lp2226
I22490
aI2
aa(lp2227
I22490
aI3
aa(lp2228
I22490
aI4
aa(lp2229
I22546
aI1
aa(lp2230
I22546
aI2
aa(lp2231
I22546
aI3
aa(lp2232
I22546
aI4
aa(lp2233
I22589
aI0
aa(lp2234
I22589
aI2
aa(lp2235
I22589
aI3
aa(lp2236
I22589
aI4
aa(lp2237
I22602
aI0
aa(lp2238
I22602
aI1
aa(lp2239
I22602
aI3
aa(lp2240
I22602
aI4
aa(lp2241
I22636
aI0
aa(lp2242
I22636
aI1
aa(lp2243
I22636
aI2
aa(lp2244
I22636
aI3
aa(lp2245
I22636
aI4
aa(lp2246
I22647
aI0
aa(lp2247
I22647
aI1
aa(lp2248
I22647
aI2
aa(lp2249
I22647
aI3
aa(lp2250
I22647
aI4
aa(lp2251
I22739
aI1
aa(lp2252
I22739
aI4
aa(lp2253
I22742
aI0
aa(lp2254
I22742
aI1
aa(lp2255
I22742
aI2
aa(lp2256
I22742
aI3
aa(lp2257
I22742
aI4
aa(lp2258
I22804
aI0
aa(lp2259
I22804
aI1
aa(lp2260
I22804
aI2
aa(lp2261
I22804
aI3
aa(lp2262
I22804
aI4
aa(lp2263
I22855
aI0
aa(lp2264
I22855
aI1
aa(lp2265
I22855
aI2
aa(lp2266
I22855
aI3
aa(lp2267
I22855
aI4
aa(lp2268
I22946
aI0
aa(lp2269
I22946
aI1
aa(lp2270
I22946
aI2
aa(lp2271
I22946
aI3
aa(lp2272
I22946
aI4
aa(lp2273
I23072
aI0
aa(lp2274
I23072
aI1
aa(lp2275
I23072
aI2
aa(lp2276
I23072
aI4
aa(lp2277
I23109
aI0
aa(lp2278
I23109
aI1
aa(lp2279
I23109
aI2
aa(lp2280
I23109
aI3
aa(lp2281
I23201
aI0
aa(lp2282
I23201
aI1
aa(lp2283
I23201
aI2
aa(lp2284
I23201
aI3
aa(lp2285
I23201
aI4
aa(lp2286
I23228
aI0
aa(lp2287
I23228
aI1
aa(lp2288
I23228
aI2
aa(lp2289
I23228
aI3
aa(lp2290
I23228
aI4
aa(lp2291
I23236
aI0
aa(lp2292
I23236
aI1
aa(lp2293
I23236
aI4
aa(lp2294
I23237
aI0
aa(lp2295
I23237
aI1
aa(lp2296
I23237
aI2
aa(lp2297
I23237
aI3
aa(lp2298
I23237
aI4
aa(lp2299
I23318
aI0
aa(lp2300
I23318
aI1
aa(lp2301
I23318
aI2
aa(lp2302
I23318
aI3
aa(lp2303
I23318
aI4
aa(lp2304
I23324
aI1
aa(lp2305
I23324
aI2
aa(lp2306
I23324
aI3
aa(lp2307
I23324
aI4
aa(lp2308
I23392
aI0
aa(lp2309
I23392
aI1
aa(lp2310
I23392
aI2
aa(lp2311
I23392
aI3
aa(lp2312
I23392
aI4
aa(lp2313
I23427
aI0
aa(lp2314
I23427
aI1
aa(lp2315
I23427
aI2
aa(lp2316
I23427
aI3
aa(lp2317
I23427
aI4
aa(lp2318
I23477
aI0
aa(lp2319
I23477
aI1
aa(lp2320
I23477
aI2
aa(lp2321
I23477
aI3
aa(lp2322
I23477
aI4
aa(lp2323
I23575
aI1
aa(lp2324
I23575
aI2
aa(lp2325
I23575
aI3
aa(lp2326
I23590
aI0
aa(lp2327
I23590
aI1
aa(lp2328
I23590
aI2
aa(lp2329
I23590
aI3
aa(lp2330
I23590
aI4
aa(lp2331
I23611
aI0
aa(lp2332
I23611
aI1
aa(lp2333
I23611
aI2
aa(lp2334
I23611
aI3
aa(lp2335
I23611
aI4
aa(lp2336
I23635
aI0
aa(lp2337
I23635
aI2
aa(lp2338
I23635
aI3
aa(lp2339
I23635
aI4
aa(lp2340
I23657
aI0
aa(lp2341
I23657
aI1
aa(lp2342
I23657
aI2
aa(lp2343
I23657
aI3
aa(lp2344
I23657
aI4
aa(lp2345
I23663
aI0
aa(lp2346
I23663
aI1
aa(lp2347
I23663
aI2
aa(lp2348
I23663
aI3
aa(lp2349
I23663
aI4
aa(lp2350
I23762
aI0
aa(lp2351
I23762
aI1
aa(lp2352
I23762
aI2
aa(lp2353
I23762
aI3
aa(lp2354
I23762
aI4
aa(lp2355
I23767
aI0
aa(lp2356
I23767
aI1
aa(lp2357
I23767
aI2
aa(lp2358
I23767
aI3
aa(lp2359
I23767
aI4
aa(lp2360
I23791
aI0
aa(lp2361
I23791
aI1
aa(lp2362
I23791
aI3
aa(lp2363
I23791
aI4
aa(lp2364
I23832
aI0
aa(lp2365
I23832
aI1
aa(lp2366
I23832
aI2
aa(lp2367
I23832
aI3
aa(lp2368
I23832
aI4
aa(lp2369
I23881
aI0
aa(lp2370
I23881
aI1
aa(lp2371
I23881
aI2
aa(lp2372
I23881
aI3
aa(lp2373
I23881
aI4
aa(lp2374
I23889
aI0
aa(lp2375
I23889
aI1
aa(lp2376
I23889
aI2
aa(lp2377
I23889
aI3
aa(lp2378
I23889
aI4
aa(lp2379
I23910
aI0
aa(lp2380
I23910
aI2
aa(lp2381
I23910
aI3
aa(lp2382
I23910
aI4
aa(lp2383
I23918
aI0
aa(lp2384
I23918
aI1
aa(lp2385
I23918
aI2
aa(lp2386
I23918
aI3
aa(lp2387
I23918
aI4
aa(lp2388
I23999
aI0
aa(lp2389
I23999
aI3
aa(lp2390
I23999
aI4
aa(lp2391
I24008
aI3
aa(lp2392
I24030
aI0
aa(lp2393
I24030
aI1
aa(lp2394
I24030
aI2
aa(lp2395
I24030
aI3
aa(lp2396
I24030
aI4
aa(lp2397
I24084
aI0
aa(lp2398
I24084
aI1
aa(lp2399
I24084
aI2
aa(lp2400
I24084
aI3
aa(lp2401
I24084
aI4
aa(lp2402
I24104
aI0
aa(lp2403
I24104
aI1
aa(lp2404
I24104
aI2
aa(lp2405
I24104
aI4
aa(lp2406
I24139
aI0
aa(lp2407
I24139
aI1
aa(lp2408
I24139
aI2
aa(lp2409
I24139
aI3
aa(lp2410
I24139
aI4
aa(lp2411
I24190
aI0
aa(lp2412
I24190
aI1
aa(lp2413
I24190
aI2
aa(lp2414
I24190
aI3
aa(lp2415
I24190
aI4
aa(lp2416
I24205
aI0
aa(lp2417
I24205
aI1
aa(lp2418
I24205
aI2
aa(lp2419
I24205
aI4
aa(lp2420
I24215
aI1
aa(lp2421
I24288
aI0
aa(lp2422
I24288
aI1
aa(lp2423
I24288
aI3
aa(lp2424
I24288
aI4
aa(lp2425
I24418
aI0
aa(lp2426
I24418
aI1
aa(lp2427
I24418
aI2
aa(lp2428
I24418
aI3
aa(lp2429
I24418
aI4
aa(lp2430
I24449
aI0
aa(lp2431
I24449
aI1
aa(lp2432
I24449
aI2
aa(lp2433
I24449
aI3
aa(lp2434
I24449
aI4
aa(lp2435
I24451
aI0
aa(lp2436
I24451
aI1
aa(lp2437
I24451
aI2
aa(lp2438
I24451
aI3
aa(lp2439
I24451
aI4
aa(lp2440
I24472
aI0
aa(lp2441
I24472
aI1
aa(lp2442
I24472
aI3
aa(lp2443
I24472
aI4
aa(lp2444
I24475
aI0
aa(lp2445
I24475
aI1
aa(lp2446
I24475
aI2
aa(lp2447
I24475
aI3
aa(lp2448
I24475
aI4
aa(lp2449
I24497
aI0
aa(lp2450
I24497
aI1
aa(lp2451
I24497
aI2
aa(lp2452
I24497
aI3
aa(lp2453
I24497
aI4
aa(lp2454
I24538
aI0
aa(lp2455
I24538
aI1
aa(lp2456
I24538
aI2
aa(lp2457
I24538
aI3
aa(lp2458
I24538
aI4
aa(lp2459
I24582
aI0
aa(lp2460
I24582
aI1
aa(lp2461
I24582
aI2
aa(lp2462
I24582
aI3
aa(lp2463
I24582
aI4
aa(lp2464
I24634
aI0
aa(lp2465
I24634
aI1
aa(lp2466
I24634
aI2
aa(lp2467
I24634
aI3
aa(lp2468
I24634
aI4
aa(lp2469
I24849
aI0
aa(lp2470
I24849
aI1
aa(lp2471
I24849
aI2
aa(lp2472
I24849
aI3
aa(lp2473
I24849
aI4
aa(lp2474
I24899
aI0
aa(lp2475
I24899
aI1
aa(lp2476
I24899
aI2
aa(lp2477
I24899
aI3
aa(lp2478
I24899
aI4
aa(lp2479
I24966
aI1
aa(lp2480
I24966
aI3
aa(lp2481
I24966
aI4
aa(lp2482
I24994
aI0
aa(lp2483
I24994
aI1
aa(lp2484
I24994
aI2
aa(lp2485
I24994
aI3
aa(lp2486
I24994
aI4
aa(lp2487
I25079
aI2
aa(lp2488
I25079
aI3
aa(lp2489
I25079
aI4
aa(lp2490
I25163
aI0
aa(lp2491
I25163
aI1
aa(lp2492
I25163
aI2
aa(lp2493
I25163
aI4
aa(lp2494
I25165
aI0
aa(lp2495
I25165
aI1
aa(lp2496
I25165
aI2
aa(lp2497
I25165
aI3
aa(lp2498
I25165
aI4
aa(lp2499
I25205
aI0
aa(lp2500
I25205
aI2
aa(lp2501
I25205
aI3
aa(lp2502
I25205
aI4
aa(lp2503
I25266
aI0
aa(lp2504
I25266
aI1
aa(lp2505
I25266
aI2
aa(lp2506
I25266
aI3
aa(lp2507
I25266
aI4
aa(lp2508
I25298
aI0
aa(lp2509
I25298
aI1
aa(lp2510
I25298
aI2
aa(lp2511
I25298
aI3
aa(lp2512
I25298
aI4
aa(lp2513
I25535
aI0
aa(lp2514
I25535
aI1
aa(lp2515
I25535
aI2
aa(lp2516
I25535
aI3
aa(lp2517
I25535
aI4
aa(lp2518
I25631
aI1
aa(lp2519
I25631
aI3
aa(lp2520
I25646
aI0
aa(lp2521
I25646
aI1
aa(lp2522
I25646
aI2
aa(lp2523
I25646
aI3
aa(lp2524
I25753
aI0
aa(lp2525
I25753
aI1
aa(lp2526
I25753
aI2
aa(lp2527
I25753
aI3
aa(lp2528
I25753
aI4
aa(lp2529
I25840
aI0
aa(lp2530
I25840
aI1
aa(lp2531
I25840
aI2
aa(lp2532
I25840
aI3
aa(lp2533
I25840
aI4
aa(lp2534
I25855
aI0
aa(lp2535
I25855
aI1
aa(lp2536
I25855
aI2
aa(lp2537
I25855
aI3
aa(lp2538
I25855
aI4
aa(lp2539
I25944
aI0
aa(lp2540
I25944
aI1
aa(lp2541
I25944
aI2
aa(lp2542
I25944
aI3
aa(lp2543
I25944
aI4
aa(lp2544
I26069
aI0
aa(lp2545
I26069
aI1
aa(lp2546
I26069
aI2
aa(lp2547
I26069
aI3
aa(lp2548
I26069
aI4
aa(lp2549
I26100
aI0
aa(lp2550
I26100
aI2
aa(lp2551
I26100
aI3
aa(lp2552
I26100
aI4
aa(lp2553
I26103
aI0
aa(lp2554
I26103
aI1
aa(lp2555
I26103
aI2
aa(lp2556
I26103
aI3
aa(lp2557
I26103
aI4
aa(lp2558
I26126
aI0
aa(lp2559
I26126
aI2
aa(lp2560
I26126
aI3
aa(lp2561
I26126
aI4
aa(lp2562
I26190
aI0
aa(lp2563
I26190
aI1
aa(lp2564
I26190
aI2
aa(lp2565
I26190
aI3
aa(lp2566
I26190
aI4
aa(lp2567
I26195
aI0
aa(lp2568
I26195
aI1
aa(lp2569
I26195
aI2
aa(lp2570
I26195
aI3
aa(lp2571
I26195
aI4
aa(lp2572
I26214
aI0
aa(lp2573
I26214
aI1
aa(lp2574
I26214
aI2
aa(lp2575
I26214
aI3
aa(lp2576
I26214
aI4
aa(lp2577
I26228
aI0
aa(lp2578
I26228
aI1
aa(lp2579
I26228
aI2
aa(lp2580
I26228
aI3
aa(lp2581
I26228
aI4
aa(lp2582
I26389
aI0
aa(lp2583
I26389
aI1
aa(lp2584
I26389
aI2
aa(lp2585
I26389
aI3
aa(lp2586
I26389
aI4
aa(lp2587
I26435
aI0
aa(lp2588
I26435
aI1
aa(lp2589
I26435
aI2
aa(lp2590
I26435
aI3
aa(lp2591
I26435
aI4
aa(lp2592
I26437
aI0
aa(lp2593
I26437
aI1
aa(lp2594
I26437
aI2
aa(lp2595
I26437
aI4
aa(lp2596
I26456
aI0
aa(lp2597
I26456
aI1
aa(lp2598
I26456
aI2
aa(lp2599
I26456
aI3
aa(lp2600
I26456
aI4
aa(lp2601
I26460
aI0
aa(lp2602
I26460
aI1
aa(lp2603
I26460
aI2
aa(lp2604
I26460
aI3
aa(lp2605
I26460
aI4
aa(lp2606
I26472
aI0
aa(lp2607
I26472
aI1
aa(lp2608
I26472
aI2
aa(lp2609
I26472
aI3
aa(lp2610
I26472
aI4
aa(lp2611
I26606
aI0
aa(lp2612
I26606
aI1
aa(lp2613
I26606
aI2
aa(lp2614
I26606
aI3
aa(lp2615
I26606
aI4
aa(lp2616
I26612
aI1
aa(lp2617
I26612
aI2
aa(lp2618
I26612
aI3
aa(lp2619
I26821
aI0
aa(lp2620
I26821
aI1
aa(lp2621
I26821
aI2
aa(lp2622
I26821
aI3
aa(lp2623
I26821
aI4
aa(lp2624
I26859
aI0
aa(lp2625
I26859
aI1
aa(lp2626
I26859
aI2
aa(lp2627
I26859
aI3
aa(lp2628
I26859
aI4
aa(lp2629
I26899
aI0
aa(lp2630
I26899
aI1
aa(lp2631
I26899
aI2
aa(lp2632
I26899
aI4
aa(lp2633
I26931
aI0
aa(lp2634
I26931
aI1
aa(lp2635
I26931
aI2
aa(lp2636
I26931
aI3
aa(lp2637
I26931
aI4
aa(lp2638
I26966
aI3
aa(lp2639
I27026
aI0
aa(lp2640
I27026
aI1
aa(lp2641
I27026
aI2
aa(lp2642
I27026
aI3
aa(lp2643
I27026
aI4
aa(lp2644
I27096
aI2
aa(lp2645
I27154
aI0
aa(lp2646
I27154
aI1
aa(lp2647
I27154
aI3
aa(lp2648
I27154
aI4
aa(lp2649
I27183
aI0
aa(lp2650
I27183
aI1
aa(lp2651
I27183
aI2
aa(lp2652
I27183
aI3
aa(lp2653
I27183
aI4
aa(lp2654
I27218
aI1
aa(lp2655
I27218
aI2
aa(lp2656
I27218
aI3
aa(lp2657
I27278
aI0
aa(lp2658
I27278
aI1
aa(lp2659
I27278
aI2
aa(lp2660
I27278
aI3
aa(lp2661
I27278
aI4
aa(lp2662
I27344
aI0
aa(lp2663
I27344
aI1
aa(lp2664
I27344
aI2
aa(lp2665
I27344
aI3
aa(lp2666
I27344
aI4
aa(lp2667
I27489
aI0
aa(lp2668
I27489
aI1
aa(lp2669
I27489
aI2
aa(lp2670
I27489
aI3
aa(lp2671
I27489
aI4
aa(lp2672
I27591
aI0
aa(lp2673
I27591
aI1
aa(lp2674
I27591
aI2
aa(lp2675
I27591
aI3
aa(lp2676
I27591
aI4
aa(lp2677
I27823
aI0
aa(lp2678
I27823
aI1
aa(lp2679
I27823
aI4
aa(lp2680
I27853
aI1
aa(lp2681
I27853
aI2
aa(lp2682
I27853
aI4
aa(lp2683
I27908
aI0
aa(lp2684
I27908
aI1
aa(lp2685
I27908
aI2
aa(lp2686
I27908
aI3
aa(lp2687
I27908
aI4
aa(lp2688
I27975
aI0
aa(lp2689
I27975
aI1
aa(lp2690
I27975
aI2
aa(lp2691
I27975
aI3
aa(lp2692
I27975
aI4
aa(lp2693
I28073
aI0
aa(lp2694
I28073
aI1
aa(lp2695
I28073
aI2
aa(lp2696
I28073
aI3
aa(lp2697
I28073
aI4
aa(lp2698
I28119
aI0
aa(lp2699
I28119
aI1
aa(lp2700
I28119
aI2
aa(lp2701
I28119
aI3
aa(lp2702
I28119
aI4
aa(lp2703
I28126
aI0
aa(lp2704
I28126
aI1
aa(lp2705
I28126
aI2
aa(lp2706
I28126
aI3
aa(lp2707
I28126
aI4
aa(lp2708
I28178
aI0
aa(lp2709
I28178
aI1
aa(lp2710
I28178
aI2
aa(lp2711
I28178
aI3
aa(lp2712
I28178
aI4
aa(lp2713
I28188
aI0
aa(lp2714
I28188
aI1
aa(lp2715
I28188
aI2
aa(lp2716
I28188
aI3
aa(lp2717
I28188
aI4
aa(lp2718
I28258
aI0
aa(lp2719
I28258
aI2
aa(lp2720
I28258
aI3
aa(lp2721
I28281
aI0
aa(lp2722
I28281
aI1
aa(lp2723
I28281
aI2
aa(lp2724
I28281
aI3
aa(lp2725
I28281
aI4
aa(lp2726
I28472
aI0
aa(lp2727
I28472
aI1
aa(lp2728
I28472
aI2
aa(lp2729
I28472
aI3
aa(lp2730
I28472
aI4
aa(lp2731
I28529
aI0
aa(lp2732
I28529
aI2
aa(lp2733
I28529
aI3
aa(lp2734
I28529
aI4
aa(lp2735
I28551
aI0
aa(lp2736
I28551
aI1
aa(lp2737
I28551
aI2
aa(lp2738
I28551
aI3
aa(lp2739
I28551
aI4
aa(lp2740
I28728
aI0
aa(lp2741
I28728
aI1
aa(lp2742
I28728
aI2
aa(lp2743
I28728
aI3
aa(lp2744
I28728
aI4
aa(lp2745
I28749
aI0
aa(lp2746
I28749
aI2
aa(lp2747
I28849
aI0
aa(lp2748
I28849
aI1
aa(lp2749
I28849
aI2
aa(lp2750
I28849
aI3
aa(lp2751
I28849
aI4
aa(lp2752
I28890
aI0
aa(lp2753
I28890
aI1
aa(lp2754
I28890
aI2
aa(lp2755
I28890
aI3
aa(lp2756
I28890
aI4
aa(lp2757
I28969
aI0
aa(lp2758
I28969
aI1
aa(lp2759
I28969
aI2
aa(lp2760
I28969
aI3
aa(lp2761
I28969
aI4
aa(lp2762
I28987
aI0
aa(lp2763
I28987
aI1
aa(lp2764
I28987
aI3
aa(lp2765
I28987
aI4
aa(lp2766
I29073
aI0
aa(lp2767
I29073
aI2
aa(lp2768
I29073
aI3
aa(lp2769
I29073
aI4
aa(lp2770
I29077
aI0
aa(lp2771
I29077
aI1
aa(lp2772
I29077
aI2
aa(lp2773
I29077
aI3
aa(lp2774
I29077
aI4
aa(lp2775
I29103
aI0
aa(lp2776
I29103
aI1
aa(lp2777
I29103
aI2
aa(lp2778
I29103
aI3
aa(lp2779
I29103
aI4
aa(lp2780
I29163
aI2
aa(lp2781
I29163
aI3
aa(lp2782
I29205
aI0
aa(lp2783
I29205
aI1
aa(lp2784
I29205
aI2
aa(lp2785
I29205
aI3
aa(lp2786
I29205
aI4
aa(lp2787
I29252
aI0
aa(lp2788
I29252
aI1
aa(lp2789
I29252
aI2
aa(lp2790
I29252
aI4
aa(lp2791
I29379
aI0
aa(lp2792
I29379
aI1
aa(lp2793
I29379
aI2
aa(lp2794
I29379
aI3
aa(lp2795
I29379
aI4
aa(lp2796
I29430
aI0
aa(lp2797
I29430
aI1
aa(lp2798
I29430
aI2
aa(lp2799
I29430
aI3
aa(lp2800
I29430
aI4
aa(lp2801
I29557
aI0
aa(lp2802
I29557
aI1
aa(lp2803
I29557
aI2
aa(lp2804
I29557
aI3
aa(lp2805
I29557
aI4
aa(lp2806
I29596
aI0
aa(lp2807
I29596
aI1
aa(lp2808
I29596
aI2
aa(lp2809
I29596
aI3
aa(lp2810
I29596
aI4
aa(lp2811
I29618
aI0
aa(lp2812
I29618
aI1
aa(lp2813
I29618
aI2
aa(lp2814
I29618
aI3
aa(lp2815
I29618
aI4
aa(lp2816
I29664
aI0
aa(lp2817
I29664
aI1
aa(lp2818
I29664
aI2
aa(lp2819
I29664
aI3
aa(lp2820
I29664
aI4
aa(lp2821
I29675
aI0
aa(lp2822
I29675
aI1
aa(lp2823
I29675
aI2
aa(lp2824
I29675
aI3
aa(lp2825
I29675
aI4
aa(lp2826
I29714
aI0
aa(lp2827
I29714
aI1
aa(lp2828
I29714
aI2
aa(lp2829
I29714
aI3
aa(lp2830
I29714
aI4
aa(lp2831
I29969
aI0
aa(lp2832
I29969
aI1
aa(lp2833
I29969
aI2
aa(lp2834
I29969
aI3
aa(lp2835
I29969
aI4
aa(lp2836
I30003
aI0
aa(lp2837
I30003
aI1
aa(lp2838
I30003
aI2
aa(lp2839
I30003
aI3
aa(lp2840
I30003
aI4
aa(lp2841
I30064
aI0
aa(lp2842
I30064
aI1
aa(lp2843
I30064
aI2
aa(lp2844
I30064
aI3
aa(lp2845
I30064
aI4
aa(lp2846
I30070
aI0
aa(lp2847
I30070
aI1
aa(lp2848
I30070
aI2
aa(lp2849
I30070
aI3
aa(lp2850
I30070
aI4
aa(lp2851
I30085
aI0
aa(lp2852
I30085
aI1
aa(lp2853
I30085
aI2
aa(lp2854
I30085
aI3
aa(lp2855
I30085
aI4
aa(lp2856
I30127
aI0
aa(lp2857
I30127
aI2
aa(lp2858
I30127
aI3
aa(lp2859
I30194
aI0
aa(lp2860
I30194
aI1
aa(lp2861
I30194
aI2
aa(lp2862
I30194
aI3
aa(lp2863
I30194
aI4
aa(lp2864
I30198
aI0
aa(lp2865
I30198
aI1
aa(lp2866
I30198
aI2
aa(lp2867
I30198
aI3
aa(lp2868
I30198
aI4
aa(lp2869
I30199
aI0
aa(lp2870
I30199
aI1
aa(lp2871
I30199
aI2
aa(lp2872
I30199
aI3
aa(lp2873
I30199
aI4
aa(lp2874
I30204
aI0
aa(lp2875
I30204
aI1
aa(lp2876
I30204
aI2
aa(lp2877
I30204
aI3
aa(lp2878
I30204
aI4
aa(lp2879
I30225
aI0
aa(lp2880
I30225
aI1
aa(lp2881
I30225
aI2
aa(lp2882
I30225
aI3
aa(lp2883
I30225
aI4
aa(lp2884
I30247
aI0
aa(lp2885
I30247
aI1
aa(lp2886
I30247
aI2
aa(lp2887
I30247
aI3
aa(lp2888
I30247
aI4
aa(lp2889
I30274
aI1
aa(lp2890
I30274
aI2
aa(lp2891
I30274
aI4
aa(lp2892
I30304
aI0
aa(lp2893
I30304
aI1
aa(lp2894
I30304
aI2
aa(lp2895
I30304
aI3
aa(lp2896
I30304
aI4
aa(lp2897
I30329
aI0
aa(lp2898
I30329
aI1
aa(lp2899
I30329
aI2
aa(lp2900
I30329
aI3
aa(lp2901
I30400
aI0
aa(lp2902
I30400
aI1
aa(lp2903
I30400
aI2
aa(lp2904
I30400
aI3
aa(lp2905
I30400
aI4
aa(lp2906
I30439
aI2
aa(lp2907
I30439
aI3
aa(lp2908
I30486
aI0
aa(lp2909
I30486
aI1
aa(lp2910
I30486
aI3
aa(lp2911
I30486
aI4
aa(lp2912
I30563
aI0
aa(lp2913
I30563
aI1
aa(lp2914
I30563
aI2
aa(lp2915
I30563
aI3
aa(lp2916
I30563
aI4
aa(lp2917
I30565
aI0
aa(lp2918
I30565
aI1
aa(lp2919
I30565
aI2
aa(lp2920
I30565
aI3
aa(lp2921
I30565
aI4
aa(lp2922
I30610
aI0
aa(lp2923
I30610
aI1
aa(lp2924
I30610
aI2
aa(lp2925
I30610
aI3
aa(lp2926
I30610
aI4
aa(lp2927
I30676
aI0
aa(lp2928
I30676
aI1
aa(lp2929
I30676
aI2
aa(lp2930
I30676
aI3
aa(lp2931
I30676
aI4
aa(lp2932
I30682
aI0
aa(lp2933
I30682
aI1
aa(lp2934
I30682
aI2
aa(lp2935
I30682
aI3
aa(lp2936
I30682
aI4
aa(lp2937
I30683
aI0
aa(lp2938
I30683
aI1
aa(lp2939
I30683
aI2
aa(lp2940
I30683
aI3
aa(lp2941
I30683
aI4
aa(lp2942
I30698
aI0
aa(lp2943
I30698
aI1
aa(lp2944
I30698
aI2
aa(lp2945
I30698
aI3
aa(lp2946
I30698
aI4
aa(lp2947
I30743
aI0
aa(lp2948
I30743
aI1
aa(lp2949
I30743
aI2
aa(lp2950
I30743
aI3
aa(lp2951
I30743
aI4
aa(lp2952
I30807
aI0
aa(lp2953
I30807
aI1
aa(lp2954
I30807
aI2
aa(lp2955
I30807
aI3
aa(lp2956
I30807
aI4
aa(lp2957
I30877
aI0
aa(lp2958
I30877
aI1
aa(lp2959
I30877
aI2
aa(lp2960
I30877
aI3
aa(lp2961
I30877
aI4
aa(lp2962
I30915
aI0
aa(lp2963
I30915
aI1
aa(lp2964
I30915
aI2
aa(lp2965
I30915
aI3
aa(lp2966
I30915
aI4
aa(lp2967
I30928
aI0
aa(lp2968
I30928
aI1
aa(lp2969
I30928
aI2
aa(lp2970
I30928
aI3
aa(lp2971
I30928
aI4
aa(lp2972
I30938
aI0
aa(lp2973
I30938
aI1
aa(lp2974
I30938
aI2
aa(lp2975
I30938
aI3
aa(lp2976
I30938
aI4
aa(lp2977
I30977
aI0
aa(lp2978
I30977
aI1
aa(lp2979
I30977
aI2
aa(lp2980
I30977
aI3
aa(lp2981
I30977
aI4
aa(lp2982
I30987
aI0
aa(lp2983
I30987
aI1
aa(lp2984
I30987
aI2
aa(lp2985
I30987
aI3
aa(lp2986
I30999
aI0
aa(lp2987
I30999
aI1
aa(lp2988
I30999
aI2
aa(lp2989
I30999
aI4
aa(lp2990
I31054
aI0
aa(lp2991
I31054
aI2
aa(lp2992
I31054
aI4
aa(lp2993
I31123
aI0
aa(lp2994
I31123
aI1
aa(lp2995
I31123
aI4
aa(lp2996
I31138
aI0
aa(lp2997
I31138
aI1
aa(lp2998
I31138
aI2
aa(lp2999
I31138
aI3
aa(lp3000
I31138
aI4
aa(lp3001
I31146
aI0
aa(lp3002
I31146
aI2
aa(lp3003
I31146
aI3
aa(lp3004
I31146
aI4
aa(lp3005
I31154
aI0
aa(lp3006
I31154
aI1
aa(lp3007
I31154
aI3
aa(lp3008
I31154
aI4
aa(lp3009
I31276
aI0
aa(lp3010
I31276
aI1
aa(lp3011
I31276
aI2
aa(lp3012
I31276
aI3
aa(lp3013
I31276
aI4
aa(lp3014
I31476
aI0
aa(lp3015
I31476
aI2
aa(lp3016
I31476
aI3
aa(lp3017
I31476
aI4
aa(lp3018
I31515
aI0
aa(lp3019
I31515
aI2
aa(lp3020
I31515
aI3
aa(lp3021
I31515
aI4
aa(lp3022
I31549
aI0
aa(lp3023
I31549
aI1
aa(lp3024
I31549
aI2
aa(lp3025
I31549
aI3
aa(lp3026
I31586
aI0
aa(lp3027
I31586
aI1
aa(lp3028
I31586
aI2
aa(lp3029
I31586
aI3
aa(lp3030
I31586
aI4
aa(lp3031
I31587
aI0
aa(lp3032
I31587
aI1
aa(lp3033
I31588
aI0
aa(lp3034
I31588
aI1
aa(lp3035
I31588
aI2
aa(lp3036
I31588
aI3
aa(lp3037
I31588
aI4
aa(lp3038
I31642
aI0
aa(lp3039
I31642
aI1
aa(lp3040
I31642
aI2
aa(lp3041
I31642
aI3
aa(lp3042
I31642
aI4
aa(lp3043
I31673
aI0
aa(lp3044
I31673
aI1
aa(lp3045
I31673
aI2
aa(lp3046
I31673
aI3
aa(lp3047
I31673
aI4
aa(lp3048
I31689
aI0
aa(lp3049
I31689
aI1
aa(lp3050
I31689
aI2
aa(lp3051
I31689
aI3
aa(lp3052
I31689
aI4
aa(lp3053
I31727
aI0
aa(lp3054
I31727
aI1
aa(lp3055
I31727
aI2
aa(lp3056
I31727
aI4
aa(lp3057
I31756
aI0
aa(lp3058
I31756
aI1
aa(lp3059
I31756
aI2
aa(lp3060
I31756
aI3
aa(lp3061
I31756
aI4
aa(lp3062
I31833
aI0
aa(lp3063
I31833
aI2
aa(lp3064
I31836
aI0
aa(lp3065
I31836
aI1
aa(lp3066
I31836
aI2
aa(lp3067
I31836
aI3
aa(lp3068
I31884
aI0
aa(lp3069
I31884
aI1
aa(lp3070
I31884
aI2
aa(lp3071
I31884
aI3
aa(lp3072
I31884
aI4
aa(lp3073
I31928
aI0
aa(lp3074
I31928
aI1
aa(lp3075
I31928
aI3
aa(lp3076
I31928
aI4
aa(lp3077
I31972
aI0
aa(lp3078
I31972
aI1
aa(lp3079
I31972
aI2
aa(lp3080
I31972
aI3
aa(lp3081
I32010
aI0
aa(lp3082
I32010
aI1
aa(lp3083
I32010
aI2
aa(lp3084
I32039
aI3
aa(lp3085
I32060
aI0
aa(lp3086
I32060
aI1
aa(lp3087
I32060
aI2
aa(lp3088
I32060
aI3
aa(lp3089
I32097
aI0
aa(lp3090
I32097
aI1
aa(lp3091
I32097
aI2
aa(lp3092
I32097
aI3
aa(lp3093
I32097
aI4
aa(lp3094
I32107
aI0
aa(lp3095
I32107
aI1
aa(lp3096
I32107
aI2
aa(lp3097
I32107
aI3
aa(lp3098
I32107
aI4
aa(lp3099
I32183
aI0
aa(lp3100
I32183
aI1
aa(lp3101
I32183
aI2
aa(lp3102
I32183
aI3
aa(lp3103
I32183
aI4
aa(lp3104
I32406
aI0
aa(lp3105
I32406
aI1
aa(lp3106
I32406
aI2
aa(lp3107
I32406
aI3
aa(lp3108
I32406
aI4
aa(lp3109
I32559
aI0
aa(lp3110
I32559
aI1
aa(lp3111
I32559
aI2
aa(lp3112
I32559
aI3
aa(lp3113
I32559
aI4
aa(lp3114
I32589
aI0
aa(lp3115
I32589
aI1
aa(lp3116
I32589
aI4
aa(lp3117
I32618
aI0
aa(lp3118
I32618
aI1
aa(lp3119
I32618
aI2
aa(lp3120
I32618
aI3
aa(lp3121
I32618
aI4
aa(lp3122
I32636
aI0
aa(lp3123
I32636
aI1
aa(lp3124
I32636
aI2
aa(lp3125
I32636
aI3
aa(lp3126
I32636
aI4
aa(lp3127
I32807
aI0
aa(lp3128
I32807
aI1
aa(lp3129
I32807
aI2
aa(lp3130
I32807
aI3
aa(lp3131
I32807
aI4
aa(lp3132
I32835
aI0
aa(lp3133
I32865
aI0
aa(lp3134
I32865
aI1
aa(lp3135
I32865
aI2
aa(lp3136
I32865
aI3
aa(lp3137
I32865
aI4
aa(lp3138
I32907
aI0
aa(lp3139
I32907
aI1
aa(lp3140
I32907
aI2
aa(lp3141
I32907
aI3
aa(lp3142
I33058
aI0
aa(lp3143
I33058
aI1
aa(lp3144
I33058
aI2
aa(lp3145
I33058
aI4
aa(lp3146
I33085
aI0
aa(lp3147
I33085
aI1
aa(lp3148
I33085
aI2
aa(lp3149
I33085
aI3
aa(lp3150
I33085
aI4
aa(lp3151
I33139
aI0
aa(lp3152
I33139
aI1
aa(lp3153
I33139
aI2
aa(lp3154
I33139
aI3
aa(lp3155
I33139
aI4
aa(lp3156
I33242
aI0
aa(lp3157
I33242
aI1
aa(lp3158
I33242
aI2
aa(lp3159
I33242
aI3
aa(lp3160
I33242
aI4
aa(lp3161
I33253
aI0
aa(lp3162
I33253
aI1
aa(lp3163
I33253
aI3
aa(lp3164
I33253
aI4
aa(lp3165
I33318
aI0
aa(lp3166
I33318
aI1
aa(lp3167
I33318
aI2
aa(lp3168
I33318
aI3
aa(lp3169
I33318
aI4
aa(lp3170
I33319
aI0
aa(lp3171
I33319
aI1
aa(lp3172
I33319
aI2
aa(lp3173
I33319
aI4
aa(lp3174
I33328
aI0
aa(lp3175
I33328
aI1
aa(lp3176
I33328
aI2
aa(lp3177
I33328
aI3
aa(lp3178
I33540
aI1
aa(lp3179
I33540
aI2
aa(lp3180
I33540
aI3
aa(lp3181
I33540
aI4
aa(lp3182
I33717
aI0
aa(lp3183
I33717
aI1
aa(lp3184
I33717
aI2
aa(lp3185
I33717
aI3
aa(lp3186
I33717
aI4
aa(lp3187
I33731
aI0
aa(lp3188
I33731
aI1
aa(lp3189
I33731
aI2
aa(lp3190
I33731
aI3
aa(lp3191
I33731
aI4
aa(lp3192
I33778
aI0
aa(lp3193
I33778
aI1
aa(lp3194
I33778
aI2
aa(lp3195
I33778
aI3
aa(lp3196
I33778
aI4
aa(lp3197
I33803
aI0
aa(lp3198
I33803
aI1
aa(lp3199
I33803
aI2
aa(lp3200
I33803
aI3
aa(lp3201
I33803
aI4
aa(lp3202
I33843
aI0
aa(lp3203
I33843
aI1
aa(lp3204
I33843
aI2
aa(lp3205
I33843
aI3
aa(lp3206
I33843
aI4
aa(lp3207
I33890
aI0
aa(lp3208
I33890
aI1
aa(lp3209
I33890
aI2
aa(lp3210
I33890
aI3
aa(lp3211
I33890
aI4
aa(lp3212
I33936
aI0
aa(lp3213
I33936
aI1
aa(lp3214
I33936
aI2
aa(lp3215
I33936
aI3
aa(lp3216
I33936
aI4
aa(lp3217
I33947
aI0
aa(lp3218
I33947
aI1
aa(lp3219
I33947
aI2
aa(lp3220
I33947
aI3
aa(lp3221
I33947
aI4
aa(lp3222
I34029
aI0
aa(lp3223
I34029
aI1
aa(lp3224
I34029
aI2
aa(lp3225
I34029
aI3
aa(lp3226
I34029
aI4
aa(lp3227
I34060
aI0
aa(lp3228
I34060
aI1
aa(lp3229
I34060
aI2
aa(lp3230
I34060
aI3
aa(lp3231
I34060
aI4
aa(lp3232
I34076
aI0
aa(lp3233
I34076
aI1
aa(lp3234
I34076
aI2
aa(lp3235
I34076
aI3
aa(lp3236
I34076
aI4
aa(lp3237
I34088
aI0
aa(lp3238
I34088
aI1
aa(lp3239
I34088
aI2
aa(lp3240
I34088
aI3
aa(lp3241
I34088
aI4
aa(lp3242
I34144
aI0
aa(lp3243
I34144
aI1
aa(lp3244
I34144
aI2
aa(lp3245
I34144
aI3
aa(lp3246
I34144
aI4
aa(lp3247
I34213
aI0
aa(lp3248
I34213
aI1
aa(lp3249
I34213
aI2
aa(lp3250
I34213
aI3
aa(lp3251
I34213
aI4
aa(lp3252
I34320
aI0
aa(lp3253
I34320
aI1
aa(lp3254
I34320
aI2
aa(lp3255
I34320
aI3
aa(lp3256
I34331
aI0
aa(lp3257
I34331
aI1
aa(lp3258
I34331
aI2
aa(lp3259
I34331
aI3
aa(lp3260
I34331
aI4
aa(lp3261
I34381
aI0
aa(lp3262
I34381
aI1
aa(lp3263
I34381
aI2
aa(lp3264
I34381
aI3
aa(lp3265
I34381
aI4
aa(lp3266
I34431
aI0
aa(lp3267
I34431
aI1
aa(lp3268
I34431
aI2
aa(lp3269
I34431
aI3
aa(lp3270
I34431
aI4
aa(lp3271
I34440
aI0
aa(lp3272
I34440
aI1
aa(lp3273
I34440
aI2
aa(lp3274
I34440
aI3
aa(lp3275
I34440
aI4
aa(lp3276
I34441
aI0
aa(lp3277
I34441
aI1
aa(lp3278
I34441
aI2
aa(lp3279
I34441
aI3
aa(lp3280
I34441
aI4
aa(lp3281
I34452
aI0
aa(lp3282
I34452
aI1
aa(lp3283
I34452
aI2
aa(lp3284
I34452
aI3
aa(lp3285
I34452
aI4
aa(lp3286
I34492
aI0
aa(lp3287
I34492
aI1
aa(lp3288
I34492
aI4
aa(lp3289
I34561
aI0
aa(lp3290
I34561
aI2
aa(lp3291
I34561
aI3
aa(lp3292
I34561
aI4
aa(lp3293
I34684
aI3
aa(lp3294
I34862
aI0
aa(lp3295
I34862
aI1
aa(lp3296
I34862
aI2
aa(lp3297
I34862
aI3
aa(lp3298
I34862
aI4
aa(lp3299
I34974
aI0
aa(lp3300
I34974
aI1
aa(lp3301
I34974
aI2
aa(lp3302
I34974
aI3
aa(lp3303
I34974
aI4
aa(lp3304
I35031
aI0
aa(lp3305
I35031
aI1
aa(lp3306
I35031
aI2
aa(lp3307
I35031
aI3
aa(lp3308
I35031
aI4
aa(lp3309
I35033
aI0
aa(lp3310
I35033
aI1
aa(lp3311
I35033
aI2
aa(lp3312
I35033
aI3
aa(lp3313
I35033
aI4
aa(lp3314
I35042
aI0
aa(lp3315
I35042
aI1
aa(lp3316
I35042
aI4
aa(lp3317
I35046
aI0
aa(lp3318
I35046
aI1
aa(lp3319
I35046
aI2
aa(lp3320
I35046
aI3
aa(lp3321
I35046
aI4
aa(lp3322
I35062
aI0
aa(lp3323
I35062
aI1
aa(lp3324
I35062
aI2
aa(lp3325
I35062
aI3
aa(lp3326
I35140
aI0
aa(lp3327
I35140
aI1
aa(lp3328
I35140
aI2
aa(lp3329
I35140
aI3
aa(lp3330
I35140
aI4
aa(lp3331
I35152
aI0
aa(lp3332
I35152
aI2
aa(lp3333
I35152
aI3
aa(lp3334
I35152
aI4
aa(lp3335
I35205
aI1
aa(lp3336
I35229
aI2
aa(lp3337
I35229
aI3
aa(lp3338
I35312
aI2
aa(lp3339
I35312
aI3
aa(lp3340
I35312
aI4
aa(lp3341
I35335
aI0
aa(lp3342
I35335
aI1
aa(lp3343
I35335
aI2
aa(lp3344
I35335
aI3
aa(lp3345
I35335
aI4
aa(lp3346
I35385
aI0
aa(lp3347
I35385
aI1
aa(lp3348
I35385
aI2
aa(lp3349
I35385
aI3
aa(lp3350
I35385
aI4
aa(lp3351
I35388
aI0
aa(lp3352
I35388
aI2
aa(lp3353
I35388
aI4
aa(lp3354
I35435
aI0
aa(lp3355
I35435
aI3
aa(lp3356
I35446
aI0
aa(lp3357
I35446
aI1
aa(lp3358
I35446
aI2
aa(lp3359
I35446
aI3
aa(lp3360
I35446
aI4
aa(lp3361
I35608
aI0
aa(lp3362
I35608
aI2
aa(lp3363
I35608
aI3
aa(lp3364
I35608
aI4
aa(lp3365
I35609
aI0
aa(lp3366
I35609
aI1
aa(lp3367
I35609
aI2
aa(lp3368
I35609
aI3
aa(lp3369
I35609
aI4
aa(lp3370
I35649
aI2
aa(lp3371
I35697
aI0
aa(lp3372
I35697
aI1
aa(lp3373
I35697
aI2
aa(lp3374
I35697
aI3
aa(lp3375
I35697
aI4
aa(lp3376
I35712
aI0
aa(lp3377
I35712
aI1
aa(lp3378
I35712
aI2
aa(lp3379
I35712
aI3
aa(lp3380
I35712
aI4
aa(lp3381
I35714
aI0
aa(lp3382
I35714
aI1
aa(lp3383
I35714
aI2
aa(lp3384
I35714
aI3
aa(lp3385
I35714
aI4
aa(lp3386
I35838
aI0
aa(lp3387
I35838
aI2
aa(lp3388
I35838
aI4
aa(lp3389
I35849
aI0
aa(lp3390
I35849
aI1
aa(lp3391
I35849
aI2
aa(lp3392
I35849
aI3
aa(lp3393
I35866
aI0
aa(lp3394
I35866
aI1
aa(lp3395
I35866
aI2
aa(lp3396
I35894
aI3
aa(lp3397
I35916
aI0
aa(lp3398
I35916
aI4
aa(lp3399
I35967
aI0
aa(lp3400
I35967
aI1
aa(lp3401
I35967
aI2
aa(lp3402
I35967
aI3
aa(lp3403
I35967
aI4
aa(lp3404
I36013
aI0
aa(lp3405
I36013
aI1
aa(lp3406
I36013
aI2
aa(lp3407
I36013
aI3
aa(lp3408
I36013
aI4
aa(lp3409
I36036
aI0
aa(lp3410
I36036
aI1
aa(lp3411
I36036
aI2
aa(lp3412
I36036
aI3
aa(lp3413
I36036
aI4
aa(lp3414
I36060
aI0
aa(lp3415
I36060
aI1
aa(lp3416
I36060
aI2
aa(lp3417
I36060
aI3
aa(lp3418
I36060
aI4
aa(lp3419
I36095
aI0
aa(lp3420
I36095
aI1
aa(lp3421
I36095
aI3
aa(lp3422
I36095
aI4
aa(lp3423
I36124
aI0
aa(lp3424
I36124
aI1
aa(lp3425
I36124
aI2
aa(lp3426
I36124
aI3
aa(lp3427
I36124
aI4
aa(lp3428
I36155
aI0
aa(lp3429
I36155
aI1
aa(lp3430
I36155
aI2
aa(lp3431
I36155
aI3
aa(lp3432
I36155
aI4
aa(lp3433
I36271
aI0
aa(lp3434
I36271
aI1
aa(lp3435
I36271
aI2
aa(lp3436
I36271
aI3
aa(lp3437
I36271
aI4
aa(lp3438
I36282
aI1
aa(lp3439
I36282
aI2
aa(lp3440
I36282
aI3
aa(lp3441
I36282
aI4
aa(lp3442
I36321
aI1
aa(lp3443
I36420
aI0
aa(lp3444
I36420
aI1
aa(lp3445
I36420
aI2
aa(lp3446
I36420
aI3
aa(lp3447
I36420
aI4
aa(lp3448
I36531
aI0
aa(lp3449
I36531
aI1
aa(lp3450
I36531
aI2
aa(lp3451
I36531
aI3
aa(lp3452
I36531
aI4
aa(lp3453
I36555
aI3
aa(lp3454
I36589
aI0
aa(lp3455
I36589
aI1
aa(lp3456
I36589
aI2
aa(lp3457
I36589
aI3
aa(lp3458
I36589
aI4
aa(lp3459
I36682
aI0
aa(lp3460
I36682
aI1
aa(lp3461
I36682
aI2
aa(lp3462
I36682
aI3
aa(lp3463
I36682
aI4
aa(lp3464
I36770
aI0
aa(lp3465
I36770
aI1
aa(lp3466
I36770
aI2
aa(lp3467
I36770
aI3
aa(lp3468
I36770
aI4
aa(lp3469
I36814
aI0
aa(lp3470
I36814
aI1
aa(lp3471
I36814
aI2
aa(lp3472
I36814
aI3
aa(lp3473
I36814
aI4
aa(lp3474
I36819
aI0
aa(lp3475
I36819
aI1
aa(lp3476
I36819
aI2
aa(lp3477
I36819
aI3
aa(lp3478
I36819
aI4
aa(lp3479
I36834
aI0
aa(lp3480
I36834
aI1
aa(lp3481
I36834
aI2
aa(lp3482
I36834
aI3
aa(lp3483
I36834
aI4
aa(lp3484
I36854
aI0
aa(lp3485
I36854
aI1
aa(lp3486
I36854
aI2
aa(lp3487
I36854
aI3
aa(lp3488
I36866
aI0
aa(lp3489
I36866
aI2
aa(lp3490
I36866
aI4
aa(lp3491
I36871
aI0
aa(lp3492
I36871
aI1
aa(lp3493
I36871
aI2
aa(lp3494
I36871
aI3
aa(lp3495
I36871
aI4
aa(lp3496
I36897
aI0
aa(lp3497
I36897
aI1
aa(lp3498
I36897
aI2
aa(lp3499
I36897
aI3
aa(lp3500
I36897
aI4
aa(lp3501
I36933
aI0
aa(lp3502
I36955
aI0
aa(lp3503
I36955
aI1
aa(lp3504
I36955
aI2
aa(lp3505
I36955
aI3
aa(lp3506
I36955
aI4
aa(lp3507
I36969
aI0
aa(lp3508
I36969
aI1
aa(lp3509
I36969
aI2
aa(lp3510
I36969
aI3
aa(lp3511
I36969
aI4
aa(lp3512
I37119
aI0
aa(lp3513
I37119
aI1
aa(lp3514
I37119
aI2
aa(lp3515
I37119
aI3
aa(lp3516
I37119
aI4
aa(lp3517
I37146
aI0
aa(lp3518
I37146
aI1
aa(lp3519
I37146
aI2
aa(lp3520
I37146
aI3
aa(lp3521
I37146
aI4
aa(lp3522
I37180
aI0
aa(lp3523
I37180
aI1
aa(lp3524
I37180
aI2
aa(lp3525
I37180
aI4
aa(lp3526
I37189
aI2
aa(lp3527
I37212
aI0
aa(lp3528
I37212
aI1
aa(lp3529
I37212
aI2
aa(lp3530
I37212
aI3
aa(lp3531
I37212
aI4
aa(lp3532
I37259
aI0
aa(lp3533
I37259
aI1
aa(lp3534
I37259
aI2
aa(lp3535
I37259
aI3
aa(lp3536
I37259
aI4
aa(lp3537
I37329
aI0
aa(lp3538
I37329
aI1
aa(lp3539
I37329
aI2
aa(lp3540
I37329
aI3
aa(lp3541
I37358
aI0
aa(lp3542
I37358
aI1
aa(lp3543
I37358
aI2
aa(lp3544
I37358
aI3
aa(lp3545
I37358
aI4
aa(lp3546
I37378
aI0
aa(lp3547
I37378
aI1
aa(lp3548
I37378
aI2
aa(lp3549
I37378
aI4
aa(lp3550
I37481
aI0
aa(lp3551
I37481
aI1
aa(lp3552
I37481
aI2
aa(lp3553
I37481
aI3
aa(lp3554
I37481
aI4
aa(lp3555
I37482
aI0
aa(lp3556
I37482
aI1
aa(lp3557
I37482
aI2
aa(lp3558
I37482
aI3
aa(lp3559
I37482
aI4
aa(lp3560
I37498
aI0
aa(lp3561
I37498
aI1
aa(lp3562
I37498
aI3
aa(lp3563
I37498
aI4
aa(lp3564
I37611
aI0
aa(lp3565
I37611
aI1
aa(lp3566
I37611
aI2
aa(lp3567
I37611
aI3
aa(lp3568
I37611
aI4
aa(lp3569
I37701
aI0
aa(lp3570
I37701
aI1
aa(lp3571
I37701
aI2
aa(lp3572
I37701
aI3
aa(lp3573
I37740
aI2
aa(lp3574
I37740
aI3
aa(lp3575
I37740
aI4
aa(lp3576
I37769
aI0
aa(lp3577
I37769
aI3
aa(lp3578
I37907
aI0
aa(lp3579
I37907
aI1
aa(lp3580
I37907
aI4
aa(lp3581
I37955
aI0
aa(lp3582
I37955
aI1
aa(lp3583
I37955
aI2
aa(lp3584
I37955
aI3
aa(lp3585
I37955
aI4
aa(lp3586
I37975
aI0
aa(lp3587
I37975
aI1
aa(lp3588
I37975
aI2
aa(lp3589
I37975
aI3
aa(lp3590
I37975
aI4
aa(lp3591
I37979
aI0
aa(lp3592
I37979
aI1
aa(lp3593
I37979
aI2
aa(lp3594
I37979
aI3
aa(lp3595
I37979
aI4
aa(lp3596
I38083
aI0
aa(lp3597
I38083
aI1
aa(lp3598
I38083
aI2
aa(lp3599
I38083
aI3
aa(lp3600
I38083
aI4
aa(lp3601
I38084
aI0
aa(lp3602
I38084
aI1
aa(lp3603
I38084
aI2
aa(lp3604
I38084
aI3
aa(lp3605
I38084
aI4
aa(lp3606
I38092
aI0
aa(lp3607
I38092
aI1
aa(lp3608
I38092
aI2
aa(lp3609
I38092
aI4
aa(lp3610
I38124
aI0
aa(lp3611
I38124
aI1
aa(lp3612
I38124
aI2
aa(lp3613
I38124
aI3
aa(lp3614
I38124
aI4
aa(lp3615
I38225
aI0
aa(lp3616
I38225
aI1
aa(lp3617
I38225
aI2
aa(lp3618
I38225
aI3
aa(lp3619
I38225
aI4
aa(lp3620
I38267
aI0
aa(lp3621
I38267
aI1
aa(lp3622
I38267
aI2
aa(lp3623
I38267
aI3
aa(lp3624
I38267
aI4
aa(lp3625
I38268
aI0
aa(lp3626
I38268
aI1
aa(lp3627
I38268
aI3
aa(lp3628
I38268
aI4
aa(lp3629
I38391
aI0
aa(lp3630
I38391
aI1
aa(lp3631
I38391
aI2
aa(lp3632
I38391
aI3
aa(lp3633
I38391
aI4
aa(lp3634
I38488
aI0
aa(lp3635
I38488
aI1
aa(lp3636
I38488
aI2
aa(lp3637
I38488
aI3
aa(lp3638
I38488
aI4
aa(lp3639
I38494
aI0
aa(lp3640
I38494
aI1
aa(lp3641
I38494
aI2
aa(lp3642
I38494
aI3
aa(lp3643
I38494
aI4
aa(lp3644
I38511
aI1
aa(lp3645
I38538
aI0
aa(lp3646
I38538
aI1
aa(lp3647
I38538
aI2
aa(lp3648
I38538
aI3
aa(lp3649
I38538
aI4
aa(lp3650
I38665
aI0
aa(lp3651
I38665
aI1
aa(lp3652
I38665
aI2
aa(lp3653
I38665
aI3
aa(lp3654
I38665
aI4
aa(lp3655
I38682
aI0
aa(lp3656
I38682
aI1
aa(lp3657
I38682
aI2
aa(lp3658
I38682
aI3
aa(lp3659
I38682
aI4
aa(lp3660
I38724
aI0
aa(lp3661
I38724
aI1
aa(lp3662
I38724
aI2
aa(lp3663
I38724
aI3
aa(lp3664
I38724
aI4
aa(lp3665
I38742
aI0
aa(lp3666
I38742
aI1
aa(lp3667
I38742
aI2
aa(lp3668
I38742
aI3
aa(lp3669
I38742
aI4
aa(lp3670
I38765
aI0
aa(lp3671
I38765
aI1
aa(lp3672
I38765
aI2
aa(lp3673
I38765
aI3
aa(lp3674
I38765
aI4
aa(lp3675
I38786
aI0
aa(lp3676
I38786
aI1
aa(lp3677
I38876
aI0
aa(lp3678
I38876
aI1
aa(lp3679
I38876
aI2
aa(lp3680
I38876
aI3
aa(lp3681
I38876
aI4
aa(lp3682
I38915
aI3
aa(lp3683
I38944
aI0
aa(lp3684
I38944
aI1
aa(lp3685
I38944
aI2
aa(lp3686
I38944
aI3
aa(lp3687
I38944
aI4
aa(lp3688
I39014
aI0
aa(lp3689
I39014
aI1
aa(lp3690
I39014
aI2
aa(lp3691
I39014
aI3
aa(lp3692
I39014
aI4
aa(lp3693
I39020
aI1
aa(lp3694
I39020
aI2
aa(lp3695
I39020
aI3
aa(lp3696
I39020
aI4
aa(lp3697
I39130
aI0
aa(lp3698
I39130
aI1
aa(lp3699
I39130
aI2
aa(lp3700
I39130
aI3
aa(lp3701
I39130
aI4
aa(lp3702
I39325
aI0
aa(lp3703
I39325
aI1
aa(lp3704
I39325
aI2
aa(lp3705
I39325
aI3
aa(lp3706
I39325
aI4
aa(lp3707
I39344
aI0
aa(lp3708
I39344
aI1
aa(lp3709
I39344
aI2
aa(lp3710
I39344
aI3
aa(lp3711
I39344
aI4
aa(lp3712
I39378
aI0
aa(lp3713
I39378
aI1
aa(lp3714
I39378
aI2
aa(lp3715
I39378
aI3
aa(lp3716
I39378
aI4
aa(lp3717
I39486
aI0
aa(lp3718
I39486
aI1
aa(lp3719
I39486
aI2
aa(lp3720
I39486
aI3
aa(lp3721
I39486
aI4
aa(lp3722
I39487
aI0
aa(lp3723
I39487
aI1
aa(lp3724
I39487
aI2
aa(lp3725
I39487
aI3
aa(lp3726
I39487
aI4
aa(lp3727
I39554
aI0
aa(lp3728
I39554
aI1
aa(lp3729
I39554
aI2
aa(lp3730
I39554
aI3
aa(lp3731
I39554
aI4
aa(lp3732
I39574
aI0
aa(lp3733
I39574
aI1
aa(lp3734
I39574
aI2
aa(lp3735
I39574
aI3
aa(lp3736
I39574
aI4
aa(lp3737
I39585
aI0
aa(lp3738
I39585
aI1
aa(lp3739
I39585
aI2
aa(lp3740
I39585
aI3
aa(lp3741
I39585
aI4
aa(lp3742
I39604
aI0
aa(lp3743
I39604
aI1
aa(lp3744
I39604
aI2
aa(lp3745
I39604
aI4
aa(lp3746
I39676
aI0
aa(lp3747
I39676
aI1
aa(lp3748
I39676
aI2
aa(lp3749
I39676
aI3
aa(lp3750
I39676
aI4
aa(lp3751
I39703
aI0
aa(lp3752
I39703
aI1
aa(lp3753
I39703
aI2
aa(lp3754
I39703
aI3
aa(lp3755
I39703
aI4
aa(lp3756
I39794
aI0
aa(lp3757
I39794
aI1
aa(lp3758
I39794
aI2
aa(lp3759
I39794
aI3
aa(lp3760
I39794
aI4
aa(lp3761
I39797
aI0
aa(lp3762
I39797
aI1
aa(lp3763
I39797
aI2
aa(lp3764
I39797
aI3
aa(lp3765
I39797
aI4
aa(lp3766
I39843
aI0
aa(lp3767
I39843
aI1
aa(lp3768
I39843
aI2
aa(lp3769
I39843
aI3
aa(lp3770
I39843
aI4
aa(lp3771
I39852
aI0
aa(lp3772
I39852
aI1
aa(lp3773
I39852
aI2
aa(lp3774
I39852
aI3
aa(lp3775
I39852
aI4
aa(lp3776
I39871
aI0
aa(lp3777
I39871
aI1
aa(lp3778
I39871
aI2
aa(lp3779
I39871
aI3
aa(lp3780
I39871
aI4
aa(lp3781
I39896
aI0
aa(lp3782
I39896
aI2
aa(lp3783
I39896
aI3
aa(lp3784
I39896
aI4
aa(lp3785
I39980
aI0
aa(lp3786
I39980
aI1
aa(lp3787
I39980
aI2
aa(lp3788
I39980
aI3
aa(lp3789
I39980
aI4
aa(lp3790
I40027
aI0
aa(lp3791
I40027
aI1
aa(lp3792
I40027
aI2
aa(lp3793
I40027
aI3
aa(lp3794
I40027
aI4
aa(lp3795
I40088
aI0
aa(lp3796
I40088
aI1
aa(lp3797
I40088
aI2
aa(lp3798
I40088
aI3
aa(lp3799
I40088
aI4
aa(lp3800
I40098
aI0
aa(lp3801
I40098
aI1
aa(lp3802
I40098
aI2
aa(lp3803
I40098
aI3
aa(lp3804
I40098
aI4
aa(lp3805
I40099
aI0
aa(lp3806
I40099
aI2
aa(lp3807
I40099
aI3
aa(lp3808
I40099
aI4
aa(lp3809
I40119
aI0
aa(lp3810
I40119
aI1
aa(lp3811
I40119
aI2
aa(lp3812
I40119
aI3
aa(lp3813
I40119
aI4
aa(lp3814
I40143
aI0
aa(lp3815
I40143
aI1
aa(lp3816
I40143
aI2
aa(lp3817
I40143
aI4
aa(lp3818
I40187
aI0
aa(lp3819
I40187
aI1
aa(lp3820
I40187
aI2
aa(lp3821
I40187
aI3
aa(lp3822
I40187
aI4
aa(lp3823
I40216
aI0
aa(lp3824
I40216
aI1
aa(lp3825
I40216
aI2
aa(lp3826
I40216
aI3
aa(lp3827
I40233
aI0
aa(lp3828
I40233
aI1
aa(lp3829
I40233
aI3
aa(lp3830
I40233
aI4
aa(lp3831
I40266
aI0
aa(lp3832
I40266
aI1
aa(lp3833
I40266
aI2
aa(lp3834
I40266
aI4
aa(lp3835
I40297
aI0
aa(lp3836
I40297
aI1
aa(lp3837
I40297
aI2
aa(lp3838
I40297
aI3
aa(lp3839
I40297
aI4
aa(lp3840
I40312
aI0
aa(lp3841
I40312
aI1
aa(lp3842
I40312
aI2
aa(lp3843
I40312
aI3
aa(lp3844
I40312
aI4
aa(lp3845
I40316
aI0
aa(lp3846
I40316
aI1
aa(lp3847
I40316
aI2
aa(lp3848
I40316
aI3
aa(lp3849
I40316
aI4
aa(lp3850
I40320
aI0
aa(lp3851
I40320
aI1
aa(lp3852
I40320
aI2
aa(lp3853
I40320
aI3
aa(lp3854
I40320
aI4
aa(lp3855
I40393
aI1
aa(lp3856
I40393
aI3
aa(lp3857
I40420
aI0
aa(lp3858
I40420
aI1
aa(lp3859
I40420
aI2
aa(lp3860
I40420
aI3
aa(lp3861
I40420
aI4
aa(lp3862
I40433
aI0
aa(lp3863
I40433
aI1
aa(lp3864
I40433
aI2
aa(lp3865
I40433
aI3
aa(lp3866
I40433
aI4
aa.