(lp0
(lp1
I192
aI0
aa(lp2
I192
aI3
aa(lp3
I192
aI4
aa(lp4
I268
aI0
aa(lp5
I268
aI1
aa(lp6
I268
aI2
aa(lp7
I268
aI4
aa(lp8
I538
aI1
aa(lp9
I538
aI2
aa(lp10
I538
aI3
aa(lp11
I614
aI2
aa(lp12
I948
aI2
aa(lp13
I1018
aI0
aa(lp14
I1018
aI1
aa(lp15
I1018
aI2
aa(lp16
I1018
aI3
aa(lp17
I1018
aI4
aa(lp18
I1152
aI0
aa(lp19
I1152
aI1
aa(lp20
I1152
aI2
aa(lp21
I1152
aI3
aa(lp22
I1152
aI4
aa(lp23
I1215
aI0
aa(lp24
I1215
aI2
aa(lp25
I1215
aI4
aa(lp26
I1221
aI0
aa(lp27
I1221
aI1
aa(lp28
I1221
aI2
aa(lp29
I1221
aI4
aa(lp30
I1398
aI0
aa(lp31
I1398
aI3
aa(lp32
I1398
aI4
aa(lp33
I1509
aI0
aa(lp34
I1509
aI1
aa(lp35
I1509
aI2
aa(lp36
I1509
aI3
aa(lp37
I1509
aI4
aa(lp38
I1686
aI2
aa(lp39
I1704
aI0
aa(lp40
I1704
aI1
aa(lp41
I1704
aI2
aa(lp42
I1704
aI3
aa(lp43
I1704
aI4
aa(lp44
I1971
aI0
aa(lp45
I1971
aI1
aa(lp46
I1971
aI2
aa(lp47
I1971
aI3
aa(lp48
I1971
aI4
aa(lp49
I2084
aI0
aa(lp50
I2084
aI1
aa(lp51
I2084
aI2
aa(lp52
I2084
aI3
aa(lp53
I2084
aI4
aa(lp54
I2348
aI0
aa(lp55
I2348
aI1
aa(lp56
I2348
aI2
aa(lp57
I2348
aI3
aa(lp58
I2348
aI4
aa(lp59
I2399
aI0
aa(lp60
I2399
aI1
aa(lp61
I2399
aI2
aa(lp62
I2399
aI4
aa(lp63
I2534
aI0
aa(lp64
I2534
aI1
aa(lp65
I2534
aI2
aa(lp66
I2534
aI3
aa(lp67
I2534
aI4
aa(lp68
I2657
aI0
aa(lp69
I2657
aI1
aa(lp70
I2657
aI2
aa(lp71
I2657
aI3
aa(lp72
I2657
aI4
aa(lp73
I2721
aI0
aa(lp74
I2721
aI1
aa(lp75
I2721
aI2
aa(lp76
I3008
aI0
aa(lp77
I3008
aI2
aa(lp78
I3065
aI2
aa(lp79
I3192
aI0
aa(lp80
I3192
aI1
aa(lp81
I3192
aI2
aa(lp82
I3274
aI0
aa(lp83
I3274
aI1
aa(lp84
I3274
aI2
aa(lp85
I3274
aI3
aa(lp86
I3274
aI4
aa(lp87
I3327
aI0
aa(lp88
I3327
aI1
aa(lp89
I3327
aI2
aa(lp90
I3327
aI3
aa(lp91
I3327
aI4
aa(lp92
I3358
aI0
aa(lp93
I3358
aI1
aa(lp94
I3358
aI3
aa(lp95
I3358
aI4
aa(lp96
I3359
aI0
aa(lp97
I3359
aI1
aa(lp98
I3359
aI2
aa(lp99
I3359
aI4
aa(lp100
I3434
aI1
aa(lp101
I3434
aI2
aa(lp102
I3564
aI0
aa(lp103
I3564
aI1
aa(lp104
I3564
aI2
aa(lp105
I3564
aI3
aa(lp106
I3564
aI4
aa(lp107
I3625
aI0
aa(lp108
I3625
aI1
aa(lp109
I3625
aI2
aa(lp110
I3625
aI3
aa(lp111
I3625
aI4
aa(lp112
I3715
aI0
aa(lp113
I3715
aI1
aa(lp114
I3715
aI2
aa(lp115
I3715
aI3
aa(lp116
I3715
aI4
aa(lp117
I3809
aI0
aa(lp118
I3809
aI3
aa(lp119
I3809
aI4
aa(lp120
I3876
aI0
aa(lp121
I3876
aI1
aa(lp122
I3876
aI3
aa(lp123
I3876
aI4
aa(lp124
I3899
aI1
aa(lp125
I3899
aI2
aa(lp126
I3899
aI3
aa(lp127
I3968
aI2
aa(lp128
I4021
aI0
aa(lp129
I4021
aI1
aa(lp130
I4021
aI3
aa(lp131
I4021
aI4
aa(lp132
I4070
aI2
aa(lp133
I4070
aI4
aa(lp134
I4107
aI3
aa(lp135
I4152
aI0
aa(lp136
I4152
aI1
aa(lp137
I4152
aI2
aa(lp138
I4152
aI3
aa(lp139
I4152
aI4
aa(lp140
I4234
aI0
aa(lp141
I4234
aI1
aa(lp142
I4234
aI2
aa(lp143
I4234
aI3
aa(lp144
I4234
aI4
aa(lp145
I4342
aI0
aa(lp146
I4342
aI1
aa(lp147
I4342
aI2
aa(lp148
I4342
aI3
aa(lp149
I4342
aI4
aa(lp150
I4397
aI0
aa(lp151
I4397
aI2
aa(lp152
I4397
aI4
aa(lp153
I4499
aI0
aa(lp154
I4499
aI1
aa(lp155
I4499
aI2
aa(lp156
I4499
aI3
aa(lp157
I4501
aI0
aa(lp158
I4501
aI1
aa(lp159
I4501
aI2
aa(lp160
I4501
aI3
aa(lp161
I4594
aI1
aa(lp162
I4768
aI4
aa(lp163
I4810
aI1
aa(lp164
I4810
aI3
aa(lp165
I4810
aI4
aa(lp166
I4924
aI0
aa(lp167
I4924
aI1
aa(lp168
I4924
aI2
aa(lp169
I4924
aI3
aa(lp170
I4924
aI4
aa(lp171
I4959
aI0
aa(lp172
I4959
aI2
aa(lp173
I4959
aI3
aa(lp174
I4959
aI4
aa(lp175
I4963
aI0
aa(lp176
I4963
aI1
aa(lp177
I4963
aI2
aa(lp178
I4963
aI3
aa(lp179
I4963
aI4
aa(lp180
I5128
aI0
aa(lp181
I5128
aI1
aa(lp182
I5128
aI2
aa(lp183
I5128
aI3
aa(lp184
I5128
aI4
aa(lp185
I5151
aI1
aa(lp186
I5208
aI0
aa(lp187
I5208
aI1
aa(lp188
I5208
aI3
aa(lp189
I5208
aI4
aa(lp190
I5269
aI0
aa(lp191
I5269
aI1
aa(lp192
I5269
aI2
aa(lp193
I5269
aI3
aa(lp194
I5269
aI4
aa(lp195
I5293
aI0
aa(lp196
I5293
aI1
aa(lp197
I5293
aI2
aa(lp198
I5293
aI3
aa(lp199
I5293
aI4
aa(lp200
I5480
aI1
aa(lp201
I5480
aI3
aa(lp202
I5480
aI4
aa(lp203
I5586
aI0
aa(lp204
I5586
aI1
aa(lp205
I5586
aI2
aa(lp206
I5586
aI3
aa(lp207
I5586
aI4
aa(lp208
I5645
aI0
aa(lp209
I5645
aI3
aa(lp210
I5786
aI0
aa(lp211
I5786
aI1
aa(lp212
I5786
aI2
aa(lp213
I5786
aI3
aa(lp214
I5786
aI4
aa(lp215
I5843
aI0
aa(lp216
I5843
aI1
aa(lp217
I5843
aI2
aa(lp218
I5843
aI3
aa(lp219
I5843
aI4
aa(lp220
I5860
aI1
aa(lp221
I5860
aI3
aa(lp222
I6000
aI0
aa(lp223
I6000
aI3
aa(lp224
I6000
aI4
aa(lp225
I6019
aI2
aa(lp226
I6342
aI0
aa(lp227
I6342
aI1
aa(lp228
I6342
aI2
aa(lp229
I6342
aI4
aa(lp230
I6368
aI0
aa(lp231
I6368
aI1
aa(lp232
I6368
aI3
aa(lp233
I6368
aI4
aa(lp234
I6408
aI0
aa(lp235
I6408
aI1
aa(lp236
I6408
aI2
aa(lp237
I6408
aI4
aa(lp238
I6410
aI0
aa(lp239
I6410
aI1
aa(lp240
I6410
aI2
aa(lp241
I6410
aI3
aa(lp242
I6410
aI4
aa(lp243
I6437
aI0
aa(lp244
I6437
aI1
aa(lp245
I6437
aI3
aa(lp246
I6437
aI4
aa(lp247
I6459
aI1
aa(lp248
I6462
aI0
aa(lp249
I6462
aI1
aa(lp250
I6462
aI2
aa(lp251
I6462
aI4
aa(lp252
I6494
aI0
aa(lp253
I6494
aI1
aa(lp254
I6494
aI2
aa(lp255
I6494
aI3
aa(lp256
I6494
aI4
aa(lp257
I6508
aI3
aa(lp258
I6520
aI1
aa(lp259
I6520
aI2
aa(lp260
I6520
aI3
aa(lp261
I6520
aI4
aa(lp262
I6550
aI0
aa(lp263
I6550
aI1
aa(lp264
I6550
aI2
aa(lp265
I6550
aI3
aa(lp266
I6550
aI4
aa(lp267
I6587
aI0
aa(lp268
I6587
aI1
aa(lp269
I6587
aI2
aa(lp270
I6587
aI3
aa(lp271
I6587
aI4
aa(lp272
I6671
aI0
aa(lp273
I6671
aI1
aa(lp274
I6671
aI2
aa(lp275
I6671
aI4
aa(lp276
I7109
aI0
aa(lp277
I7109
aI1
aa(lp278
I7109
aI2
aa(lp279
I7109
aI3
aa(lp280
I7184
aI2
aa(lp281
I7184
aI3
aa(lp282
I7274
aI0
aa(lp283
I7274
aI1
aa(lp284
I7274
aI3
aa(lp285
I7713
aI0
aa(lp286
I7713
aI1
aa(lp287
I7713
aI2
aa(lp288
I7713
aI3
aa(lp289
I7713
aI4
aa(lp290
I7746
aI0
aa(lp291
I7746
aI1
aa(lp292
I7746
aI2
aa(lp293
I7746
aI4
aa(lp294
I8182
aI0
aa(lp295
I8182
aI1
aa(lp296
I8182
aI2
aa(lp297
I8182
aI3
aa(lp298
I8332
aI2
aa(lp299
I8378
aI0
aa(lp300
I8378
aI1
aa(lp301
I8378
aI2
aa(lp302
I8378
aI3
aa(lp303
I8378
aI4
aa(lp304
I8435
aI4
aa(lp305
I8494
aI0
aa(lp306
I8494
aI1
aa(lp307
I8494
aI3
aa(lp308
I8547
aI4
aa(lp309
I8734
aI0
aa(lp310
I8734
aI1
aa(lp311
I8734
aI3
aa(lp312
I8734
aI4
aa(lp313
I8758
aI0
aa(lp314
I8758
aI1
aa(lp315
I8758
aI2
aa(lp316
I8758
aI3
aa(lp317
I8758
aI4
aa(lp318
I8837
aI0
aa(lp319
I8837
aI1
aa(lp320
I8837
aI2
aa(lp321
I8837
aI3
aa(lp322
I8837
aI4
aa(lp323
I8857
aI1
aa(lp324
I8857
aI2
aa(lp325
I8857
aI3
aa(lp326
I8857
aI4
aa(lp327
I8910
aI1
aa(lp328
I8910
aI2
aa(lp329
I8910
aI4
aa(lp330
I9007
aI2
aa(lp331
I9007
aI3
aa(lp332
I9061
aI0
aa(lp333
I9061
aI1
aa(lp334
I9061
aI2
aa(lp335
I9061
aI3
aa(lp336
I9061
aI4
aa(lp337
I9086
aI0
aa(lp338
I9086
aI1
aa(lp339
I9086
aI2
aa(lp340
I9086
aI3
aa(lp341
I9086
aI4
aa(lp342
I9189
aI0
aa(lp343
I9189
aI1
aa(lp344
I9189
aI2
aa(lp345
I9189
aI3
aa(lp346
I9189
aI4
aa(lp347
I9216
aI0
aa(lp348
I9216
aI1
aa(lp349
I9216
aI3
aa(lp350
I9216
aI4
aa(lp351
I9250
aI1
aa(lp352
I9250
aI2
aa(lp353
I9250
aI3
aa(lp354
I9250
aI4
aa(lp355
I9607
aI0
aa(lp356
I9607
aI1
aa(lp357
I9607
aI2
aa(lp358
I9607
aI3
aa(lp359
I9607
aI4
aa(lp360
I9619
aI1
aa(lp361
I9619
aI3
aa(lp362
I9752
aI0
aa(lp363
I9752
aI1
aa(lp364
I9752
aI2
aa(lp365
I9752
aI3
aa(lp366
I9752
aI4
aa(lp367
I9770
aI0
aa(lp368
I9770
aI1
aa(lp369
I9770
aI2
aa(lp370
I9770
aI3
aa(lp371
I9770
aI4
aa(lp372
I9879
aI0
aa(lp373
I9879
aI1
aa(lp374
I9879
aI3
aa(lp375
I9879
aI4
aa(lp376
I9883
aI0
aa(lp377
I9883
aI1
aa(lp378
I9883
aI2
aa(lp379
I9883
aI3
aa(lp380
I9883
aI4
aa(lp381
I10657
aI1
aa(lp382
I10657
aI3
aa(lp383
I10657
aI4
aa(lp384
I10661
aI0
aa(lp385
I10661
aI1
aa(lp386
I10661
aI2
aa(lp387
I10661
aI3
aa(lp388
I10661
aI4
aa(lp389
I10863
aI1
aa(lp390
I10863
aI2
aa(lp391
I10863
aI3
aa(lp392
I11183
aI0
aa(lp393
I11183
aI1
aa(lp394
I11183
aI2
aa(lp395
I11183
aI3
aa(lp396
I11183
aI4
aa(lp397
I11274
aI0
aa(lp398
I11274
aI1
aa(lp399
I11274
aI2
aa(lp400
I11274
aI4
aa(lp401
I11327
aI0
aa(lp402
I11327
aI2
aa(lp403
I11327
aI3
aa(lp404
I11327
aI4
aa(lp405
I11363
aI0
aa(lp406
I11363
aI1
aa(lp407
I11363
aI2
aa(lp408
I11363
aI3
aa(lp409
I11509
aI0
aa(lp410
I11509
aI1
aa(lp411
I11509
aI2
aa(lp412
I11509
aI3
aa(lp413
I11509
aI4
aa(lp414
I11529
aI1
aa(lp415
I11626
aI0
aa(lp416
I11626
aI1
aa(lp417
I11626
aI4
aa(lp418
I11639
aI0
aa(lp419
I11639
aI1
aa(lp420
I11639
aI2
aa(lp421
I11639
aI3
aa(lp422
I11688
aI0
aa(lp423
I11688
aI1
aa(lp424
I11688
aI2
aa(lp425
I11688
aI3
aa(lp426
I11738
aI4
aa(lp427
I11786
aI0
aa(lp428
I11786
aI1
aa(lp429
I11786
aI2
aa(lp430
I11786
aI3
aa(lp431
I11786
aI4
aa(lp432
I11858
aI0
aa(lp433
I11858
aI1
aa(lp434
I11858
aI2
aa(lp435
I11858
aI3
aa(lp436
I11901
aI3
aa(lp437
I11903
aI0
aa(lp438
I11903
aI1
aa(lp439
I11903
aI2
aa(lp440
I11903
aI3
aa(lp441
I11903
aI4
aa(lp442
I11937
aI0
aa(lp443
I11937
aI2
aa(lp444
I11937
aI3
aa(lp445
I11937
aI4
aa(lp446
I12024
aI4
aa(lp447
I12107
aI0
aa(lp448
I12107
aI1
aa(lp449
I12107
aI2
aa(lp450
I12107
aI3
aa(lp451
I12107
aI4
aa(lp452
I12187
aI1
aa(lp453
I12395
aI3
aa(lp454
I12395
aI4
aa(lp455
I12483
aI0
aa(lp456
I12483
aI1
aa(lp457
I12483
aI2
aa(lp458
I12483
aI3
aa(lp459
I12483
aI4
aa(lp460
I12498
aI0
aa(lp461
I12498
aI2
aa(lp462
I12498
aI3
aa(lp463
I12498
aI4
aa(lp464
I12506
aI0
aa(lp465
I12506
aI1
aa(lp466
I12506
aI2
aa(lp467
I12506
aI3
aa(lp468
I12506
aI4
aa(lp469
I12522
aI0
aa(lp470
I12522
aI1
aa(lp471
I12522
aI2
aa(lp472
I12522
aI3
aa(lp473
I12522
aI4
aa(lp474
I12646
aI0
aa(lp475
I12646
aI1
aa(lp476
I12646
aI2
aa(lp477
I12646
aI3
aa(lp478
I12646
aI4
aa(lp479
I12697
aI0
aa(lp480
I12697
aI2
aa(lp481
I12697
aI4
aa(lp482
I12800
aI0
aa(lp483
I12800
aI2
aa(lp484
I12800
aI4
aa(lp485
I12817
aI0
aa(lp486
I12817
aI1
aa(lp487
I12817
aI2
aa(lp488
I12817
aI3
aa(lp489
I12817
aI4
aa(lp490
I12833
aI0
aa(lp491
I12833
aI1
aa(lp492
I12833
aI2
aa(lp493
I12833
aI4
aa(lp494
I12896
aI0
aa(lp495
I12896
aI1
aa(lp496
I12896
aI2
aa(lp497
I12896
aI3
aa(lp498
I12896
aI4
aa(lp499
I13221
aI4
aa(lp500
I13350
aI0
aa(lp501
I13350
aI1
aa(lp502
I13350
aI3
aa(lp503
I13415
aI2
aa(lp504
I13415
aI3
aa(lp505
I13491
aI0
aa(lp506
I13491
aI1
aa(lp507
I13491
aI2
aa(lp508
I13491
aI3
aa(lp509
I13491
aI4
aa(lp510
I13842
aI0
aa(lp511
I13842
aI1
aa(lp512
I13842
aI2
aa(lp513
I13842
aI3
aa(lp514
I13842
aI4
aa(lp515
I14052
aI0
aa(lp516
I14052
aI1
aa(lp517
I14052
aI3
aa(lp518
I14222
aI3
aa(lp519
I14230
aI0
aa(lp520
I14230
aI1
aa(lp521
I14230
aI3
aa(lp522
I14230
aI4
aa(lp523
I14233
aI0
aa(lp524
I14233
aI1
aa(lp525
I14233
aI2
aa(lp526
I14233
aI3
aa(lp527
I14233
aI4
aa(lp528
I14279
aI2
aa(lp529
I14279
aI4
aa(lp530
I14420
aI0
aa(lp531
I14420
aI1
aa(lp532
I14420
aI2
aa(lp533
I14420
aI3
aa(lp534
I14420
aI4
aa(lp535
I14486
aI0
aa(lp536
I14486
aI1
aa(lp537
I14486
aI2
aa(lp538
I14486
aI3
aa(lp539
I14486
aI4
aa(lp540
I14618
aI1
aa(lp541
I14618
aI2
aa(lp542
I14935
aI0
aa(lp543
I14935
aI1
aa(lp544
I14935
aI2
aa(lp545
I14961
aI2
aa(lp546
I14961
aI3
aa(lp547
I14961
aI4
aa(lp548
I15033
aI0
aa(lp549
I15033
aI1
aa(lp550
I15033
aI2
aa(lp551
I15033
aI3
aa(lp552
I15033
aI4
aa(lp553
I15437
aI0
aa(lp554
I15437
aI1
aa(lp555
I15437
aI2
aa(lp556
I15437
aI3
aa(lp557
I15488
aI1
aa(lp558
I15488
aI2
aa(lp559
I15525
aI0
aa(lp560
I15525
aI1
aa(lp561
I15525
aI2
aa(lp562
I15525
aI4
aa(lp563
I15725
aI0
aa(lp564
I15725
aI1
aa(lp565
I15725
aI2
aa(lp566
I15725
aI3
aa(lp567
I15725
aI4
aa(lp568
I15835
aI0
aa(lp569
I15835
aI1
aa(lp570
I15835
aI2
aa(lp571
I15835
aI3
aa(lp572
I15835
aI4
aa(lp573
I15892
aI4
aa(lp574
I15924
aI0
aa(lp575
I15924
aI1
aa(lp576
I15924
aI2
aa(lp577
I15924
aI3
aa(lp578
I16015
aI0
aa(lp579
I16015
aI1
aa(lp580
I16015
aI2
aa(lp581
I16015
aI3
aa(lp582
I16015
aI4
aa(lp583
I16279
aI0
aa(lp584
I16279
aI1
aa(lp585
I16279
aI2
aa(lp586
I16279
aI3
aa(lp587
I16279
aI4
aa(lp588
I16438
aI2
aa(lp589
I16589
aI0
aa(lp590
I16589
aI1
aa(lp591
I16589
aI2
aa(lp592
I16589
aI3
aa(lp593
I16589
aI4
aa(lp594
I16592
aI1
aa(lp595
I16592
aI2
aa(lp596
I16592
aI4
aa(lp597
I16626
aI2
aa(lp598
I16626
aI3
aa(lp599
I16626
aI4
aa(lp600
I16676
aI2
aa(lp601
I16676
aI3
aa(lp602
I16676
aI4
aa(lp603
I16792
aI0
aa(lp604
I16792
aI2
aa(lp605
I16817
aI4
aa(lp606
I16837
aI0
aa(lp607
I16837
aI2
aa(lp608
I16858
aI1
aa(lp609
I16858
aI2
aa(lp610
I16864
aI0
aa(lp611
I16864
aI1
aa(lp612
I16864
aI2
aa(lp613
I16864
aI3
aa(lp614
I16864
aI4
aa(lp615
I17045
aI2
aa(lp616
I17045
aI3
aa(lp617
I17051
aI0
aa(lp618
I17051
aI1
aa(lp619
I17051
aI2
aa(lp620
I17051
aI3
aa(lp621
I17439
aI0
aa(lp622
I17439
aI1
aa(lp623
I17439
aI4
aa(lp624
I17761
aI0
aa(lp625
I17761
aI1
aa(lp626
I17761
aI2
aa(lp627
I17761
aI4
aa(lp628
I17778
aI0
aa(lp629
I17778
aI1
aa(lp630
I17778
aI2
aa(lp631
I17778
aI3
aa(lp632
I17778
aI4
aa(lp633
I17879
aI0
aa(lp634
I17879
aI1
aa(lp635
I17879
aI2
aa(lp636
I17879
aI3
aa(lp637
I18048
aI3
aa(lp638
I18048
aI4
aa(lp639
I18281
aI0
aa(lp640
I18281
aI2
aa(lp641
I18281
aI4
aa(lp642
I18502
aI0
aa(lp643
I18502
aI1
aa(lp644
I18502
aI2
aa(lp645
I18502
aI3
aa(lp646
I18502
aI4
aa(lp647
I18544
aI0
aa(lp648
I18544
aI1
aa(lp649
I18544
aI2
aa(lp650
I18544
aI3
aa(lp651
I18544
aI4
aa(lp652
I18599
aI0
aa(lp653
I18599
aI1
aa(lp654
I18599
aI3
aa(lp655
I18861
aI0
aa(lp656
I18861
aI1
aa(lp657
I18861
aI2
aa(lp658
I18861
aI3
aa(lp659
I18861
aI4
aa(lp660
I18876
aI0
aa(lp661
I18876
aI2
aa(lp662
I18951
aI0
aa(lp663
I18951
aI1
aa(lp664
I18951
aI2
aa(lp665
I18951
aI3
aa(lp666
I19042
aI0
aa(lp667
I19042
aI1
aa(lp668
I19042
aI2
aa(lp669
I19042
aI3
aa(lp670
I19042
aI4
aa(lp671
I19111
aI0
aa(lp672
I19111
aI1
aa(lp673
I19111
aI2
aa(lp674
I19111
aI3
aa(lp675
I19111
aI4
aa(lp676
I19309
aI1
aa(lp677
I19309
aI2
aa(lp678
I19309
aI3
aa(lp679
I19404
aI0
aa(lp680
I19404
aI4
aa(lp681
I19528
aI1
aa(lp682
I19528
aI4
aa(lp683
I19554
aI0
aa(lp684
I19554
aI1
aa(lp685
I19554
aI2
aa(lp686
I19554
aI3
aa(lp687
I19554
aI4
aa(lp688
I19727
aI1
aa(lp689
I19727
aI2
aa(lp690
I19806
aI1
aa(lp691
I19806
aI2
aa(lp692
I19806
aI3
aa(lp693
I19806
aI4
aa(lp694
I19930
aI1
aa(lp695
I19930
aI2
aa(lp696
I19930
aI3
aa(lp697
I19967
aI0
aa(lp698
I19967
aI1
aa(lp699
I19993
aI3
aa(lp700
I20013
aI0
aa(lp701
I20013
aI2
aa(lp702
I20013
aI3
aa(lp703
I20013
aI4
aa(lp704
I20041
aI2
aa(lp705
I20041
aI3
aa(lp706
I20041
aI4
aa(lp707
I20117
aI0
aa(lp708
I20117
aI2
aa(lp709
I20117
aI3
aa(lp710
I20117
aI4
aa(lp711
I20181
aI0
aa(lp712
I20181
aI3
aa(lp713
I20181
aI4
aa(lp714
I20298
aI0
aa(lp715
I20298
aI1
aa(lp716
I20298
aI2
aa(lp717
I20298
aI3
aa(lp718
I20298
aI4
aa(lp719
I20390
aI0
aa(lp720
I20390
aI1
aa(lp721
I20390
aI2
aa(lp722
I20390
aI3
aa(lp723
I20390
aI4
aa(lp724
I20447
aI0
aa(lp725
I20447
aI4
aa(lp726
I20811
aI0
aa(lp727
I20811
aI1
aa(lp728
I20811
aI3
aa(lp729
I20811
aI4
aa(lp730
I20852
aI2
aa(lp731
I20878
aI1
aa(lp732
I20893
aI0
aa(lp733
I20893
aI1
aa(lp734
I20893
aI2
aa(lp735
I20893
aI3
aa(lp736
I20893
aI4
aa(lp737
I21006
aI0
aa(lp738
I21006
aI1
aa(lp739
I21006
aI2
aa(lp740
I21006
aI3
aa(lp741
I21006
aI4
aa(lp742
I21091
aI0
aa(lp743
I21091
aI1
aa(lp744
I21091
aI2
aa(lp745
I21091
aI3
aa(lp746
I21091
aI4
aa(lp747
I21339
aI0
aa(lp748
I21339
aI1
aa(lp749
I21339
aI2
aa(lp750
I21339
aI3
aa(lp751
I21339
aI4
aa(lp752
I21372
aI1
aa(lp753
I21372
aI2
aa(lp754
I21372
aI3
aa(lp755
I21372
aI4
aa(lp756
I21499
aI0
aa(lp757
I21499
aI1
aa(lp758
I21499
aI2
aa(lp759
I21614
aI0
aa(lp760
I21614
aI1
aa(lp761
I21614
aI4
aa(lp762
I21825
aI0
aa(lp763
I21825
aI1
aa(lp764
I21825
aI2
aa(lp765
I21825
aI3
aa(lp766
I21825
aI4
aa(lp767
I22035
aI0
aa(lp768
I22035
aI1
aa(lp769
I22035
aI2
aa(lp770
I22035
aI3
aa(lp771
I22035
aI4
aa(lp772
I22045
aI4
aa(lp773
I22091
aI4
aa(lp774
I22156
aI0
aa(lp775
I22156
aI2
aa(lp776
I22156
aI3
aa(lp777
I22156
aI4
aa(lp778
I22180
aI0
aa(lp779
I22180
aI1
aa(lp780
I22180
aI3
aa(lp781
I22311
aI4
aa(lp782
I22323
aI0
aa(lp783
I22323
aI1
aa(lp784
I22323
aI2
aa(lp785
I22323
aI4
aa(lp786
I22376
aI1
aa(lp787
I22376
aI2
aa(lp788
I22376
aI3
aa(lp789
I22376
aI4
aa(lp790
I22402
aI0
aa(lp791
I22402
aI1
aa(lp792
I22402
aI2
aa(lp793
I22402
aI3
aa(lp794
I22402
aI4
aa(lp795
I22617
aI0
aa(lp796
I22617
aI1
aa(lp797
I22617
aI2
aa(lp798
I22789
aI0
aa(lp799
I22789
aI1
aa(lp800
I22789
aI2
aa(lp801
I22789
aI3
aa(lp802
I22789
aI4
aa(lp803
I22830
aI1
aa(lp804
I22830
aI2
aa(lp805
I22830
aI3
aa(lp806
I22830
aI4
aa(lp807
I22881
aI0
aa(lp808
I22881
aI1
aa(lp809
I22881
aI2
aa(lp810
I22881
aI3
aa(lp811
I22881
aI4
aa(lp812
I23014
aI0
aa(lp813
I23014
aI1
aa(lp814
I23014
aI2
aa(lp815
I23014
aI3
aa(lp816
I23014
aI4
aa(lp817
I23025
aI0
aa(lp818
I23025
aI1
aa(lp819
I23025
aI2
aa(lp820
I23025
aI3
aa(lp821
I23025
aI4
aa(lp822
I23133
aI0
aa(lp823
I23133
aI1
aa(lp824
I23133
aI2
aa(lp825
I23133
aI3
aa(lp826
I23133
aI4
aa(lp827
I23155
aI1
aa(lp828
I23157
aI0
aa(lp829
I23157
aI1
aa(lp830
I23157
aI2
aa(lp831
I23157
aI3
aa(lp832
I23157
aI4
aa(lp833
I23173
aI0
aa(lp834
I23173
aI1
aa(lp835
I23173
aI2
aa(lp836
I23173
aI3
aa(lp837
I23173
aI4
aa(lp838
I23238
aI0
aa(lp839
I23238
aI1
aa(lp840
I23238
aI2
aa(lp841
I23238
aI3
aa(lp842
I23238
aI4
aa(lp843
I23290
aI0
aa(lp844
I23329
aI0
aa(lp845
I23329
aI1
aa(lp846
I23329
aI3
aa(lp847
I23332
aI0
aa(lp848
I23332
aI1
aa(lp849
I23332
aI2
aa(lp850
I23332
aI3
aa(lp851
I23332
aI4
aa(lp852
I23375
aI0
aa(lp853
I23375
aI3
aa(lp854
I23451
aI0
aa(lp855
I23451
aI1
aa(lp856
I23451
aI2
aa(lp857
I23451
aI3
aa(lp858
I23451
aI4
aa(lp859
I23633
aI1
aa(lp860
I23633
aI4
aa(lp861
I23746
aI0
aa(lp862
I23746
aI1
aa(lp863
I23746
aI2
aa(lp864
I23746
aI3
aa(lp865
I23746
aI4
aa(lp866
I23817
aI0
aa(lp867
I23853
aI0
aa(lp868
I23853
aI1
aa(lp869
I23853
aI2
aa(lp870
I23853
aI3
aa(lp871
I23853
aI4
aa(lp872
I23868
aI0
aa(lp873
I23868
aI1
aa(lp874
I23868
aI2
aa(lp875
I23868
aI3
aa(lp876
I23913
aI0
aa(lp877
I23913
aI1
aa(lp878
I23913
aI2
aa(lp879
I23913
aI3
aa(lp880
I23913
aI4
aa(lp881
I24005
aI1
aa(lp882
I24537
aI0
aa(lp883
I24537
aI1
aa(lp884
I24537
aI2
aa(lp885
I24537
aI3
aa(lp886
I24537
aI4
aa(lp887
I24564
aI1
aa(lp888
I24578
aI0
aa(lp889
I24578
aI1
aa(lp890
I24578
aI2
aa(lp891
I24578
aI3
aa(lp892
I24578
aI4
aa(lp893
I24590
aI4
aa(lp894
I24662
aI0
aa(lp895
I24662
aI1
aa(lp896
I24662
aI2
aa(lp897
I24662
aI3
aa(lp898
I24662
aI4
aa(lp899
I24758
aI1
aa(lp900
I24758
aI2
aa(lp901
I24758
aI4
aa(lp902
I24796
aI0
aa(lp903
I24796
aI1
aa(lp904
I24796
aI2
aa(lp905
I24796
aI4
aa(lp906
I25135
aI0
aa(lp907
I25135
aI1
aa(lp908
I25135
aI2
aa(lp909
I25135
aI3
aa(lp910
I25135
aI4
aa(lp911
I25175
aI0
aa(lp912
I25175
aI2
aa(lp913
I25311
aI0
aa(lp914
I25311
aI1
aa(lp915
I25311
aI2
aa(lp916
I25311
aI4
aa(lp917
I25454
aI0
aa(lp918
I25454
aI1
aa(lp919
I25454
aI2
aa(lp920
I25454
aI4
aa(lp921
I25647
aI0
aa(lp922
I25647
aI1
aa(lp923
I25647
aI2
aa(lp924
I25704
aI0
aa(lp925
I25704
aI1
aa(lp926
I25788
aI1
aa(lp927
I25788
aI2
aa(lp928
I25788
aI4
aa(lp929
I25837
aI0
aa(lp930
I25845
aI0
aa(lp931
I25845
aI1
aa(lp932
I25845
aI3
aa(lp933
I25845
aI4
aa(lp934
I26206
aI0
aa(lp935
I26206
aI1
aa(lp936
I26206
aI2
aa(lp937
I26206
aI3
aa(lp938
I26206
aI4
aa(lp939
I26220
aI0
aa(lp940
I26220
aI1
aa(lp941
I26220
aI2
aa(lp942
I26220
aI4
aa(lp943
I26321
aI0
aa(lp944
I26321
aI1
aa(lp945
I26321
aI2
aa(lp946
I26321
aI3
aa(lp947
I26321
aI4
aa(lp948
I26476
aI1
aa(lp949
I26476
aI2
aa(lp950
I26476
aI3
aa(lp951
I26476
aI4
aa(lp952
I26563
aI4
aa(lp953
I26639
aI4
aa(lp954
I26646
aI0
aa(lp955
I26646
aI1
aa(lp956
I26646
aI2
aa(lp957
I26646
aI3
aa(lp958
I26646
aI4
aa(lp959
I26732
aI0
aa(lp960
I26732
aI1
aa(lp961
I26732
aI2
aa(lp962
I26732
aI3
aa(lp963
I26732
aI4
aa(lp964
I26750
aI0
aa(lp965
I26750
aI1
aa(lp966
I26750
aI2
aa(lp967
I26750
aI3
aa(lp968
I26750
aI4
aa(lp969
I26769
aI1
aa(lp970
I26769
aI2
aa(lp971
I26769
aI3
aa(lp972
I26774
aI3
aa(lp973
I26837
aI0
aa(lp974
I26837
aI1
aa(lp975
I26837
aI2
aa(lp976
I26837
aI3
aa(lp977
I26837
aI4
aa(lp978
I26842
aI4
aa(lp979
I26902
aI0
aa(lp980
I26902
aI1
aa(lp981
I26902
aI2
aa(lp982
I26902
aI3
aa(lp983
I26902
aI4
aa(lp984
I26943
aI0
aa(lp985
I27161
aI0
aa(lp986
I27161
aI1
aa(lp987
I27161
aI3
aa(lp988
I27161
aI4
aa(lp989
I27171
aI4
aa(lp990
I27332
aI0
aa(lp991
I27332
aI1
aa(lp992
I27332
aI2
aa(lp993
I27332
aI3
aa(lp994
I27473
aI0
aa(lp995
I27473
aI2
aa(lp996
I27473
aI3
aa(lp997
I27473
aI4
aa(lp998
I27530
aI2
aa(lp999
I27564
aI1
aa(lp1000
I27564
aI2
aa(lp1001
I27564
aI3
aa(lp1002
I27564
aI4
aa(lp1003
I27616
aI0
aa(lp1004
I27616
aI2
aa(lp1005
I27616
aI3
aa(lp1006
I27616
aI4
aa(lp1007
I27648
aI0
aa(lp1008
I27648
aI2
aa(lp1009
I27648
aI3
aa(lp1010
I27648
aI4
aa(lp1011
I27810
aI0
aa(lp1012
I27959
aI0
aa(lp1013
I27959
aI1
aa(lp1014
I27959
aI3
aa(lp1015
I27959
aI4
aa(lp1016
I28037
aI0
aa(lp1017
I28037
aI1
aa(lp1018
I28037
aI2
aa(lp1019
I28037
aI3
aa(lp1020
I28037
aI4
aa(lp1021
I28138
aI2
aa(lp1022
I28148
aI0
aa(lp1023
I28148
aI1
aa(lp1024
I28148
aI3
aa(lp1025
I28151
aI0
aa(lp1026
I28151
aI1
aa(lp1027
I28151
aI2
aa(lp1028
I28151
aI3
aa(lp1029
I28151
aI4
aa(lp1030
I28192
aI0
aa(lp1031
I28192
aI1
aa(lp1032
I28192
aI2
aa(lp1033
I28192
aI4
aa(lp1034
I28195
aI0
aa(lp1035
I28195
aI1
aa(lp1036
I28195
aI3
aa(lp1037
I28195
aI4
aa(lp1038
I28352
aI0
aa(lp1039
I28352
aI1
aa(lp1040
I28352
aI2
aa(lp1041
I28352
aI3
aa(lp1042
I28352
aI4
aa(lp1043
I28421
aI0
aa(lp1044
I28421
aI1
aa(lp1045
I28421
aI2
aa(lp1046
I28421
aI3
aa(lp1047
I28426
aI0
aa(lp1048
I28426
aI1
aa(lp1049
I28426
aI3
aa(lp1050
I28426
aI4
aa(lp1051
I28447
aI0
aa(lp1052
I28447
aI1
aa(lp1053
I28447
aI2
aa(lp1054
I28447
aI3
aa(lp1055
I28462
aI0
aa(lp1056
I28462
aI2
aa(lp1057
I28462
aI3
aa(lp1058
I28462
aI4
aa(lp1059
I28505
aI1
aa(lp1060
I28560
aI0
aa(lp1061
I28560
aI1
aa(lp1062
I28560
aI2
aa(lp1063
I28560
aI3
aa(lp1064
I28560
aI4
aa(lp1065
I28869
aI1
aa(lp1066
I28964
aI0
aa(lp1067
I28964
aI1
aa(lp1068
I28964
aI2
aa(lp1069
I28964
aI4
aa(lp1070
I29020
aI0
aa(lp1071
I29020
aI1
aa(lp1072
I29020
aI2
aa(lp1073
I29020
aI3
aa(lp1074
I29020
aI4
aa(lp1075
I29046
aI3
aa(lp1076
I29046
aI4
aa(lp1077
I29125
aI0
aa(lp1078
I29125
aI1
aa(lp1079
I29125
aI2
aa(lp1080
I29125
aI3
aa(lp1081
I29125
aI4
aa(lp1082
I29231
aI0
aa(lp1083
I29231
aI1
aa(lp1084
I29231
aI2
aa(lp1085
I29231
aI3
aa(lp1086
I29231
aI4
aa(lp1087
I29286
aI0
aa(lp1088
I29286
aI1
aa(lp1089
I29286
aI2
aa(lp1090
I29286
aI3
aa(lp1091
I29286
aI4
aa(lp1092
I29389
aI1
aa(lp1093
I29389
aI2
aa(lp1094
I29389
aI3
aa(lp1095
I29389
aI4
aa(lp1096
I29549
aI0
aa(lp1097
I29549
aI1
aa(lp1098
I29549
aI3
aa(lp1099
I29549
aI4
aa(lp1100
I29634
aI0
aa(lp1101
I29634
aI1
aa(lp1102
I29634
aI2
aa(lp1103
I29634
aI3
aa(lp1104
I29634
aI4
aa(lp1105
I29646
aI1
aa(lp1106
I29646
aI2
aa(lp1107
I29646
aI4
aa(lp1108
I29774
aI0
aa(lp1109
I29774
aI1
aa(lp1110
I29774
aI2
aa(lp1111
I29774
aI3
aa(lp1112
I29774
aI4
aa(lp1113
I29847
aI0
aa(lp1114
I29847
aI1
aa(lp1115
I29847
aI2
aa(lp1116
I29847
aI3
aa(lp1117
I29847
aI4
aa(lp1118
I30051
aI0
aa(lp1119
I30109
aI0
aa(lp1120
I30109
aI1
aa(lp1121
I30109
aI2
aa(lp1122
I30222
aI0
aa(lp1123
I30222
aI1
aa(lp1124
I30222
aI2
aa(lp1125
I30222
aI3
aa(lp1126
I30222
aI4
aa(lp1127
I30401
aI0
aa(lp1128
I30401
aI1
aa(lp1129
I30401
aI3
aa(lp1130
I30401
aI4
aa(lp1131
I30507
aI0
aa(lp1132
I30507
aI2
aa(lp1133
I30507
aI3
aa(lp1134
I30562
aI1
aa(lp1135
I30562
aI2
aa(lp1136
I30562
aI4
aa(lp1137
I30648
aI0
aa(lp1138
I30648
aI1
aa(lp1139
I30648
aI2
aa(lp1140
I30648
aI3
aa(lp1141
I30648
aI4
aa(lp1142
I30680
aI0
aa(lp1143
I30680
aI1
aa(lp1144
I30680
aI2
aa(lp1145
I30680
aI3
aa(lp1146
I30709
aI3
aa(lp1147
I30855
aI0
aa(lp1148
I30855
aI1
aa(lp1149
I30855
aI2
aa(lp1150
I30855
aI3
aa(lp1151
I30855
aI4
aa(lp1152
I31226
aI0
aa(lp1153
I31226
aI1
aa(lp1154
I31226
aI2
aa(lp1155
I31226
aI3
aa(lp1156
I31226
aI4
aa(lp1157
I31458
aI0
aa(lp1158
I31458
aI1
aa(lp1159
I31458
aI2
aa(lp1160
I31458
aI3
aa(lp1161
I31458
aI4
aa(lp1162
I31510
aI4
aa(lp1163
I31540
aI0
aa(lp1164
I31540
aI3
aa(lp1165
I31540
aI4
aa(lp1166
I31581
aI0
aa(lp1167
I31581
aI1
aa(lp1168
I31581
aI2
aa(lp1169
I31581
aI3
aa(lp1170
I31581
aI4
aa(lp1171
I31667
aI0
aa(lp1172
I31667
aI1
aa(lp1173
I31667
aI2
aa(lp1174
I31667
aI3
aa(lp1175
I31667
aI4
aa(lp1176
I32194
aI0
aa(lp1177
I32194
aI1
aa(lp1178
I32194
aI2
aa(lp1179
I32194
aI3
aa(lp1180
I32194
aI4
aa(lp1181
I32231
aI0
aa(lp1182
I32231
aI1
aa(lp1183
I32231
aI2
aa(lp1184
I32231
aI3
aa(lp1185
I32231
aI4
aa(lp1186
I32357
aI0
aa(lp1187
I32357
aI2
aa(lp1188
I32357
aI4
aa(lp1189
I32403
aI0
aa(lp1190
I32403
aI1
aa(lp1191
I32403
aI2
aa(lp1192
I32403
aI3
aa(lp1193
I32403
aI4
aa(lp1194
I32463
aI0
aa(lp1195
I32463
aI2
aa(lp1196
I32463
aI3
aa(lp1197
I32463
aI4
aa(lp1198
I32489
aI1
aa(lp1199
I32489
aI2
aa(lp1200
I32489
aI4
aa(lp1201
I32660
aI0
aa(lp1202
I32660
aI1
aa(lp1203
I32660
aI2
aa(lp1204
I32660
aI3
aa(lp1205
I32660
aI4
aa(lp1206
I33014
aI0
aa(lp1207
I33014
aI1
aa(lp1208
I33014
aI3
aa(lp1209
I33014
aI4
aa(lp1210
I33074
aI0
aa(lp1211
I33074
aI1
aa(lp1212
I33074
aI2
aa(lp1213
I33074
aI3
aa(lp1214
I33074
aI4
aa(lp1215
I33094
aI0
aa(lp1216
I33094
aI2
aa(lp1217
I33094
aI3
aa(lp1218
I33094
aI4
aa(lp1219
I33120
aI0
aa(lp1220
I33120
aI2
aa(lp1221
I33120
aI3
aa(lp1222
I33206
aI0
aa(lp1223
I33206
aI1
aa(lp1224
I33206
aI3
aa(lp1225
I33309
aI0
aa(lp1226
I33309
aI1
aa(lp1227
I33309
aI3
aa(lp1228
I33309
aI4
aa(lp1229
I33458
aI0
aa(lp1230
I33458
aI1
aa(lp1231
I33458
aI2
aa(lp1232
I33458
aI3
aa(lp1233
I33458
aI4
aa(lp1234
I33636
aI0
aa(lp1235
I33636
aI1
aa(lp1236
I33636
aI2
aa(lp1237
I33636
aI3
aa(lp1238
I33636
aI4
aa(lp1239
I33684
aI0
aa(lp1240
I33684
aI1
aa(lp1241
I33684
aI2
aa(lp1242
I33684
aI3
aa(lp1243
I33684
aI4
aa(lp1244
I33842
aI4
aa(lp1245
I34059
aI0
aa(lp1246
I34059
aI4
aa(lp1247
I34086
aI0
aa(lp1248
I34086
aI1
aa(lp1249
I34086
aI2
aa(lp1250
I34157
aI0
aa(lp1251
I34157
aI1
aa(lp1252
I34157
aI2
aa(lp1253
I34157
aI3
aa(lp1254
I34216
aI0
aa(lp1255
I34216
aI1
aa(lp1256
I34216
aI2
aa(lp1257
I34216
aI3
aa(lp1258
I34216
aI4
aa(lp1259
I34350
aI0
aa(lp1260
I34350
aI1
aa(lp1261
I34350
aI2
aa(lp1262
I34350
aI3
aa(lp1263
I34350
aI4
aa(lp1264
I34413
aI0
aa(lp1265
I34413
aI1
aa(lp1266
I34413
aI2
aa(lp1267
I34413
aI3
aa(lp1268
I34413
aI4
aa(lp1269
I34545
aI2
aa(lp1270
I34545
aI3
aa(lp1271
I34792
aI0
aa(lp1272
I34792
aI1
aa(lp1273
I34792
aI2
aa(lp1274
I34792
aI3
aa(lp1275
I34792
aI4
aa(lp1276
I34844
aI0
aa(lp1277
I34844
aI1
aa(lp1278
I34844
aI2
aa(lp1279
I34844
aI3
aa(lp1280
I34844
aI4
aa(lp1281
I35077
aI0
aa(lp1282
I35077
aI1
aa(lp1283
I35077
aI3
aa(lp1284
I35077
aI4
aa(lp1285
I35143
aI0
aa(lp1286
I35143
aI1
aa(lp1287
I35362
aI0
aa(lp1288
I35362
aI1
aa(lp1289
I35362
aI2
aa(lp1290
I35362
aI3
aa(lp1291
I35362
aI4
aa(lp1292
I35467
aI0
aa(lp1293
I35467
aI1
aa(lp1294
I35467
aI2
aa(lp1295
I35467
aI3
aa(lp1296
I35467
aI4
aa(lp1297
I35529
aI3
aa(lp1298
I35602
aI4
aa(lp1299
I35639
aI0
aa(lp1300
I35639
aI1
aa(lp1301
I35639
aI2
aa(lp1302
I35639
aI3
aa(lp1303
I35639
aI4
aa(lp1304
I35901
aI0
aa(lp1305
I35901
aI1
aa(lp1306
I35901
aI2
aa(lp1307
I35901
aI3
aa(lp1308
I35901
aI4
aa(lp1309
I35986
aI0
aa(lp1310
I35986
aI2
aa(lp1311
I35986
aI3
aa(lp1312
I35986
aI4
aa(lp1313
I36090
aI0
aa(lp1314
I36090
aI1
aa(lp1315
I36090
aI2
aa(lp1316
I36090
aI3
aa(lp1317
I36090
aI4
aa(lp1318
I36127
aI0
aa(lp1319
I36127
aI1
aa(lp1320
I36127
aI2
aa(lp1321
I36127
aI3
aa(lp1322
I36127
aI4
aa(lp1323
I36527
aI0
aa(lp1324
I36527
aI1
aa(lp1325
I36527
aI2
aa(lp1326
I36527
aI3
aa(lp1327
I36556
aI0
aa(lp1328
I36556
aI1
aa(lp1329
I36556
aI2
aa(lp1330
I36556
aI3
aa(lp1331
I36556
aI4
aa(lp1332
I36768
aI1
aa(lp1333
I36768
aI2
aa(lp1334
I36768
aI3
aa(lp1335
I36768
aI4
aa(lp1336
I36773
aI2
aa(lp1337
I36773
aI3
aa(lp1338
I36773
aI4
aa(lp1339
I36788
aI0
aa(lp1340
I36788
aI1
aa(lp1341
I36788
aI2
aa(lp1342
I36788
aI3
aa(lp1343
I36788
aI4
aa(lp1344
I36822
aI0
aa(lp1345
I36822
aI1
aa(lp1346
I36822
aI2
aa(lp1347
I36822
aI3
aa(lp1348
I36822
aI4
aa(lp1349
I36915
aI0
aa(lp1350
I36915
aI1
aa(lp1351
I36915
aI2
aa(lp1352
I36915
aI3
aa(lp1353
I36974
aI0
aa(lp1354
I36974
aI1
aa(lp1355
I36974
aI2
aa(lp1356
I36974
aI3
aa(lp1357
I36974
aI4
aa(lp1358
I37015
aI0
aa(lp1359
I37015
aI1
aa(lp1360
I37015
aI4
aa(lp1361
I37152
aI0
aa(lp1362
I37152
aI2
aa(lp1363
I37152
aI3
aa(lp1364
I37152
aI4
aa(lp1365
I37173
aI0
aa(lp1366
I37173
aI1
aa(lp1367
I37173
aI2
aa(lp1368
I37173
aI3
aa(lp1369
I37173
aI4
aa(lp1370
I37205
aI3
aa(lp1371
I37255
aI1
aa(lp1372
I37255
aI3
aa(lp1373
I37280
aI0
aa(lp1374
I37280
aI1
aa(lp1375
I37280
aI2
aa(lp1376
I37280
aI3
aa(lp1377
I37280
aI4
aa(lp1378
I37309
aI0
aa(lp1379
I37309
aI2
aa(lp1380
I37309
aI3
aa(lp1381
I37309
aI4
aa(lp1382
I37382
aI0
aa(lp1383
I37412
aI0
aa(lp1384
I37412
aI3
aa(lp1385
I37451
aI0
aa(lp1386
I37451
aI2
aa(lp1387
I37451
aI3
aa(lp1388
I37451
aI4
aa(lp1389
I37515
aI1
aa(lp1390
I37515
aI2
aa(lp1391
I37515
aI4
aa(lp1392
I37589
aI0
aa(lp1393
I37589
aI1
aa(lp1394
I37589
aI2
aa(lp1395
I37589
aI3
aa(lp1396
I37589
aI4
aa(lp1397
I37754
aI0
aa(lp1398
I37754
aI1
aa(lp1399
I37754
aI4
aa(lp1400
I37819
aI0
aa(lp1401
I37819
aI1
aa(lp1402
I37819
aI2
aa(lp1403
I37819
aI3
aa(lp1404
I38199
aI0
aa(lp1405
I38199
aI1
aa(lp1406
I38199
aI2
aa(lp1407
I38199
aI3
aa(lp1408
I38199
aI4
aa(lp1409
I38285
aI3
aa(lp1410
I38324
aI0
aa(lp1411
I38324
aI1
aa(lp1412
I38324
aI2
aa(lp1413
I38324
aI3
aa(lp1414
I38324
aI4
aa(lp1415
I38351
aI0
aa(lp1416
I38351
aI1
aa(lp1417
I38351
aI2
aa(lp1418
I38351
aI3
aa(lp1419
I38351
aI4
aa(lp1420
I38431
aI0
aa(lp1421
I38431
aI1
aa(lp1422
I38431
aI2
aa(lp1423
I38431
aI3
aa(lp1424
I38714
aI0
aa(lp1425
I38714
aI3
aa(lp1426
I38714
aI4
aa(lp1427
I38815
aI0
aa(lp1428
I38815
aI1
aa(lp1429
I38815
aI2
aa(lp1430
I38815
aI3
aa(lp1431
I38815
aI4
aa(lp1432
I38980
aI0
aa(lp1433
I38980
aI2
aa(lp1434
I38980
aI3
aa(lp1435
I38980
aI4
aa(lp1436
I39003
aI4
aa(lp1437
I39036
aI0
aa(lp1438
I39036
aI2
aa(lp1439
I39036
aI3
aa(lp1440
I39036
aI4
aa(lp1441
I39085
aI0
aa(lp1442
I39085
aI1
aa(lp1443
I39085
aI2
aa(lp1444
I39085
aI3
aa(lp1445
I39085
aI4
aa(lp1446
I39544
aI1
aa(lp1447
I39544
aI3
aa(lp1448
I39599
aI0
aa(lp1449
I39599
aI4
aa(lp1450
I39669
aI2
aa(lp1451
I39727
aI1
aa(lp1452
I39727
aI2
aa(lp1453
I39727
aI3
aa(lp1454
I39727
aI4
aa(lp1455
I39738
aI0
aa(lp1456
I39738
aI1
aa(lp1457
I39738
aI3
aa(lp1458
I39804
aI0
aa(lp1459
I39804
aI1
aa(lp1460
I39804
aI2
aa(lp1461
I39804
aI3
aa(lp1462
I39804
aI4
aa(lp1463
I39822
aI0
aa(lp1464
I39822
aI2
aa(lp1465
I39822
aI3
aa(lp1466
I39822
aI4
aa(lp1467
I39874
aI0
aa(lp1468
I39874
aI1
aa(lp1469
I39874
aI3
aa(lp1470
I39874
aI4
aa(lp1471
I39901
aI0
aa(lp1472
I39901
aI1
aa(lp1473
I39901
aI2
aa(lp1474
I39901
aI3
aa(lp1475
I39901
aI4
aa(lp1476
I39979
aI0
aa(lp1477
I39979
aI1
aa(lp1478
I39979
aI2
aa(lp1479
I39979
aI3
aa(lp1480
I39979
aI4
aa(lp1481
I40074
aI0
aa(lp1482
I40074
aI1
aa(lp1483
I40074
aI3
aa(lp1484
I40074
aI4
aa(lp1485
I40210
aI0
aa(lp1486
I40210
aI1
aa(lp1487
I40235
aI4
aa(lp1488
I40414
aI1
aa(lp1489
I40414
aI2
aa(lp1490
I40414
aI3
aa(lp1491
I40414
aI4
aa.