(lp0
(lp1
I12
aI4
aa(lp2
I81
aI0
aa(lp3
I81
aI2
aa(lp4
I82
aI2
aa(lp5
I489
aI0
aa(lp6
I699
aI1
aa(lp7
I961
aI0
aa(lp8
I1168
aI0
aa(lp9
I1168
aI1
aa(lp10
I1237
aI0
aa(lp11
I1515
aI3
aa(lp12
I1624
aI0
aa(lp13
I1659
aI0
aa(lp14
I1659
aI1
aa(lp15
I1659
aI3
aa(lp16
I2034
aI1
aa(lp17
I2176
aI0
aa(lp18
I2176
aI3
aa(lp19
I2438
aI2
aa(lp20
I2745
aI3
aa(lp21
I2794
aI1
aa(lp22
I2804
aI2
aa(lp23
I2828
aI3
aa(lp24
I2828
aI4
aa(lp25
I2869
aI0
aa(lp26
I2878
aI0
aa(lp27
I2926
aI3
aa(lp28
I3711
aI2
aa(lp29
I3711
aI3
aa(lp30
I3883
aI3
aa(lp31
I3988
aI0
aa(lp32
I3988
aI1
aa(lp33
I4090
aI0
aa(lp34
I4205
aI3
aa(lp35
I4205
aI4
aa(lp36
I4230
aI3
aa(lp37
I4292
aI1
aa(lp38
I4292
aI3
aa(lp39
I4498
aI1
aa(lp40
I4498
aI3
aa(lp41
I4583
aI0
aa(lp42
I4954
aI2
aa(lp43
I5211
aI2
aa(lp44
I5286
aI0
aa(lp45
I5300
aI1
aa(lp46
I5300
aI2
aa(lp47
I5300
aI3
aa(lp48
I5378
aI0
aa(lp49
I5385
aI4
aa(lp50
I5400
aI0
aa(lp51
I5515
aI3
aa(lp52
I5671
aI0
aa(lp53
I5844
aI3
aa(lp54
I5964
aI2
aa(lp55
I6024
aI0
aa(lp56
I6270
aI0
aa(lp57
I6270
aI1
aa(lp58
I6270
aI4
aa(lp59
I6807
aI1
aa(lp60
I7260
aI2
aa(lp61
I7752
aI0
aa(lp62
I7752
aI1
aa(lp63
I7806
aI0
aa(lp64
I8328
aI0
aa(lp65
I8328
aI4
aa(lp66
I8493
aI4
aa(lp67
I8511
aI0
aa(lp68
I8659
aI0
aa(lp69
I8672
aI4
aa(lp70
I8676
aI0
aa(lp71
I8676
aI3
aa(lp72
I8778
aI2
aa(lp73
I8926
aI3
aa(lp74
I9027
aI0
aa(lp75
I9027
aI4
aa(lp76
I9139
aI3
aa(lp77
I9368
aI2
aa(lp78
I9491
aI0
aa(lp79
I9824
aI1
aa(lp80
I10064
aI1
aa(lp81
I10064
aI3
aa(lp82
I10099
aI2
aa(lp83
I10216
aI0
aa(lp84
I10216
aI2
aa(lp85
I10257
aI2
aa(lp86
I10307
aI2
aa(lp87
I10720
aI0
aa(lp88
I10821
aI0
aa(lp89
I10835
aI2
aa(lp90
I10880
aI3
aa(lp91
I11215
aI0
aa(lp92
I11215
aI3
aa(lp93
I11215
aI4
aa(lp94
I11453
aI3
aa(lp95
I11475
aI0
aa(lp96
I11475
aI2
aa(lp97
I11932
aI1
aa(lp98
I11932
aI3
aa(lp99
I11932
aI4
aa(lp100
I11954
aI1
aa(lp101
I12256
aI1
aa(lp102
I12362
aI4
aa(lp103
I12704
aI2
aa(lp104
I13029
aI0
aa(lp105
I13029
aI1
aa(lp106
I13029
aI3
aa(lp107
I13033
aI4
aa(lp108
I13089
aI3
aa(lp109
I13089
aI4
aa(lp110
I13200
aI2
aa(lp111
I13324
aI2
aa(lp112
I13704
aI3
aa(lp113
I13704
aI4
aa(lp114
I13875
aI0
aa(lp115
I13990
aI1
aa(lp116
I13990
aI2
aa(lp117
I13990
aI4
aa(lp118
I14315
aI0
aa(lp119
I14369
aI0
aa(lp120
I14442
aI3
aa(lp121
I14505
aI1
aa(lp122
I14748
aI4
aa(lp123
I14978
aI4
aa(lp124
I15051
aI2
aa(lp125
I15238
aI1
aa(lp126
I15298
aI2
aa(lp127
I15864
aI0
aa(lp128
I16010
aI0
aa(lp129
I16103
aI1
aa(lp130
I16103
aI2
aa(lp131
I16104
aI2
aa(lp132
I16218
aI3
aa(lp133
I16496
aI2
aa(lp134
I16824
aI1
aa(lp135
I17270
aI0
aa(lp136
I17270
aI2
aa(lp137
I17270
aI4
aa(lp138
I17344
aI1
aa(lp139
I17589
aI0
aa(lp140
I17742
aI3
aa(lp141
I18189
aI0
aa(lp142
I18577
aI0
aa(lp143
I18770
aI3
aa(lp144
I18870
aI0
aa(lp145
I18941
aI0
aa(lp146
I18971
aI2
aa(lp147
I19065
aI3
aa(lp148
I19134
aI3
aa(lp149
I19487
aI3
aa(lp150
I19533
aI0
aa(lp151
I19533
aI3
aa(lp152
I19576
aI0
aa(lp153
I19588
aI0
aa(lp154
I19915
aI0
aa(lp155
I19915
aI3
aa(lp156
I20530
aI4
aa(lp157
I20684
aI0
aa(lp158
I20849
aI4
aa(lp159
I20876
aI4
aa(lp160
I21029
aI0
aa(lp161
I21145
aI0
aa(lp162
I21145
aI1
aa(lp163
I21224
aI0
aa(lp164
I21328
aI4
aa(lp165
I21445
aI4
aa(lp166
I21448
aI0
aa(lp167
I21448
aI1
aa(lp168
I21547
aI2
aa(lp169
I21955
aI2
aa(lp170
I21955
aI3
aa(lp171
I21968
aI4
aa(lp172
I22027
aI4
aa(lp173
I22235
aI4
aa(lp174
I22362
aI0
aa(lp175
I22446
aI4
aa(lp176
I22506
aI0
aa(lp177
I22537
aI0
aa(lp178
I22711
aI0
aa(lp179
I22711
aI1
aa(lp180
I22741
aI0
aa(lp181
I22943
aI0
aa(lp182
I22990
aI1
aa(lp183
I22990
aI3
aa(lp184
I23092
aI2
aa(lp185
I23092
aI3
aa(lp186
I23256
aI4
aa(lp187
I23326
aI4
aa(lp188
I23407
aI0
aa(lp189
I23734
aI3
aa(lp190
I23894
aI1
aa(lp191
I23894
aI3
aa(lp192
I23970
aI2
aa(lp193
I24081
aI2
aa(lp194
I24531
aI1
aa(lp195
I24630
aI1
aa(lp196
I24630
aI2
aa(lp197
I24630
aI3
aa(lp198
I24663
aI2
aa(lp199
I24663
aI4
aa(lp200
I24941
aI4
aa(lp201
I25600
aI1
aa(lp202
I25825
aI0
aa(lp203
I26139
aI4
aa(lp204
I26142
aI3
aa(lp205
I26330
aI3
aa(lp206
I26421
aI2
aa(lp207
I26421
aI4
aa(lp208
I26454
aI0
aa(lp209
I26454
aI2
aa(lp210
I26454
aI3
aa(lp211
I26990
aI3
aa(lp212
I27291
aI2
aa(lp213
I27291
aI3
aa(lp214
I27298
aI2
aa(lp215
I27416
aI1
aa(lp216
I27507
aI3
aa(lp217
I27507
aI4
aa(lp218
I27579
aI3
aa(lp219
I27673
aI1
aa(lp220
I27673
aI4
aa(lp221
I27747
aI3
aa(lp222
I28340
aI3
aa(lp223
I28531
aI1
aa(lp224
I28808
aI1
aa(lp225
I28830
aI4
aa(lp226
I29038
aI0
aa(lp227
I29329
aI0
aa(lp228
I29329
aI4
aa(lp229
I29351
aI0
aa(lp230
I29445
aI0
aa(lp231
I29803
aI1
aa(lp232
I29941
aI0
aa(lp233
I29951
aI1
aa(lp234
I30022
aI4
aa(lp235
I30292
aI1
aa(lp236
I30346
aI2
aa(lp237
I30779
aI4
aa(lp238
I30888
aI0
aa(lp239
I30914
aI1
aa(lp240
I30914
aI3
aa(lp241
I30932
aI3
aa(lp242
I31080
aI2
aa(lp243
I31127
aI4
aa(lp244
I31232
aI0
aa(lp245
I31494
aI3
aa(lp246
I31578
aI2
aa(lp247
I31649
aI0
aa(lp248
I31649
aI2
aa(lp249
I31672
aI4
aa(lp250
I31789
aI2
aa(lp251
I31955
aI0
aa(lp252
I32081
aI4
aa(lp253
I32147
aI3
aa(lp254
I32211
aI2
aa(lp255
I32277
aI0
aa(lp256
I32277
aI2
aa(lp257
I32434
aI1
aa(lp258
I32575
aI1
aa(lp259
I32840
aI1
aa(lp260
I33172
aI3
aa(lp261
I33264
aI1
aa(lp262
I33264
aI3
aa(lp263
I33485
aI3
aa(lp264
I33608
aI3
aa(lp265
I33696
aI3
aa(lp266
I33777
aI0
aa(lp267
I33782
aI4
aa(lp268
I34113
aI1
aa(lp269
I34366
aI1
aa(lp270
I34390
aI1
aa(lp271
I34390
aI3
aa(lp272
I34496
aI0
aa(lp273
I34693
aI0
aa(lp274
I34693
aI1
aa(lp275
I34693
aI2
aa(lp276
I34753
aI0
aa(lp277
I34961
aI0
aa(lp278
I34961
aI4
aa(lp279
I35113
aI0
aa(lp280
I35117
aI2
aa(lp281
I35123
aI2
aa(lp282
I35183
aI0
aa(lp283
I35685
aI4
aa(lp284
I35740
aI3
aa(lp285
I35752
aI0
aa(lp286
I35921
aI2
aa(lp287
I35963
aI4
aa(lp288
I36323
aI3
aa(lp289
I36348
aI0
aa(lp290
I36354
aI2
aa(lp291
I36608
aI0
aa(lp292
I36620
aI4
aa(lp293
I36625
aI1
aa(lp294
I36633
aI1
aa(lp295
I36633
aI3
aa(lp296
I36817
aI0
aa(lp297
I37304
aI1
aa(lp298
I37598
aI1
aa(lp299
I37660
aI4
aa(lp300
I38041
aI0
aa(lp301
I38041
aI3
aa(lp302
I38041
aI4
aa(lp303
I38082
aI1
aa(lp304
I38170
aI2
aa(lp305
I38500
aI0
aa(lp306
I38515
aI0
aa(lp307
I38515
aI4
aa(lp308
I38600
aI4
aa(lp309
I38810
aI4
aa(lp310
I38845
aI4
aa(lp311
I38893
aI0
aa(lp312
I38893
aI4
aa(lp313
I39527
aI1
aa(lp314
I39811
aI0
aa(lp315
I39811
aI1
aa(lp316
I39811
aI3
aa(lp317
I40044
aI4
aa(lp318
I40264
aI0
aa(lp319
I40317
aI0
aa(lp320
I40317
aI3
aa(lp321
I40317
aI4
aa(lp322
I40337
aI0
aa.