(lp0
(lp1
I96
aI1
aa(lp2
I96
aI2
aa(lp3
I96
aI3
aa(lp4
I96
aI4
aa(lp5
I161
aI1
aa(lp6
I161
aI4
aa(lp7
I221
aI1
aa(lp8
I222
aI0
aa(lp9
I327
aI0
aa(lp10
I327
aI1
aa(lp11
I327
aI2
aa(lp12
I327
aI3
aa(lp13
I327
aI4
aa(lp14
I390
aI4
aa(lp15
I758
aI3
aa(lp16
I794
aI0
aa(lp17
I794
aI1
aa(lp18
I794
aI4
aa(lp19
I935
aI0
aa(lp20
I935
aI1
aa(lp21
I935
aI3
aa(lp22
I935
aI4
aa(lp23
I1224
aI3
aa(lp24
I1336
aI3
aa(lp25
I1339
aI1
aa(lp26
I1367
aI4
aa(lp27
I1470
aI4
aa(lp28
I1856
aI0
aa(lp29
I1887
aI2
aa(lp30
I1914
aI0
aa(lp31
I1914
aI3
aa(lp32
I1914
aI4
aa(lp33
I1918
aI1
aa(lp34
I2008
aI0
aa(lp35
I2008
aI2
aa(lp36
I2106
aI0
aa(lp37
I2106
aI1
aa(lp38
I2271
aI0
aa(lp39
I2271
aI3
aa(lp40
I2473
aI0
aa(lp41
I2473
aI4
aa(lp42
I2555
aI4
aa(lp43
I2712
aI0
aa(lp44
I2712
aI1
aa(lp45
I2712
aI3
aa(lp46
I2712
aI4
aa(lp47
I2908
aI2
aa(lp48
I3040
aI4
aa(lp49
I3085
aI1
aa(lp50
I3085
aI2
aa(lp51
I3085
aI3
aa(lp52
I3344
aI2
aa(lp53
I3379
aI0
aa(lp54
I3379
aI1
aa(lp55
I3379
aI2
aa(lp56
I3379
aI4
aa(lp57
I3693
aI3
aa(lp58
I3724
aI4
aa(lp59
I3903
aI5
aa(lp60
I3989
aI0
aa(lp61
I4140
aI1
aa(lp62
I4140
aI4
aa(lp63
I4178
aI0
aa(lp64
I4178
aI1
aa(lp65
I4178
aI2
aa(lp66
I4178
aI4
aa(lp67
I4612
aI1
aa(lp68
I4612
aI2
aa(lp69
I4615
aI1
aa(lp70
I4615
aI3
aa(lp71
I4725
aI0
aa(lp72
I4725
aI1
aa(lp73
I4725
aI4
aa(lp74
I4780
aI1
aa(lp75
I4780
aI2
aa(lp76
I4780
aI4
aa(lp77
I4823
aI0
aa(lp78
I4823
aI1
aa(lp79
I4823
aI3
aa(lp80
I4823
aI4
aa(lp81
I4902
aI3
aa(lp82
I4953
aI0
aa(lp83
I4953
aI1
aa(lp84
I4953
aI3
aa(lp85
I4953
aI4
aa(lp86
I5054
aI2
aa(lp87
I5307
aI3
aa(lp88
I5762
aI1
aa(lp89
I5762
aI2
aa(lp90
I5762
aI3
aa(lp91
I5762
aI4
aa(lp92
I5802
aI0
aa(lp93
I5802
aI3
aa(lp94
I6027
aI2
aa(lp95
I6027
aI3
aa(lp96
I6027
aI4
aa(lp97
I6076
aI1
aa(lp98
I6147
aI1
aa(lp99
I6147
aI2
aa(lp100
I6274
aI2
aa(lp101
I6274
aI4
aa(lp102
I6278
aI0
aa(lp103
I6278
aI1
aa(lp104
I6278
aI3
aa(lp105
I6278
aI4
aa(lp106
I6293
aI0
aa(lp107
I6293
aI1
aa(lp108
I6293
aI2
aa(lp109
I6293
aI3
aa(lp110
I6293
aI4
aa(lp111
I6632
aI2
aa(lp112
I6632
aI3
aa(lp113
I6650
aI0
aa(lp114
I6650
aI1
aa(lp115
I6650
aI3
aa(lp116
I6754
aI0
aa(lp117
I6754
aI1
aa(lp118
I6754
aI2
aa(lp119
I6754
aI3
aa(lp120
I6771
aI1
aa(lp121
I6797
aI0
aa(lp122
I6797
aI2
aa(lp123
I6797
aI3
aa(lp124
I6830
aI0
aa(lp125
I6830
aI1
aa(lp126
I6830
aI2
aa(lp127
I6830
aI3
aa(lp128
I6830
aI4
aa(lp129
I6898
aI2
aa(lp130
I6945
aI1
aa(lp131
I6945
aI2
aa(lp132
I6945
aI3
aa(lp133
I6945
aI4
aa(lp134
I6983
aI2
aa(lp135
I6983
aI4
aa(lp136
I7213
aI1
aa(lp137
I7213
aI2
aa(lp138
I7213
aI3
aa(lp139
I7265
aI3
aa(lp140
I7265
aI4
aa(lp141
I7403
aI0
aa(lp142
I7403
aI2
aa(lp143
I7403
aI4
aa(lp144
I7534
aI1
aa(lp145
I7534
aI3
aa(lp146
I7626
aI3
aa(lp147
I7794
aI0
aa(lp148
I7794
aI2
aa(lp149
I7794
aI4
aa(lp150
I7942
aI3
aa(lp151
I8108
aI1
aa(lp152
I8108
aI3
aa(lp153
I8112
aI0
aa(lp154
I8112
aI2
aa(lp155
I8112
aI3
aa(lp156
I8112
aI4
aa(lp157
I8202
aI4
aa(lp158
I8315
aI0
aa(lp159
I8315
aI1
aa(lp160
I8315
aI3
aa(lp161
I8315
aI4
aa(lp162
I8316
aI0
aa(lp163
I8333
aI0
aa(lp164
I8333
aI3
aa(lp165
I8333
aI4
aa(lp166
I8340
aI1
aa(lp167
I8558
aI1
aa(lp168
I9069
aI2
aa(lp169
I9148
aI0
aa(lp170
I9148
aI1
aa(lp171
I9148
aI4
aa(lp172
I9251
aI1
aa(lp173
I9251
aI3
aa(lp174
I9306
aI0
aa(lp175
I9306
aI2
aa(lp176
I9306
aI3
aa(lp177
I9306
aI4
aa(lp178
I9354
aI0
aa(lp179
I9354
aI1
aa(lp180
I9354
aI2
aa(lp181
I9354
aI3
aa(lp182
I9420
aI2
aa(lp183
I9420
aI4
aa(lp184
I9531
aI0
aa(lp185
I9531
aI1
aa(lp186
I9687
aI3
aa(lp187
I9726
aI1
aa(lp188
I9726
aI4
aa(lp189
I9888
aI1
aa(lp190
I9971
aI0
aa(lp191
I9971
aI2
aa(lp192
I9971
aI4
aa(lp193
I10034
aI0
aa(lp194
I10034
aI4
aa(lp195
I10269
aI0
aa(lp196
I10269
aI1
aa(lp197
I10269
aI3
aa(lp198
I10269
aI4
aa(lp199
I10281
aI0
aa(lp200
I10281
aI2
aa(lp201
I10281
aI4
aa(lp202
I10471
aI1
aa(lp203
I10471
aI2
aa(lp204
I10471
aI3
aa(lp205
I10471
aI4
aa(lp206
I10539
aI0
aa(lp207
I10539
aI2
aa(lp208
I10539
aI3
aa(lp209
I10539
aI4
aa(lp210
I10754
aI1
aa(lp211
I10754
aI2
aa(lp212
I10754
aI3
aa(lp213
I10755
aI2
aa(lp214
I10792
aI0
aa(lp215
I10792
aI3
aa(lp216
I10953
aI0
aa(lp217
I10953
aI2
aa(lp218
I10953
aI3
aa(lp219
I10953
aI4
aa(lp220
I10982
aI1
aa(lp221
I11245
aI0
aa(lp222
I11245
aI2
aa(lp223
I11245
aI4
aa(lp224
I11483
aI3
aa(lp225
I11584
aI0
aa(lp226
I11733
aI1
aa(lp227
I11733
aI3
aa(lp228
I11740
aI1
aa(lp229
I11740
aI2
aa(lp230
I11740
aI4
aa(lp231
I11787
aI0
aa(lp232
I11825
aI0
aa(lp233
I11825
aI4
aa(lp234
I11943
aI3
aa(lp235
I12034
aI1
aa(lp236
I12034
aI2
aa(lp237
I12398
aI2
aa(lp238
I12398
aI3
aa(lp239
I12409
aI0
aa(lp240
I12409
aI1
aa(lp241
I12409
aI2
aa(lp242
I12409
aI3
aa(lp243
I12409
aI4
aa(lp244
I12452
aI2
aa(lp245
I12708
aI4
aa(lp246
I12802
aI1
aa(lp247
I12802
aI3
aa(lp248
I12864
aI1
aa(lp249
I12902
aI1
aa(lp250
I12902
aI2
aa(lp251
I12902
aI3
aa(lp252
I12902
aI4
aa(lp253
I13019
aI0
aa(lp254
I13019
aI4
aa(lp255
I13042
aI1
aa(lp256
I13042
aI2
aa(lp257
I13055
aI2
aa(lp258
I13055
aI4
aa(lp259
I13084
aI1
aa(lp260
I13084
aI2
aa(lp261
I13084
aI3
aa(lp262
I13084
aI4
aa(lp263
I13098
aI2
aa(lp264
I13098
aI4
aa(lp265
I13186
aI0
aa(lp266
I13186
aI3
aa(lp267
I13186
aI4
aa(lp268
I13367
aI4
aa(lp269
I13384
aI1
aa(lp270
I13384
aI2
aa(lp271
I13384
aI3
aa(lp272
I13384
aI4
aa(lp273
I13406
aI0
aa(lp274
I13436
aI2
aa(lp275
I13782
aI1
aa(lp276
I13825
aI1
aa(lp277
I13847
aI2
aa(lp278
I13847
aI3
aa(lp279
I13847
aI4
aa(lp280
I13994
aI4
aa(lp281
I14028
aI1
aa(lp282
I14164
aI3
aa(lp283
I14178
aI0
aa(lp284
I14178
aI1
aa(lp285
I14178
aI2
aa(lp286
I14178
aI4
aa(lp287
I14301
aI0
aa(lp288
I14301
aI1
aa(lp289
I14301
aI2
aa(lp290
I14383
aI2
aa(lp291
I14549
aI0
aa(lp292
I14549
aI1
aa(lp293
I14549
aI2
aa(lp294
I14617
aI0
aa(lp295
I14617
aI3
aa(lp296
I14632
aI0
aa(lp297
I14632
aI2
aa(lp298
I14632
aI4
aa(lp299
I14664
aI0
aa(lp300
I14664
aI1
aa(lp301
I14788
aI0
aa(lp302
I14788
aI1
aa(lp303
I14788
aI2
aa(lp304
I14986
aI0
aa(lp305
I14986
aI2
aa(lp306
I14986
aI3
aa(lp307
I14986
aI4
aa(lp308
I15162
aI4
aa(lp309
I15393
aI0
aa(lp310
I15466
aI1
aa(lp311
I15466
aI2
aa(lp312
I15466
aI4
aa(lp313
I15774
aI3
aa(lp314
I15806
aI0
aa(lp315
I15902
aI2
aa(lp316
I15902
aI3
aa(lp317
I15933
aI0
aa(lp318
I15933
aI1
aa(lp319
I15933
aI3
aa(lp320
I15933
aI4
aa(lp321
I16151
aI1
aa(lp322
I16151
aI4
aa(lp323
I16217
aI1
aa(lp324
I16217
aI2
aa(lp325
I16400
aI3
aa(lp326
I16542
aI2
aa(lp327
I16542
aI4
aa(lp328
I16717
aI1
aa(lp329
I16741
aI2
aa(lp330
I16741
aI4
aa(lp331
I16842
aI1
aa(lp332
I16842
aI3
aa(lp333
I16999
aI1
aa(lp334
I16999
aI2
aa(lp335
I16999
aI3
aa(lp336
I17368
aI0
aa(lp337
I17382
aI0
aa(lp338
I17382
aI1
aa(lp339
I17382
aI4
aa(lp340
I17414
aI4
aa(lp341
I17436
aI0
aa(lp342
I17436
aI2
aa(lp343
I17528
aI0
aa(lp344
I17528
aI2
aa(lp345
I17528
aI3
aa(lp346
I17528
aI4
aa(lp347
I17719
aI2
aa(lp348
I17779
aI0
aa(lp349
I17779
aI2
aa(lp350
I17779
aI3
aa(lp351
I17891
aI0
aa(lp352
I17891
aI2
aa(lp353
I17899
aI0
aa(lp354
I17899
aI1
aa(lp355
I17899
aI3
aa(lp356
I17899
aI4
aa(lp357
I17930
aI2
aa(lp358
I17930
aI3
aa(lp359
I17930
aI4
aa(lp360
I18010
aI1
aa(lp361
I18010
aI3
aa(lp362
I18010
aI4
aa(lp363
I18023
aI1
aa(lp364
I18023
aI2
aa(lp365
I18023
aI4
aa(lp366
I18078
aI1
aa(lp367
I18078
aI4
aa(lp368
I18134
aI1
aa(lp369
I18134
aI4
aa(lp370
I18142
aI0
aa(lp371
I18142
aI4
aa(lp372
I18160
aI4
aa(lp373
I18235
aI1
aa(lp374
I18408
aI0
aa(lp375
I18408
aI2
aa(lp376
I18408
aI3
aa(lp377
I18491
aI1
aa(lp378
I18827
aI0
aa(lp379
I18827
aI1
aa(lp380
I18827
aI3
aa(lp381
I18827
aI4
aa(lp382
I18917
aI0
aa(lp383
I18917
aI2
aa(lp384
I18917
aI4
aa(lp385
I19030
aI0
aa(lp386
I19030
aI1
aa(lp387
I19030
aI3
aa(lp388
I19030
aI4
aa(lp389
I19032
aI1
aa(lp390
I19160
aI1
aa(lp391
I19160
aI2
aa(lp392
I19160
aI4
aa(lp393
I19182
aI0
aa(lp394
I19182
aI1
aa(lp395
I19182
aI2
aa(lp396
I19182
aI4
aa(lp397
I19327
aI0
aa(lp398
I19327
aI1
aa(lp399
I19327
aI3
aa(lp400
I19327
aI4
aa(lp401
I19500
aI2
aa(lp402
I19500
aI3
aa(lp403
I19500
aI4
aa(lp404
I19594
aI0
aa(lp405
I19594
aI1
aa(lp406
I19594
aI2
aa(lp407
I19594
aI3
aa(lp408
I19594
aI4
aa(lp409
I19628
aI0
aa(lp410
I19628
aI2
aa(lp411
I19628
aI4
aa(lp412
I19692
aI1
aa(lp413
I19692
aI4
aa(lp414
I19845
aI4
aa(lp415
I20094
aI1
aa(lp416
I20147
aI0
aa(lp417
I20200
aI1
aa(lp418
I20200
aI4
aa(lp419
I20234
aI4
aa(lp420
I20333
aI1
aa(lp421
I20333
aI2
aa(lp422
I20333
aI3
aa(lp423
I20343
aI1
aa(lp424
I20343
aI2
aa(lp425
I20343
aI3
aa(lp426
I20418
aI1
aa(lp427
I20418
aI4
aa(lp428
I20561
aI2
aa(lp429
I20781
aI1
aa(lp430
I20781
aI4
aa(lp431
I20836
aI0
aa(lp432
I20836
aI1
aa(lp433
I20836
aI2
aa(lp434
I20836
aI3
aa(lp435
I21109
aI0
aa(lp436
I21109
aI1
aa(lp437
I21109
aI3
aa(lp438
I21192
aI4
aa(lp439
I21292
aI1
aa(lp440
I21292
aI3
aa(lp441
I21292
aI4
aa(lp442
I21295
aI0
aa(lp443
I21295
aI1
aa(lp444
I21295
aI2
aa(lp445
I21295
aI3
aa(lp446
I21295
aI4
aa(lp447
I21331
aI0
aa(lp448
I21331
aI4
aa(lp449
I21353
aI2
aa(lp450
I21438
aI4
aa(lp451
I21481
aI2
aa(lp452
I21522
aI1
aa(lp453
I21522
aI2
aa(lp454
I21522
aI3
aa(lp455
I21555
aI0
aa(lp456
I21555
aI1
aa(lp457
I21555
aI3
aa(lp458
I21626
aI0
aa(lp459
I21626
aI4
aa(lp460
I21675
aI0
aa(lp461
I21675
aI2
aa(lp462
I21675
aI4
aa(lp463
I21799
aI0
aa(lp464
I21916
aI4
aa(lp465
I21977
aI1
aa(lp466
I21977
aI2
aa(lp467
I22072
aI0
aa(lp468
I22072
aI1
aa(lp469
I22072
aI2
aa(lp470
I22072
aI3
aa(lp471
I22092
aI0
aa(lp472
I22092
aI1
aa(lp473
I22092
aI2
aa(lp474
I22092
aI3
aa(lp475
I22092
aI4
aa(lp476
I22195
aI0
aa(lp477
I22195
aI2
aa(lp478
I22195
aI3
aa(lp479
I22195
aI4
aa(lp480
I22299
aI4
aa(lp481
I22333
aI2
aa(lp482
I22333
aI3
aa(lp483
I22333
aI4
aa(lp484
I22414
aI0
aa(lp485
I22496
aI0
aa(lp486
I22496
aI1
aa(lp487
I22496
aI2
aa(lp488
I22496
aI4
aa(lp489
I22535
aI0
aa(lp490
I22535
aI1
aa(lp491
I22535
aI3
aa(lp492
I22535
aI4
aa(lp493
I22538
aI0
aa(lp494
I22538
aI1
aa(lp495
I22538
aI2
aa(lp496
I22538
aI3
aa(lp497
I22538
aI4
aa(lp498
I22693
aI0
aa(lp499
I22693
aI1
aa(lp500
I22693
aI2
aa(lp501
I22693
aI4
aa(lp502
I22963
aI1
aa(lp503
I23131
aI0
aa(lp504
I23131
aI3
aa(lp505
I23455
aI2
aa(lp506
I23455
aI3
aa(lp507
I23573
aI4
aa(lp508
I23624
aI0
aa(lp509
I23624
aI1
aa(lp510
I23624
aI2
aa(lp511
I23624
aI3
aa(lp512
I23624
aI4
aa(lp513
I23732
aI2
aa(lp514
I23732
aI3
aa(lp515
I23732
aI4
aa(lp516
I23897
aI1
aa(lp517
I23992
aI2
aa(lp518
I24065
aI2
aa(lp519
I24065
aI3
aa(lp520
I24147
aI4
aa(lp521
I24174
aI0
aa(lp522
I24292
aI0
aa(lp523
I24297
aI0
aa(lp524
I24297
aI2
aa(lp525
I24297
aI4
aa(lp526
I24341
aI1
aa(lp527
I24341
aI3
aa(lp528
I24506
aI1
aa(lp529
I24515
aI0
aa(lp530
I24515
aI2
aa(lp531
I24515
aI3
aa(lp532
I24515
aI4
aa(lp533
I25169
aI1
aa(lp534
I25388
aI0
aa(lp535
I25388
aI1
aa(lp536
I25388
aI4
aa(lp537
I25465
aI0
aa(lp538
I25465
aI3
aa(lp539
I25499
aI1
aa(lp540
I25627
aI0
aa(lp541
I25627
aI2
aa(lp542
I25650
aI3
aa(lp543
I25679
aI0
aa(lp544
I25679
aI2
aa(lp545
I25679
aI3
aa(lp546
I25905
aI1
aa(lp547
I25905
aI2
aa(lp548
I25905
aI3
aa(lp549
I25905
aI4
aa(lp550
I25914
aI0
aa(lp551
I25914
aI1
aa(lp552
I25914
aI2
aa(lp553
I25914
aI3
aa(lp554
I25914
aI4
aa(lp555
I25918
aI0
aa(lp556
I25918
aI2
aa(lp557
I25918
aI3
aa(lp558
I26034
aI0
aa(lp559
I26034
aI2
aa(lp560
I26081
aI0
aa(lp561
I26081
aI2
aa(lp562
I26081
aI3
aa(lp563
I26248
aI2
aa(lp564
I26248
aI3
aa(lp565
I26266
aI0
aa(lp566
I26266
aI2
aa(lp567
I26410
aI1
aa(lp568
I26512
aI3
aa(lp569
I26602
aI0
aa(lp570
I26602
aI1
aa(lp571
I26602
aI2
aa(lp572
I26602
aI3
aa(lp573
I26602
aI4
aa(lp574
I26692
aI4
aa(lp575
I26737
aI3
aa(lp576
I27044
aI2
aa(lp577
I27044
aI4
aa(lp578
I27518
aI1
aa(lp579
I27518
aI2
aa(lp580
I27518
aI3
aa(lp581
I27518
aI4
aa(lp582
I27577
aI3
aa(lp583
I27773
aI2
aa(lp584
I27909
aI0
aa(lp585
I27909
aI1
aa(lp586
I27909
aI2
aa(lp587
I27909
aI3
aa(lp588
I27909
aI4
aa(lp589
I27919
aI3
aa(lp590
I27919
aI4
aa(lp591
I28101
aI2
aa(lp592
I28101
aI4
aa(lp593
I28322
aI4
aa(lp594
I28357
aI0
aa(lp595
I28357
aI1
aa(lp596
I28357
aI2
aa(lp597
I28467
aI1
aa(lp598
I28467
aI4
aa(lp599
I28778
aI2
aa(lp600
I28778
aI3
aa(lp601
I28778
aI4
aa(lp602
I28785
aI1
aa(lp603
I28785
aI2
aa(lp604
I28785
aI3
aa(lp605
I28888
aI0
aa(lp606
I28888
aI1
aa(lp607
I29001
aI1
aa(lp608
I29001
aI4
aa(lp609
I29232
aI0
aa(lp610
I29232
aI1
aa(lp611
I29232
aI2
aa(lp612
I29232
aI3
aa(lp613
I29321
aI3
aa(lp614
I29321
aI4
aa(lp615
I29412
aI1
aa(lp616
I29412
aI4
aa(lp617
I29418
aI0
aa(lp618
I29418
aI2
aa(lp619
I29418
aI4
aa(lp620
I29777
aI0
aa(lp621
I29777
aI1
aa(lp622
I29777
aI2
aa(lp623
I29777
aI3
aa(lp624
I29777
aI4
aa(lp625
I29856
aI0
aa(lp626
I29856
aI1
aa(lp627
I29856
aI2
aa(lp628
I29856
aI3
aa(lp629
I29856
aI4
aa(lp630
I29889
aI0
aa(lp631
I29979
aI1
aa(lp632
I29979
aI3
aa(lp633
I29979
aI4
aa(lp634
I29993
aI1
aa(lp635
I30339
aI3
aa(lp636
I30339
aI4
aa(lp637
I30398
aI0
aa(lp638
I30398
aI3
aa(lp639
I30404
aI4
aa(lp640
I30640
aI1
aa(lp641
I30640
aI3
aa(lp642
I30695
aI0
aa(lp643
I30695
aI3
aa(lp644
I30731
aI1
aa(lp645
I30808
aI0
aa(lp646
I30808
aI1
aa(lp647
I30808
aI2
aa(lp648
I30808
aI3
aa(lp649
I30808
aI4
aa(lp650
I30832
aI4
aa(lp651
I30906
aI0
aa(lp652
I30906
aI1
aa(lp653
I30906
aI2
aa(lp654
I31039
aI0
aa(lp655
I31039
aI3
aa(lp656
I31160
aI4
aa(lp657
I31248
aI4
aa(lp658
I31324
aI4
aa(lp659
I31477
aI1
aa(lp660
I31477
aI2
aa(lp661
I31477
aI3
aa(lp662
I31477
aI4
aa(lp663
I31495
aI4
aa(lp664
I31518
aI0
aa(lp665
I31518
aI1
aa(lp666
I31518
aI2
aa(lp667
I31518
aI4
aa(lp668
I31521
aI1
aa(lp669
I31521
aI4
aa(lp670
I31559
aI1
aa(lp671
I31559
aI2
aa(lp672
I31559
aI4
aa(lp673
I31589
aI1
aa(lp674
I31589
aI2
aa(lp675
I31589
aI4
aa(lp676
I31624
aI1
aa(lp677
I31624
aI2
aa(lp678
I31624
aI3
aa(lp679
I31624
aI4
aa(lp680
I31720
aI0
aa(lp681
I31720
aI2
aa(lp682
I31720
aI3
aa(lp683
I31741
aI2
aa(lp684
I32056
aI0
aa(lp685
I32228
aI0
aa(lp686
I32228
aI1
aa(lp687
I32228
aI3
aa(lp688
I32228
aI4
aa(lp689
I32608
aI3
aa(lp690
I32608
aI4
aa(lp691
I32710
aI0
aa(lp692
I32755
aI1
aa(lp693
I32755
aI4
aa(lp694
I32913
aI0
aa(lp695
I32913
aI2
aa(lp696
I32913
aI3
aa(lp697
I33073
aI0
aa(lp698
I33073
aI1
aa(lp699
I33073
aI2
aa(lp700
I33073
aI3
aa(lp701
I33073
aI4
aa(lp702
I33163
aI3
aa(lp703
I33189
aI1
aa(lp704
I33189
aI3
aa(lp705
I33564
aI0
aa(lp706
I33564
aI1
aa(lp707
I33564
aI3
aa(lp708
I33564
aI4
aa(lp709
I33572
aI0
aa(lp710
I33572
aI1
aa(lp711
I33572
aI2
aa(lp712
I33572
aI3
aa(lp713
I33572
aI4
aa(lp714
I33593
aI2
aa(lp715
I33593
aI4
aa(lp716
I33597
aI0
aa(lp717
I33597
aI3
aa(lp718
I33804
aI2
aa(lp719
I33804
aI3
aa(lp720
I33813
aI1
aa(lp721
I33813
aI3
aa(lp722
I33826
aI1
aa(lp723
I33826
aI2
aa(lp724
I33826
aI3
aa(lp725
I33833
aI0
aa(lp726
I33833
aI1
aa(lp727
I33833
aI2
aa(lp728
I33910
aI0
aa(lp729
I33910
aI2
aa(lp730
I33910
aI3
aa(lp731
I33910
aI4
aa(lp732
I34161
aI1
aa(lp733
I34339
aI3
aa(lp734
I34339
aI4
aa(lp735
I34344
aI1
aa(lp736
I34344
aI3
aa(lp737
I34344
aI4
aa(lp738
I34495
aI3
aa(lp739
I34607
aI0
aa(lp740
I34607
aI2
aa(lp741
I34637
aI3
aa(lp742
I34637
aI4
aa(lp743
I34641
aI0
aa(lp744
I34641
aI3
aa(lp745
I34672
aI0
aa(lp746
I34672
aI1
aa(lp747
I34672
aI3
aa(lp748
I34672
aI4
aa(lp749
I34768
aI1
aa(lp750
I35268
aI1
aa(lp751
I35278
aI1
aa(lp752
I35395
aI0
aa(lp753
I35395
aI3
aa(lp754
I35410
aI1
aa(lp755
I35410
aI3
aa(lp756
I35410
aI4
aa(lp757
I35456
aI3
aa(lp758
I35578
aI1
aa(lp759
I35578
aI3
aa(lp760
I35959
aI3
aa(lp761
I35987
aI0
aa(lp762
I35987
aI1
aa(lp763
I35987
aI2
aa(lp764
I35987
aI3
aa(lp765
I35987
aI4
aa(lp766
I36096
aI0
aa(lp767
I36096
aI2
aa(lp768
I36096
aI3
aa(lp769
I36213
aI3
aa(lp770
I36276
aI0
aa(lp771
I36276
aI1
aa(lp772
I36276
aI2
aa(lp773
I36276
aI3
aa(lp774
I36276
aI4
aa(lp775
I36346
aI1
aa(lp776
I36346
aI3
aa(lp777
I36430
aI4
aa(lp778
I36678
aI4
aa(lp779
I36782
aI0
aa(lp780
I36782
aI1
aa(lp781
I36782
aI3
aa(lp782
I36782
aI4
aa(lp783
I36895
aI1
aa(lp784
I36895
aI4
aa(lp785
I37009
aI2
aa(lp786
I37027
aI0
aa(lp787
I37027
aI1
aa(lp788
I37027
aI2
aa(lp789
I37027
aI3
aa(lp790
I37027
aI4
aa(lp791
I37108
aI3
aa(lp792
I37340
aI0
aa(lp793
I37340
aI1
aa(lp794
I37340
aI2
aa(lp795
I37340
aI3
aa(lp796
I37340
aI4
aa(lp797
I37677
aI1
aa(lp798
I37824
aI1
aa(lp799
I37824
aI3
aa(lp800
I37951
aI0
aa(lp801
I37951
aI1
aa(lp802
I37951
aI2
aa(lp803
I37972
aI1
aa(lp804
I37972
aI2
aa(lp805
I37972
aI3
aa(lp806
I37972
aI4
aa(lp807
I37974
aI0
aa(lp808
I37974
aI2
aa(lp809
I37974
aI3
aa(lp810
I38137
aI2
aa(lp811
I38478
aI0
aa(lp812
I38478
aI2
aa(lp813
I38478
aI4
aa(lp814
I38559
aI0
aa(lp815
I38559
aI1
aa(lp816
I38559
aI2
aa(lp817
I38559
aI3
aa(lp818
I38718
aI4
aa(lp819
I38843
aI1
aa(lp820
I38843
aI2
aa(lp821
I38843
aI3
aa(lp822
I38843
aI4
aa(lp823
I39015
aI1
aa(lp824
I39226
aI0
aa(lp825
I39226
aI1
aa(lp826
I39226
aI2
aa(lp827
I39226
aI4
aa(lp828
I39517
aI1
aa(lp829
I39517
aI2
aa(lp830
I39517
aI3
aa(lp831
I39517
aI4
aa(lp832
I39636
aI3
aa(lp833
I39681
aI0
aa(lp834
I39681
aI4
aa(lp835
I39766
aI4
aa(lp836
I40014
aI1
aa(lp837
I40014
aI4
aa(lp838
I40023
aI4
aa(lp839
I40108
aI1
aa(lp840
I40108
aI2
aa.