(lp0
(lp1
I31
aI0
aa(lp2
I351
aI1
aa(lp3
I351
aI4
aa(lp4
I643
aI4
aa(lp5
I849
aI2
aa(lp6
I966
aI1
aa(lp7
I1155
aI1
aa(lp8
I1174
aI2
aa(lp9
I1213
aI1
aa(lp10
I1213
aI4
aa(lp11
I1501
aI1
aa(lp12
I1501
aI2
aa(lp13
I1693
aI2
aa(lp14
I1693
aI4
aa(lp15
I1853
aI1
aa(lp16
I1853
aI2
aa(lp17
I1853
aI3
aa(lp18
I1914
aI1
aa(lp19
I1914
aI2
aa(lp20
I1914
aI3
aa(lp21
I1934
aI3
aa(lp22
I1934
aI4
aa(lp23
I1979
aI3
aa(lp24
I2156
aI1
aa(lp25
I2156
aI3
aa(lp26
I2388
aI0
aa(lp27
I2388
aI1
aa(lp28
I2388
aI2
aa(lp29
I2388
aI3
aa(lp30
I2549
aI0
aa(lp31
I2549
aI1
aa(lp32
I2549
aI3
aa(lp33
I2819
aI3
aa(lp34
I2829
aI3
aa(lp35
I2888
aI1
aa(lp36
I2888
aI3
aa(lp37
I2888
aI4
aa(lp38
I2917
aI2
aa(lp39
I3352
aI0
aa(lp40
I3532
aI3
aa(lp41
I3540
aI1
aa(lp42
I3693
aI1
aa(lp43
I3966
aI1
aa(lp44
I3966
aI3
aa(lp45
I4032
aI3
aa(lp46
I4324
aI0
aa(lp47
I4324
aI2
aa(lp48
I4324
aI3
aa(lp49
I4324
aI4
aa(lp50
I4434
aI1
aa(lp51
I4462
aI2
aa(lp52
I4796
aI3
aa(lp53
I4845
aI0
aa(lp54
I4845
aI1
aa(lp55
I4845
aI2
aa(lp56
I4936
aI2
aa(lp57
I4952
aI2
aa(lp58
I5046
aI0
aa(lp59
I5115
aI1
aa(lp60
I5436
aI1
aa(lp61
I5806
aI4
aa(lp62
I5885
aI0
aa(lp63
I5885
aI1
aa(lp64
I5940
aI1
aa(lp65
I5944
aI1
aa(lp66
I5944
aI4
aa(lp67
I6132
aI1
aa(lp68
I6132
aI2
aa(lp69
I6132
aI3
aa(lp70
I6556
aI1
aa(lp71
I7213
aI4
aa(lp72
I7630
aI3
aa(lp73
I8148
aI1
aa(lp74
I8148
aI3
aa(lp75
I8153
aI4
aa(lp76
I8340
aI3
aa(lp77
I8517
aI1
aa(lp78
I8573
aI0
aa(lp79
I8573
aI2
aa(lp80
I8573
aI3
aa(lp81
I8690
aI4
aa(lp82
I8918
aI1
aa(lp83
I8918
aI2
aa(lp84
I8966
aI2
aa(lp85
I9194
aI1
aa(lp86
I9194
aI2
aa(lp87
I9194
aI3
aa(lp88
I9194
aI4
aa(lp89
I9252
aI4
aa(lp90
I9414
aI4
aa(lp91
I9965
aI3
aa(lp92
I10269
aI0
aa(lp93
I10471
aI3
aa(lp94
I10507
aI2
aa(lp95
I11538
aI0
aa(lp96
I11538
aI3
aa(lp97
I11650
aI1
aa(lp98
I11650
aI2
aa(lp99
I11900
aI0
aa(lp100
I11900
aI2
aa(lp101
I11900
aI3
aa(lp102
I11900
aI4
aa(lp103
I11950
aI0
aa(lp104
I11950
aI3
aa(lp105
I11950
aI4
aa(lp106
I12137
aI1
aa(lp107
I12172
aI0
aa(lp108
I12732
aI4
aa(lp109
I12923
aI2
aa(lp110
I12997
aI3
aa(lp111
I13361
aI1
aa(lp112
I13367
aI3
aa(lp113
I13372
aI0
aa(lp114
I13372
aI2
aa(lp115
I13372
aI4
aa(lp116
I13653
aI1
aa(lp117
I13888
aI3
aa(lp118
I14029
aI1
aa(lp119
I14165
aI2
aa(lp120
I14455
aI1
aa(lp121
I14728
aI0
aa(lp122
I14728
aI4
aa(lp123
I14988
aI2
aa(lp124
I15064
aI0
aa(lp125
I15064
aI4
aa(lp126
I15369
aI1
aa(lp127
I15659
aI2
aa(lp128
I15687
aI2
aa(lp129
I15759
aI1
aa(lp130
I15788
aI3
aa(lp131
I15933
aI2
aa(lp132
I16018
aI1
aa(lp133
I16018
aI2
aa(lp134
I16141
aI1
aa(lp135
I16174
aI1
aa(lp136
I16174
aI3
aa(lp137
I16277
aI2
aa(lp138
I16277
aI3
aa(lp139
I16474
aI0
aa(lp140
I16474
aI2
aa(lp141
I16560
aI0
aa(lp142
I16751
aI0
aa(lp143
I16751
aI2
aa(lp144
I16852
aI0
aa(lp145
I16852
aI1
aa(lp146
I16930
aI3
aa(lp147
I17043
aI0
aa(lp148
I17043
aI1
aa(lp149
I17043
aI2
aa(lp150
I17719
aI1
aa(lp151
I17786
aI1
aa(lp152
I17786
aI2
aa(lp153
I17788
aI3
aa(lp154
I17936
aI0
aa(lp155
I17969
aI4
aa(lp156
I18334
aI2
aa(lp157
I18334
aI3
aa(lp158
I18653
aI0
aa(lp159
I18653
aI4
aa(lp160
I18965
aI2
aa(lp161
I19063
aI4
aa(lp162
I19276
aI1
aa(lp163
I19330
aI1
aa(lp164
I19731
aI1
aa(lp165
I20415
aI3
aa(lp166
I20646
aI3
aa(lp167
I20647
aI3
aa(lp168
I20701
aI4
aa(lp169
I20884
aI4
aa(lp170
I20894
aI0
aa(lp171
I20894
aI2
aa(lp172
I20968
aI1
aa(lp173
I21134
aI1
aa(lp174
I21134
aI4
aa(lp175
I21458
aI3
aa(lp176
I21589
aI0
aa(lp177
I21609
aI1
aa(lp178
I21675
aI2
aa(lp179
I22072
aI4
aa(lp180
I22177
aI3
aa(lp181
I22472
aI1
aa(lp182
I22507
aI4
aa(lp183
I22727
aI1
aa(lp184
I22727
aI2
aa(lp185
I22816
aI2
aa(lp186
I22863
aI4
aa(lp187
I22876
aI4
aa(lp188
I23667
aI0
aa(lp189
I23667
aI3
aa(lp190
I23667
aI4
aa(lp191
I23716
aI0
aa(lp192
I23716
aI4
aa(lp193
I23990
aI0
aa(lp194
I23990
aI1
aa(lp195
I23990
aI2
aa(lp196
I24103
aI2
aa(lp197
I24103
aI3
aa(lp198
I24336
aI3
aa(lp199
I24624
aI2
aa(lp200
I24735
aI0
aa(lp201
I24786
aI4
aa(lp202
I24806
aI3
aa(lp203
I24862
aI1
aa(lp204
I25286
aI0
aa(lp205
I25286
aI2
aa(lp206
I25286
aI4
aa(lp207
I25807
aI2
aa(lp208
I25899
aI2
aa(lp209
I26170
aI0
aa(lp210
I26170
aI1
aa(lp211
I26170
aI2
aa(lp212
I26170
aI3
aa(lp213
I26237
aI0
aa(lp214
I26237
aI4
aa(lp215
I26394
aI0
aa(lp216
I26394
aI3
aa(lp217
I26502
aI0
aa(lp218
I27121
aI0
aa(lp219
I27190
aI0
aa(lp220
I27287
aI4
aa(lp221
I27296
aI0
aa(lp222
I27296
aI1
aa(lp223
I27409
aI1
aa(lp224
I27456
aI4
aa(lp225
I27555
aI1
aa(lp226
I27574
aI1
aa(lp227
I27636
aI0
aa(lp228
I27653
aI0
aa(lp229
I27653
aI1
aa(lp230
I27653
aI2
aa(lp231
I27887
aI0
aa(lp232
I27887
aI2
aa(lp233
I27887
aI3
aa(lp234
I28124
aI2
aa(lp235
I28620
aI3
aa(lp236
I29249
aI0
aa(lp237
I29249
aI3
aa(lp238
I29249
aI4
aa(lp239
I29297
aI0
aa(lp240
I29297
aI1
aa(lp241
I29297
aI2
aa(lp242
I29297
aI3
aa(lp243
I29297
aI4
aa(lp244
I29454
aI0
aa(lp245
I29454
aI2
aa(lp246
I29761
aI1
aa(lp247
I29761
aI2
aa(lp248
I29876
aI1
aa(lp249
I29876
aI3
aa(lp250
I29884
aI1
aa(lp251
I29913
aI4
aa(lp252
I29979
aI2
aa(lp253
I29993
aI0
aa(lp254
I30144
aI1
aa(lp255
I30411
aI4
aa(lp256
I30820
aI4
aa(lp257
I30959
aI4
aa(lp258
I31091
aI2
aa(lp259
I31177
aI3
aa(lp260
I31177
aI4
aa(lp261
I31477
aI0
aa(lp262
I31477
aI4
aa(lp263
I31709
aI3
aa(lp264
I32244
aI2
aa(lp265
I32324
aI2
aa(lp266
I32470
aI4
aa(lp267
I32511
aI4
aa(lp268
I32556
aI1
aa(lp269
I32561
aI0
aa(lp270
I32699
aI1
aa(lp271
I32911
aI2
aa(lp272
I32925
aI0
aa(lp273
I33042
aI4
aa(lp274
I33511
aI2
aa(lp275
I33666
aI2
aa(lp276
I33666
aI3
aa(lp277
I33683
aI1
aa(lp278
I33704
aI2
aa(lp279
I34221
aI1
aa(lp280
I34227
aI3
aa(lp281
I34718
aI1
aa(lp282
I34718
aI3
aa(lp283
I34745
aI4
aa(lp284
I34754
aI1
aa(lp285
I34906
aI4
aa(lp286
I35223
aI0
aa(lp287
I35223
aI3
aa(lp288
I35223
aI4
aa(lp289
I35276
aI0
aa(lp290
I35447
aI2
aa(lp291
I35447
aI3
aa(lp292
I35447
aI4
aa(lp293
I35577
aI0
aa(lp294
I35577
aI3
aa(lp295
I35605
aI0
aa(lp296
I35605
aI1
aa(lp297
I35605
aI2
aa(lp298
I35605
aI3
aa(lp299
I35605
aI4
aa(lp300
I35874
aI4
aa(lp301
I36213
aI1
aa(lp302
I36213
aI2
aa(lp303
I36284
aI1
aa(lp304
I36284
aI3
aa(lp305
I36507
aI1
aa(lp306
I36551
aI3
aa(lp307
I36599
aI4
aa(lp308
I36610
aI0
aa(lp309
I36610
aI1
aa(lp310
I36610
aI2
aa(lp311
I36610
aI4
aa(lp312
I36709
aI0
aa(lp313
I36709
aI3
aa(lp314
I36709
aI4
aa(lp315
I36780
aI1
aa(lp316
I36780
aI2
aa(lp317
I36780
aI4
aa(lp318
I37075
aI3
aa(lp319
I37131
aI2
aa(lp320
I37226
aI0
aa(lp321
I37228
aI2
aa(lp322
I37338
aI1
aa(lp323
I37648
aI2
aa(lp324
I37648
aI3
aa(lp325
I37648
aI4
aa(lp326
I37672
aI0
aa(lp327
I37672
aI1
aa(lp328
I37730
aI0
aa(lp329
I37750
aI2
aa(lp330
I37762
aI4
aa(lp331
I37853
aI1
aa(lp332
I37853
aI3
aa(lp333
I37918
aI0
aa(lp334
I38235
aI0
aa(lp335
I38235
aI2
aa(lp336
I38235
aI3
aa(lp337
I38235
aI4
aa(lp338
I38256
aI1
aa(lp339
I38256
aI2
aa(lp340
I38323
aI2
aa(lp341
I38323
aI3
aa(lp342
I38323
aI4
aa(lp343
I38446
aI2
aa(lp344
I38598
aI0
aa(lp345
I38623
aI0
aa(lp346
I38623
aI3
aa(lp347
I38623
aI4
aa(lp348
I38702
aI4
aa(lp349
I38825
aI4
aa(lp350
I38903
aI2
aa(lp351
I39138
aI3
aa(lp352
I39402
aI1
aa(lp353
I39402
aI2
aa(lp354
I39402
aI3
aa(lp355
I39402
aI4
aa(lp356
I39438
aI4
aa(lp357
I39485
aI0
aa(lp358
I39485
aI2
aa(lp359
I39710
aI2
aa(lp360
I39831
aI0
aa(lp361
I40109
aI0
aa(lp362
I40109
aI2
aa(lp363
I40109
aI4
aa.