(lp0
(lp1
I126
aI3
aa(lp2
I144
aI1
aa(lp3
I189
aI3
aa(lp4
I286
aI0
aa(lp5
I286
aI1
aa(lp6
I286
aI4
aa(lp7
I321
aI0
aa(lp8
I321
aI2
aa(lp9
I321
aI4
aa(lp10
I352
aI3
aa(lp11
I575
aI0
aa(lp12
I575
aI1
aa(lp13
I575
aI2
aa(lp14
I575
aI3
aa(lp15
I584
aI4
aa(lp16
I657
aI2
aa(lp17
I730
aI2
aa(lp18
I826
aI4
aa(lp19
I846
aI0
aa(lp20
I846
aI2
aa(lp21
I846
aI3
aa(lp22
I884
aI2
aa(lp23
I884
aI3
aa(lp24
I963
aI3
aa(lp25
I963
aI4
aa(lp26
I973
aI4
aa(lp27
I1010
aI0
aa(lp28
I1133
aI3
aa(lp29
I1363
aI4
aa(lp30
I1454
aI0
aa(lp31
I1454
aI2
aa(lp32
I1454
aI3
aa(lp33
I1454
aI4
aa(lp34
I1498
aI1
aa(lp35
I1498
aI2
aa(lp36
I1702
aI1
aa(lp37
I1702
aI3
aa(lp38
I1702
aI4
aa(lp39
I1738
aI3
aa(lp40
I1857
aI1
aa(lp41
I1982
aI1
aa(lp42
I2026
aI0
aa(lp43
I2026
aI2
aa(lp44
I2193
aI0
aa(lp45
I2193
aI2
aa(lp46
I2193
aI3
aa(lp47
I2646
aI0
aa(lp48
I2677
aI1
aa(lp49
I2677
aI3
aa(lp50
I2677
aI4
aa(lp51
I2748
aI0
aa(lp52
I2748
aI2
aa(lp53
I2748
aI4
aa(lp54
I2822
aI3
aa(lp55
I2822
aI4
aa(lp56
I2957
aI1
aa(lp57
I3228
aI3
aa(lp58
I3348
aI1
aa(lp59
I3348
aI2
aa(lp60
I3348
aI4
aa(lp61
I3560
aI3
aa(lp62
I3609
aI1
aa(lp63
I3609
aI4
aa(lp64
I3649
aI2
aa(lp65
I3865
aI3
aa(lp66
I3865
aI4
aa(lp67
I4123
aI0
aa(lp68
I4123
aI4
aa(lp69
I4461
aI1
aa(lp70
I4488
aI3
aa(lp71
I4682
aI2
aa(lp72
I4682
aI4
aa(lp73
I4689
aI0
aa(lp74
I4689
aI1
aa(lp75
I4689
aI2
aa(lp76
I4689
aI4
aa(lp77
I4868
aI1
aa(lp78
I4868
aI2
aa(lp79
I4868
aI4
aa(lp80
I4876
aI2
aa(lp81
I4876
aI3
aa(lp82
I4878
aI0
aa(lp83
I4909
aI1
aa(lp84
I5030
aI0
aa(lp85
I5060
aI1
aa(lp86
I5060
aI2
aa(lp87
I5060
aI3
aa(lp88
I5078
aI0
aa(lp89
I5078
aI1
aa(lp90
I5078
aI2
aa(lp91
I5078
aI3
aa(lp92
I5363
aI2
aa(lp93
I5363
aI4
aa(lp94
I5525
aI1
aa(lp95
I5888
aI1
aa(lp96
I5888
aI2
aa(lp97
I6230
aI0
aa(lp98
I6230
aI1
aa(lp99
I6435
aI1
aa(lp100
I6591
aI3
aa(lp101
I6694
aI4
aa(lp102
I6740
aI4
aa(lp103
I6845
aI1
aa(lp104
I6913
aI1
aa(lp105
I6939
aI3
aa(lp106
I7012
aI4
aa(lp107
I7701
aI4
aa(lp108
I7747
aI0
aa(lp109
I7747
aI1
aa(lp110
I7747
aI2
aa(lp111
I7765
aI1
aa(lp112
I7765
aI2
aa(lp113
I7765
aI4
aa(lp114
I8251
aI0
aa(lp115
I8251
aI1
aa(lp116
I8251
aI2
aa(lp117
I8251
aI4
aa(lp118
I8719
aI0
aa(lp119
I8719
aI2
aa(lp120
I8726
aI4
aa(lp121
I8764
aI1
aa(lp122
I8815
aI1
aa(lp123
I8815
aI2
aa(lp124
I8815
aI3
aa(lp125
I8820
aI1
aa(lp126
I8916
aI2
aa(lp127
I9308
aI1
aa(lp128
I9412
aI1
aa(lp129
I9423
aI1
aa(lp130
I9423
aI2
aa(lp131
I9423
aI3
aa(lp132
I9423
aI4
aa(lp133
I9446
aI0
aa(lp134
I9475
aI1
aa(lp135
I9661
aI0
aa(lp136
I9661
aI1
aa(lp137
I9661
aI3
aa(lp138
I9729
aI1
aa(lp139
I9731
aI1
aa(lp140
I9731
aI3
aa(lp141
I9742
aI0
aa(lp142
I9742
aI1
aa(lp143
I9742
aI2
aa(lp144
I9742
aI3
aa(lp145
I9838
aI1
aa(lp146
I10101
aI0
aa(lp147
I10127
aI2
aa(lp148
I10263
aI0
aa(lp149
I10263
aI3
aa(lp150
I10263
aI4
aa(lp151
I10283
aI1
aa(lp152
I10283
aI2
aa(lp153
I10350
aI0
aa(lp154
I10350
aI1
aa(lp155
I10350
aI2
aa(lp156
I10350
aI3
aa(lp157
I10350
aI4
aa(lp158
I10380
aI3
aa(lp159
I10436
aI2
aa(lp160
I10495
aI1
aa(lp161
I10621
aI1
aa(lp162
I10621
aI2
aa(lp163
I10793
aI3
aa(lp164
I10793
aI4
aa(lp165
I10815
aI0
aa(lp166
I10815
aI1
aa(lp167
I10815
aI2
aa(lp168
I10815
aI3
aa(lp169
I10815
aI4
aa(lp170
I10926
aI2
aa(lp171
I10926
aI3
aa(lp172
I10926
aI4
aa(lp173
I11060
aI0
aa(lp174
I11060
aI3
aa(lp175
I11164
aI2
aa(lp176
I11257
aI1
aa(lp177
I11490
aI3
aa(lp178
I11643
aI3
aa(lp179
I11672
aI0
aa(lp180
I11672
aI1
aa(lp181
I11848
aI3
aa(lp182
I11918
aI2
aa(lp183
I11918
aI3
aa(lp184
I12031
aI3
aa(lp185
I12090
aI0
aa(lp186
I12139
aI2
aa(lp187
I12140
aI0
aa(lp188
I12146
aI4
aa(lp189
I12397
aI0
aa(lp190
I12397
aI1
aa(lp191
I12576
aI2
aa(lp192
I12584
aI0
aa(lp193
I12584
aI1
aa(lp194
I12584
aI3
aa(lp195
I12651
aI0
aa(lp196
I12651
aI1
aa(lp197
I12651
aI2
aa(lp198
I12651
aI4
aa(lp199
I12660
aI1
aa(lp200
I13038
aI2
aa(lp201
I13633
aI0
aa(lp202
I13633
aI1
aa(lp203
I13633
aI3
aa(lp204
I13678
aI1
aa(lp205
I13692
aI4
aa(lp206
I13803
aI0
aa(lp207
I13803
aI2
aa(lp208
I13884
aI1
aa(lp209
I13884
aI2
aa(lp210
I13884
aI3
aa(lp211
I14128
aI1
aa(lp212
I14149
aI0
aa(lp213
I14149
aI1
aa(lp214
I14149
aI2
aa(lp215
I14149
aI3
aa(lp216
I14149
aI4
aa(lp217
I14151
aI2
aa(lp218
I14155
aI3
aa(lp219
I14155
aI4
aa(lp220
I14210
aI1
aa(lp221
I14210
aI2
aa(lp222
I14210
aI4
aa(lp223
I14309
aI0
aa(lp224
I14541
aI0
aa(lp225
I14541
aI3
aa(lp226
I14541
aI4
aa(lp227
I14764
aI4
aa(lp228
I14772
aI1
aa(lp229
I14772
aI3
aa(lp230
I14782
aI2
aa(lp231
I14796
aI3
aa(lp232
I14905
aI1
aa(lp233
I15256
aI3
aa(lp234
I15306
aI2
aa(lp235
I15311
aI0
aa(lp236
I15366
aI0
aa(lp237
I15449
aI0
aa(lp238
I15449
aI1
aa(lp239
I15449
aI2
aa(lp240
I15449
aI3
aa(lp241
I15449
aI4
aa(lp242
I15463
aI4
aa(lp243
I15760
aI1
aa(lp244
I15760
aI3
aa(lp245
I15761
aI3
aa(lp246
I15797
aI2
aa(lp247
I16029
aI0
aa(lp248
I16029
aI3
aa(lp249
I16029
aI4
aa(lp250
I16142
aI0
aa(lp251
I16247
aI0
aa(lp252
I16247
aI2
aa(lp253
I16247
aI3
aa(lp254
I16531
aI0
aa(lp255
I16531
aI1
aa(lp256
I16531
aI2
aa(lp257
I16531
aI3
aa(lp258
I16598
aI0
aa(lp259
I16598
aI1
aa(lp260
I16598
aI2
aa(lp261
I16598
aI3
aa(lp262
I16598
aI4
aa(lp263
I16617
aI0
aa(lp264
I16685
aI3
aa(lp265
I16895
aI4
aa(lp266
I16947
aI1
aa(lp267
I16959
aI1
aa(lp268
I16959
aI2
aa(lp269
I16959
aI3
aa(lp270
I17341
aI0
aa(lp271
I17341
aI1
aa(lp272
I17341
aI3
aa(lp273
I17341
aI4
aa(lp274
I17384
aI1
aa(lp275
I17440
aI0
aa(lp276
I17440
aI2
aa(lp277
I17672
aI1
aa(lp278
I17672
aI2
aa(lp279
I17978
aI0
aa(lp280
I17978
aI2
aa(lp281
I17978
aI3
aa(lp282
I17978
aI4
aa(lp283
I18008
aI0
aa(lp284
I18008
aI3
aa(lp285
I18016
aI3
aa(lp286
I18180
aI4
aa(lp287
I18359
aI1
aa(lp288
I18393
aI0
aa(lp289
I18393
aI1
aa(lp290
I18393
aI4
aa(lp291
I18409
aI0
aa(lp292
I18409
aI3
aa(lp293
I18680
aI0
aa(lp294
I18680
aI1
aa(lp295
I18739
aI1
aa(lp296
I18877
aI0
aa(lp297
I18877
aI1
aa(lp298
I18877
aI2
aa(lp299
I18877
aI3
aa(lp300
I18877
aI4
aa(lp301
I18905
aI2
aa(lp302
I19165
aI3
aa(lp303
I19165
aI4
aa(lp304
I19370
aI2
aa(lp305
I19552
aI2
aa(lp306
I19558
aI1
aa(lp307
I19558
aI4
aa(lp308
I19703
aI1
aa(lp309
I19839
aI0
aa(lp310
I19881
aI3
aa(lp311
I19881
aI4
aa(lp312
I20028
aI2
aa(lp313
I20030
aI4
aa(lp314
I20121
aI1
aa(lp315
I20121
aI3
aa(lp316
I20208
aI0
aa(lp317
I20208
aI1
aa(lp318
I20208
aI2
aa(lp319
I20208
aI4
aa(lp320
I20354
aI2
aa(lp321
I20468
aI4
aa(lp322
I20501
aI4
aa(lp323
I20567
aI3
aa(lp324
I20708
aI0
aa(lp325
I20735
aI0
aa(lp326
I21210
aI1
aa(lp327
I21213
aI3
aa(lp328
I21270
aI2
aa(lp329
I21349
aI0
aa(lp330
I21349
aI3
aa(lp331
I21370
aI3
aa(lp332
I21376
aI3
aa(lp333
I21376
aI4
aa(lp334
I21408
aI1
aa(lp335
I21426
aI1
aa(lp336
I21426
aI2
aa(lp337
I21465
aI3
aa(lp338
I21747
aI0
aa(lp339
I21747
aI1
aa(lp340
I21747
aI2
aa(lp341
I21747
aI4
aa(lp342
I21863
aI0
aa(lp343
I21863
aI2
aa(lp344
I21863
aI3
aa(lp345
I21863
aI4
aa(lp346
I21885
aI1
aa(lp347
I21885
aI3
aa(lp348
I21891
aI2
aa(lp349
I21891
aI4
aa(lp350
I21920
aI1
aa(lp351
I21920
aI3
aa(lp352
I22050
aI1
aa(lp353
I22348
aI1
aa(lp354
I22408
aI3
aa(lp355
I22721
aI0
aa(lp356
I22721
aI4
aa(lp357
I23229
aI0
aa(lp358
I23229
aI2
aa(lp359
I23264
aI3
aa(lp360
I23301
aI4
aa(lp361
I23354
aI2
aa(lp362
I23354
aI3
aa(lp363
I23399
aI4
aa(lp364
I23419
aI4
aa(lp365
I23467
aI0
aa(lp366
I23467
aI3
aa(lp367
I23542
aI1
aa(lp368
I23542
aI2
aa(lp369
I23549
aI1
aa(lp370
I23549
aI3
aa(lp371
I23549
aI4
aa(lp372
I23735
aI1
aa(lp373
I23953
aI0
aa(lp374
I23953
aI2
aa(lp375
I23959
aI1
aa(lp376
I23959
aI4
aa(lp377
I24127
aI0
aa(lp378
I24127
aI2
aa(lp379
I24127
aI4
aa(lp380
I24134
aI0
aa(lp381
I24134
aI1
aa(lp382
I24134
aI2
aa(lp383
I24134
aI3
aa(lp384
I24158
aI1
aa(lp385
I24273
aI4
aa(lp386
I24324
aI0
aa(lp387
I24324
aI1
aa(lp388
I24324
aI2
aa(lp389
I24324
aI3
aa(lp390
I24324
aI4
aa(lp391
I24754
aI0
aa(lp392
I24754
aI1
aa(lp393
I24754
aI2
aa(lp394
I24754
aI4
aa(lp395
I24798
aI0
aa(lp396
I25180
aI1
aa(lp397
I25312
aI4
aa(lp398
I25409
aI1
aa(lp399
I25822
aI1
aa(lp400
I25822
aI4
aa(lp401
I25888
aI4
aa(lp402
I25976
aI0
aa(lp403
I25976
aI1
aa(lp404
I25976
aI3
aa(lp405
I25994
aI0
aa(lp406
I26157
aI1
aa(lp407
I26157
aI3
aa(lp408
I26341
aI0
aa(lp409
I26341
aI2
aa(lp410
I26341
aI4
aa(lp411
I26558
aI3
aa(lp412
I26773
aI3
aa(lp413
I26839
aI0
aa(lp414
I26839
aI1
aa(lp415
I26927
aI3
aa(lp416
I26938
aI2
aa(lp417
I26988
aI0
aa(lp418
I26988
aI1
aa(lp419
I26988
aI2
aa(lp420
I26988
aI4
aa(lp421
I27014
aI3
aa(lp422
I27280
aI0
aa(lp423
I27280
aI2
aa(lp424
I27280
aI4
aa(lp425
I27403
aI0
aa(lp426
I27403
aI1
aa(lp427
I27403
aI4
aa(lp428
I27423
aI4
aa(lp429
I27536
aI0
aa(lp430
I27536
aI2
aa(lp431
I27536
aI3
aa(lp432
I27866
aI2
aa(lp433
I27866
aI3
aa(lp434
I27866
aI4
aa(lp435
I27994
aI0
aa(lp436
I28129
aI2
aa(lp437
I28129
aI3
aa(lp438
I28129
aI4
aa(lp439
I28250
aI1
aa(lp440
I28411
aI2
aa(lp441
I28750
aI2
aa(lp442
I28898
aI0
aa(lp443
I29220
aI2
aa(lp444
I29220
aI3
aa(lp445
I29253
aI0
aa(lp446
I29433
aI1
aa(lp447
I29656
aI3
aa(lp448
I29796
aI4
aa(lp449
I29885
aI1
aa(lp450
I29885
aI4
aa(lp451
I29952
aI4
aa(lp452
I30242
aI0
aa(lp453
I30242
aI1
aa(lp454
I30242
aI2
aa(lp455
I30242
aI4
aa(lp456
I30388
aI2
aa(lp457
I30388
aI3
aa(lp458
I30388
aI4
aa(lp459
I30445
aI2
aa(lp460
I30445
aI4
aa(lp461
I30484
aI1
aa(lp462
I30484
aI4
aa(lp463
I30545
aI0
aa(lp464
I30641
aI1
aa(lp465
I30641
aI2
aa(lp466
I30642
aI0
aa(lp467
I30642
aI1
aa(lp468
I30642
aI3
aa(lp469
I30642
aI4
aa(lp470
I30921
aI2
aa(lp471
I30982
aI1
aa(lp472
I31323
aI3
aa(lp473
I31406
aI4
aa(lp474
I31418
aI4
aa(lp475
I31522
aI3
aa(lp476
I31568
aI1
aa(lp477
I31629
aI1
aa(lp478
I31759
aI4
aa(lp479
I31776
aI3
aa(lp480
I31818
aI2
aa(lp481
I31848
aI3
aa(lp482
I32066
aI1
aa(lp483
I32134
aI1
aa(lp484
I32134
aI2
aa(lp485
I32269
aI2
aa(lp486
I32269
aI4
aa(lp487
I32442
aI0
aa(lp488
I32477
aI2
aa(lp489
I32495
aI0
aa(lp490
I32495
aI1
aa(lp491
I32495
aI2
aa(lp492
I32495
aI3
aa(lp493
I32495
aI4
aa(lp494
I32611
aI0
aa(lp495
I32625
aI0
aa(lp496
I32708
aI4
aa(lp497
I32715
aI4
aa(lp498
I32726
aI0
aa(lp499
I33145
aI2
aa(lp500
I33187
aI3
aa(lp501
I33325
aI0
aa(lp502
I33325
aI2
aa(lp503
I33325
aI4
aa(lp504
I33452
aI0
aa(lp505
I33518
aI3
aa(lp506
I33518
aI4
aa(lp507
I33559
aI0
aa(lp508
I33749
aI3
aa(lp509
I33824
aI2
aa(lp510
I33903
aI1
aa(lp511
I34074
aI0
aa(lp512
I34074
aI3
aa(lp513
I34091
aI0
aa(lp514
I34091
aI1
aa(lp515
I34091
aI2
aa(lp516
I34091
aI4
aa(lp517
I34139
aI1
aa(lp518
I34330
aI0
aa(lp519
I34651
aI2
aa(lp520
I34780
aI3
aa(lp521
I34780
aI4
aa(lp522
I34807
aI4
aa(lp523
I34845
aI4
aa(lp524
I35100
aI1
aa(lp525
I35100
aI3
aa(lp526
I35100
aI4
aa(lp527
I35610
aI3
aa(lp528
I35637
aI4
aa(lp529
I35853
aI2
aa(lp530
I36172
aI0
aa(lp531
I36172
aI2
aa(lp532
I36172
aI3
aa(lp533
I36172
aI4
aa(lp534
I36300
aI2
aa(lp535
I36300
aI4
aa(lp536
I36398
aI1
aa(lp537
I36483
aI0
aa(lp538
I36483
aI1
aa(lp539
I36483
aI2
aa(lp540
I36483
aI3
aa(lp541
I36483
aI4
aa(lp542
I36574
aI1
aa(lp543
I36745
aI0
aa(lp544
I36745
aI1
aa(lp545
I36824
aI0
aa(lp546
I36904
aI1
aa(lp547
I36904
aI2
aa(lp548
I36965
aI1
aa(lp549
I37046
aI0
aa(lp550
I37046
aI4
aa(lp551
I37121
aI2
aa(lp552
I37186
aI2
aa(lp553
I37244
aI0
aa(lp554
I37244
aI1
aa(lp555
I37244
aI2
aa(lp556
I37244
aI4
aa(lp557
I37290
aI3
aa(lp558
I37364
aI3
aa(lp559
I37473
aI3
aa(lp560
I37803
aI2
aa(lp561
I37830
aI3
aa(lp562
I37896
aI1
aa(lp563
I37922
aI1
aa(lp564
I37922
aI2
aa(lp565
I37922
aI3
aa(lp566
I37922
aI4
aa(lp567
I37990
aI3
aa(lp568
I37996
aI0
aa(lp569
I37996
aI1
aa(lp570
I37996
aI2
aa(lp571
I37996
aI3
aa(lp572
I38054
aI1
aa(lp573
I38161
aI3
aa(lp574
I38161
aI4
aa(lp575
I38407
aI1
aa(lp576
I38407
aI2
aa(lp577
I38407
aI3
aa(lp578
I38508
aI4
aa(lp579
I38631
aI0
aa(lp580
I38631
aI2
aa(lp581
I38768
aI0
aa(lp582
I38924
aI4
aa(lp583
I38990
aI0
aa(lp584
I38990
aI1
aa(lp585
I38990
aI3
aa(lp586
I38990
aI4
aa(lp587
I39189
aI1
aa(lp588
I39189
aI2
aa(lp589
I39189
aI3
aa(lp590
I39593
aI3
aa(lp591
I39915
aI0
aa(lp592
I39917
aI0
aa(lp593
I40228
aI1
aa(lp594
I40228
aI2
aa(lp595
I40228
aI3
aa(lp596
I40260
aI0
aa(lp597
I40306
aI1
aa(lp598
I40306
aI2
aa(lp599
I40306
aI3
aa(lp600
I40306
aI4
aa(lp601
I40342
aI0
aa(lp602
I40387
aI2
aa(lp603
I40387
aI4
aa.