(lp0
(lp1
I171
aI0
aa(lp2
I171
aI1
aa(lp3
I171
aI2
aa(lp4
I171
aI3
aa(lp5
I249
aI1
aa(lp6
I249
aI2
aa(lp7
I344
aI0
aa(lp8
I344
aI1
aa(lp9
I344
aI2
aa(lp10
I344
aI3
aa(lp11
I344
aI4
aa(lp12
I613
aI1
aa(lp13
I613
aI3
aa(lp14
I646
aI0
aa(lp15
I646
aI1
aa(lp16
I646
aI2
aa(lp17
I646
aI3
aa(lp18
I677
aI0
aa(lp19
I677
aI1
aa(lp20
I677
aI2
aa(lp21
I677
aI3
aa(lp22
I677
aI4
aa(lp23
I735
aI0
aa(lp24
I735
aI1
aa(lp25
I735
aI2
aa(lp26
I735
aI3
aa(lp27
I735
aI4
aa(lp28
I817
aI0
aa(lp29
I817
aI2
aa(lp30
I817
aI3
aa(lp31
I817
aI4
aa(lp32
I894
aI0
aa(lp33
I894
aI1
aa(lp34
I894
aI2
aa(lp35
I894
aI3
aa(lp36
I894
aI4
aa(lp37
I962
aI0
aa(lp38
I962
aI1
aa(lp39
I962
aI2
aa(lp40
I962
aI4
aa(lp41
I978
aI0
aa(lp42
I978
aI1
aa(lp43
I978
aI2
aa(lp44
I978
aI4
aa(lp45
I1096
aI2
aa(lp46
I1113
aI1
aa(lp47
I1113
aI2
aa(lp48
I1113
aI3
aa(lp49
I1245
aI0
aa(lp50
I1245
aI1
aa(lp51
I1245
aI2
aa(lp52
I1245
aI3
aa(lp53
I1245
aI4
aa(lp54
I1264
aI0
aa(lp55
I1264
aI1
aa(lp56
I1264
aI2
aa(lp57
I1264
aI3
aa(lp58
I1264
aI4
aa(lp59
I1268
aI0
aa(lp60
I1268
aI2
aa(lp61
I1268
aI3
aa(lp62
I1372
aI0
aa(lp63
I1393
aI0
aa(lp64
I1393
aI1
aa(lp65
I1393
aI3
aa(lp66
I1393
aI4
aa(lp67
I1440
aI0
aa(lp68
I1440
aI1
aa(lp69
I1440
aI2
aa(lp70
I1440
aI3
aa(lp71
I1573
aI0
aa(lp72
I1812
aI1
aa(lp73
I1812
aI2
aa(lp74
I1973
aI0
aa(lp75
I1973
aI1
aa(lp76
I1973
aI2
aa(lp77
I1973
aI3
aa(lp78
I1973
aI4
aa(lp79
I2049
aI0
aa(lp80
I2049
aI4
aa(lp81
I2057
aI0
aa(lp82
I2100
aI0
aa(lp83
I2100
aI1
aa(lp84
I2100
aI3
aa(lp85
I2114
aI0
aa(lp86
I2114
aI3
aa(lp87
I2114
aI4
aa(lp88
I2223
aI0
aa(lp89
I2223
aI1
aa(lp90
I2223
aI2
aa(lp91
I2223
aI3
aa(lp92
I2223
aI4
aa(lp93
I2235
aI2
aa(lp94
I2454
aI0
aa(lp95
I2454
aI4
aa(lp96
I2592
aI4
aa(lp97
I2642
aI0
aa(lp98
I2642
aI2
aa(lp99
I2642
aI4
aa(lp100
I2698
aI0
aa(lp101
I2698
aI2
aa(lp102
I2698
aI3
aa(lp103
I2763
aI0
aa(lp104
I2763
aI1
aa(lp105
I2763
aI2
aa(lp106
I2763
aI3
aa(lp107
I2763
aI4
aa(lp108
I2806
aI3
aa(lp109
I2825
aI0
aa(lp110
I2825
aI1
aa(lp111
I2825
aI2
aa(lp112
I2825
aI3
aa(lp113
I2825
aI4
aa(lp114
I2826
aI3
aa(lp115
I3098
aI3
aa(lp116
I3128
aI0
aa(lp117
I3128
aI1
aa(lp118
I3128
aI2
aa(lp119
I3128
aI4
aa(lp120
I3182
aI0
aa(lp121
I3182
aI1
aa(lp122
I3182
aI2
aa(lp123
I3182
aI3
aa(lp124
I3395
aI1
aa(lp125
I3395
aI3
aa(lp126
I3395
aI4
aa(lp127
I3426
aI0
aa(lp128
I3426
aI1
aa(lp129
I3426
aI2
aa(lp130
I3426
aI3
aa(lp131
I3719
aI1
aa(lp132
I3719
aI2
aa(lp133
I3719
aI3
aa(lp134
I3719
aI4
aa(lp135
I3783
aI0
aa(lp136
I3783
aI1
aa(lp137
I3783
aI2
aa(lp138
I3929
aI1
aa(lp139
I3929
aI2
aa(lp140
I3929
aI3
aa(lp141
I3929
aI4
aa(lp142
I4038
aI1
aa(lp143
I4038
aI3
aa(lp144
I4038
aI4
aa(lp145
I4215
aI0
aa(lp146
I4215
aI1
aa(lp147
I4215
aI2
aa(lp148
I4215
aI3
aa(lp149
I4215
aI4
aa(lp150
I4232
aI0
aa(lp151
I4232
aI1
aa(lp152
I4232
aI2
aa(lp153
I4232
aI3
aa(lp154
I4232
aI4
aa(lp155
I4293
aI0
aa(lp156
I4293
aI1
aa(lp157
I4293
aI2
aa(lp158
I4293
aI3
aa(lp159
I4293
aI4
aa(lp160
I4335
aI0
aa(lp161
I4335
aI1
aa(lp162
I4335
aI2
aa(lp163
I4335
aI3
aa(lp164
I4335
aI4
aa(lp165
I4372
aI1
aa(lp166
I4475
aI1
aa(lp167
I4475
aI4
aa(lp168
I4534
aI0
aa(lp169
I4534
aI2
aa(lp170
I4534
aI3
aa(lp171
I4534
aI4
aa(lp172
I4729
aI0
aa(lp173
I4729
aI1
aa(lp174
I4835
aI1
aa(lp175
I4835
aI2
aa(lp176
I4835
aI3
aa(lp177
I4835
aI4
aa(lp178
I4843
aI0
aa(lp179
I4843
aI1
aa(lp180
I4843
aI2
aa(lp181
I4843
aI3
aa(lp182
I4843
aI4
aa(lp183
I5021
aI0
aa(lp184
I5021
aI1
aa(lp185
I5021
aI2
aa(lp186
I5021
aI3
aa(lp187
I5021
aI4
aa(lp188
I5218
aI0
aa(lp189
I5218
aI2
aa(lp190
I5218
aI4
aa(lp191
I5273
aI0
aa(lp192
I5273
aI1
aa(lp193
I5273
aI2
aa(lp194
I5273
aI3
aa(lp195
I5273
aI4
aa(lp196
I5281
aI0
aa(lp197
I5281
aI1
aa(lp198
I5281
aI3
aa(lp199
I5289
aI0
aa(lp200
I5289
aI2
aa(lp201
I5289
aI3
aa(lp202
I5325
aI0
aa(lp203
I5325
aI1
aa(lp204
I5325
aI2
aa(lp205
I5325
aI3
aa(lp206
I5366
aI0
aa(lp207
I5366
aI1
aa(lp208
I5366
aI2
aa(lp209
I5366
aI3
aa(lp210
I5366
aI4
aa(lp211
I5394
aI0
aa(lp212
I5394
aI1
aa(lp213
I5394
aI3
aa(lp214
I5447
aI0
aa(lp215
I5447
aI4
aa(lp216
I5514
aI0
aa(lp217
I5559
aI0
aa(lp218
I5559
aI1
aa(lp219
I5559
aI2
aa(lp220
I5559
aI4
aa(lp221
I5658
aI0
aa(lp222
I5658
aI1
aa(lp223
I5658
aI2
aa(lp224
I5658
aI3
aa(lp225
I5658
aI4
aa(lp226
I5658
aI5
aa(lp227
I5700
aI0
aa(lp228
I5700
aI1
aa(lp229
I5700
aI2
aa(lp230
I5700
aI3
aa(lp231
I5962
aI0
aa(lp232
I5962
aI1
aa(lp233
I5962
aI2
aa(lp234
I5962
aI4
aa(lp235
I6168
aI0
aa(lp236
I6168
aI1
aa(lp237
I6168
aI2
aa(lp238
I6168
aI3
aa(lp239
I6191
aI0
aa(lp240
I6191
aI1
aa(lp241
I6191
aI2
aa(lp242
I6191
aI3
aa(lp243
I6191
aI4
aa(lp244
I6193
aI1
aa(lp245
I6193
aI2
aa(lp246
I6193
aI3
aa(lp247
I6193
aI4
aa(lp248
I6340
aI0
aa(lp249
I6340
aI1
aa(lp250
I6340
aI2
aa(lp251
I6340
aI3
aa(lp252
I6340
aI4
aa(lp253
I6434
aI0
aa(lp254
I6434
aI1
aa(lp255
I6434
aI2
aa(lp256
I6434
aI3
aa(lp257
I6434
aI4
aa(lp258
I6519
aI0
aa(lp259
I6519
aI1
aa(lp260
I6519
aI3
aa(lp261
I6519
aI4
aa(lp262
I6572
aI0
aa(lp263
I6572
aI1
aa(lp264
I6572
aI2
aa(lp265
I6572
aI3
aa(lp266
I6572
aI4
aa(lp267
I6636
aI0
aa(lp268
I6636
aI1
aa(lp269
I6636
aI2
aa(lp270
I6636
aI3
aa(lp271
I6636
aI4
aa(lp272
I6638
aI0
aa(lp273
I6638
aI1
aa(lp274
I6638
aI3
aa(lp275
I6638
aI4
aa(lp276
I6713
aI0
aa(lp277
I6713
aI1
aa(lp278
I6713
aI2
aa(lp279
I6713
aI3
aa(lp280
I6713
aI4
aa(lp281
I6717
aI0
aa(lp282
I6717
aI1
aa(lp283
I6717
aI4
aa(lp284
I6800
aI0
aa(lp285
I6800
aI1
aa(lp286
I6800
aI2
aa(lp287
I6800
aI3
aa(lp288
I6800
aI4
aa(lp289
I6835
aI4
aa(lp290
I6847
aI0
aa(lp291
I6847
aI1
aa(lp292
I6847
aI2
aa(lp293
I6847
aI3
aa(lp294
I6847
aI4
aa(lp295
I6887
aI0
aa(lp296
I6887
aI3
aa(lp297
I7030
aI0
aa(lp298
I7044
aI3
aa(lp299
I7191
aI0
aa(lp300
I7191
aI1
aa(lp301
I7191
aI2
aa(lp302
I7191
aI4
aa(lp303
I7387
aI0
aa(lp304
I7387
aI1
aa(lp305
I7387
aI2
aa(lp306
I7387
aI4
aa(lp307
I7458
aI2
aa(lp308
I7504
aI0
aa(lp309
I7504
aI1
aa(lp310
I7504
aI2
aa(lp311
I7504
aI4
aa(lp312
I7620
aI0
aa(lp313
I7620
aI1
aa(lp314
I7620
aI3
aa(lp315
I7620
aI4
aa(lp316
I7644
aI2
aa(lp317
I7790
aI0
aa(lp318
I7790
aI1
aa(lp319
I7790
aI3
aa(lp320
I7790
aI4
aa(lp321
I7866
aI2
aa(lp322
I7866
aI3
aa(lp323
I7866
aI4
aa(lp324
I7886
aI0
aa(lp325
I7886
aI1
aa(lp326
I7886
aI2
aa(lp327
I7886
aI3
aa(lp328
I7930
aI0
aa(lp329
I7930
aI2
aa(lp330
I7930
aI4
aa(lp331
I7962
aI0
aa(lp332
I7962
aI1
aa(lp333
I7962
aI3
aa(lp334
I8066
aI0
aa(lp335
I8066
aI1
aa(lp336
I8066
aI2
aa(lp337
I8066
aI3
aa(lp338
I8066
aI4
aa(lp339
I8082
aI0
aa(lp340
I8082
aI1
aa(lp341
I8286
aI0
aa(lp342
I8286
aI1
aa(lp343
I8286
aI2
aa(lp344
I8286
aI3
aa(lp345
I8286
aI4
aa(lp346
I8372
aI0
aa(lp347
I8384
aI4
aa(lp348
I8582
aI0
aa(lp349
I8582
aI1
aa(lp350
I8582
aI2
aa(lp351
I8582
aI3
aa(lp352
I8582
aI4
aa(lp353
I8601
aI0
aa(lp354
I8601
aI1
aa(lp355
I8601
aI3
aa(lp356
I8601
aI4
aa(lp357
I8604
aI0
aa(lp358
I8604
aI1
aa(lp359
I8604
aI2
aa(lp360
I8604
aI4
aa(lp361
I8739
aI0
aa(lp362
I8739
aI2
aa(lp363
I8757
aI0
aa(lp364
I8757
aI1
aa(lp365
I8757
aI2
aa(lp366
I8757
aI3
aa(lp367
I8757
aI4
aa(lp368
I9056
aI0
aa(lp369
I9056
aI1
aa(lp370
I9056
aI2
aa(lp371
I9056
aI3
aa(lp372
I9056
aI4
aa(lp373
I9059
aI3
aa(lp374
I9059
aI4
aa(lp375
I9105
aI0
aa(lp376
I9105
aI2
aa(lp377
I9105
aI3
aa(lp378
I9105
aI4
aa(lp379
I9122
aI0
aa(lp380
I9122
aI2
aa(lp381
I9122
aI3
aa(lp382
I9122
aI4
aa(lp383
I9197
aI0
aa(lp384
I9197
aI1
aa(lp385
I9197
aI3
aa(lp386
I9197
aI4
aa(lp387
I9318
aI0
aa(lp388
I9318
aI1
aa(lp389
I9318
aI2
aa(lp390
I9318
aI3
aa(lp391
I9318
aI4
aa(lp392
I9482
aI1
aa(lp393
I9482
aI2
aa(lp394
I9482
aI4
aa(lp395
I9560
aI0
aa(lp396
I9560
aI1
aa(lp397
I9560
aI2
aa(lp398
I9560
aI3
aa(lp399
I9560
aI4
aa(lp400
I9567
aI0
aa(lp401
I9567
aI1
aa(lp402
I9567
aI3
aa(lp403
I9576
aI0
aa(lp404
I9576
aI1
aa(lp405
I9865
aI0
aa(lp406
I9865
aI1
aa(lp407
I9865
aI2
aa(lp408
I9865
aI4
aa(lp409
I9913
aI0
aa(lp410
I9913
aI1
aa(lp411
I9913
aI2
aa(lp412
I9913
aI3
aa(lp413
I9913
aI4
aa(lp414
I9995
aI0
aa(lp415
I9995
aI2
aa(lp416
I9995
aI3
aa(lp417
I9995
aI4
aa(lp418
I9995
aI5
aa(lp419
I10057
aI0
aa(lp420
I10057
aI1
aa(lp421
I10057
aI2
aa(lp422
I10057
aI3
aa(lp423
I10057
aI4
aa(lp424
I10077
aI0
aa(lp425
I10077
aI1
aa(lp426
I10077
aI2
aa(lp427
I10077
aI4
aa(lp428
I10083
aI0
aa(lp429
I10083
aI1
aa(lp430
I10083
aI2
aa(lp431
I10083
aI4
aa(lp432
I10140
aI4
aa(lp433
I10311
aI0
aa(lp434
I10311
aI1
aa(lp435
I10311
aI3
aa(lp436
I10369
aI0
aa(lp437
I10369
aI1
aa(lp438
I10369
aI3
aa(lp439
I10486
aI0
aa(lp440
I10486
aI1
aa(lp441
I10486
aI2
aa(lp442
I10486
aI3
aa(lp443
I10509
aI0
aa(lp444
I10509
aI1
aa(lp445
I10509
aI2
aa(lp446
I10509
aI3
aa(lp447
I10509
aI4
aa(lp448
I10626
aI2
aa(lp449
I10626
aI3
aa(lp450
I10627
aI0
aa(lp451
I10627
aI1
aa(lp452
I10627
aI3
aa(lp453
I10627
aI4
aa(lp454
I10714
aI1
aa(lp455
I10714
aI2
aa(lp456
I10714
aI3
aa(lp457
I10714
aI4
aa(lp458
I10797
aI0
aa(lp459
I10797
aI3
aa(lp460
I10797
aI4
aa(lp461
I10817
aI0
aa(lp462
I10817
aI1
aa(lp463
I10817
aI2
aa(lp464
I10817
aI3
aa(lp465
I10820
aI0
aa(lp466
I10820
aI1
aa(lp467
I10820
aI2
aa(lp468
I10820
aI3
aa(lp469
I10820
aI4
aa(lp470
I10831
aI0
aa(lp471
I10831
aI1
aa(lp472
I10831
aI2
aa(lp473
I10831
aI3
aa(lp474
I10831
aI4
aa(lp475
I10934
aI0
aa(lp476
I10934
aI1
aa(lp477
I10934
aI2
aa(lp478
I10934
aI3
aa(lp479
I10934
aI4
aa(lp480
I10969
aI3
aa(lp481
I10969
aI4
aa(lp482
I11066
aI1
aa(lp483
I11066
aI2
aa(lp484
I11066
aI3
aa(lp485
I11066
aI4
aa(lp486
I11144
aI0
aa(lp487
I11144
aI1
aa(lp488
I11144
aI2
aa(lp489
I11144
aI3
aa(lp490
I11144
aI4
aa(lp491
I11436
aI0
aa(lp492
I11436
aI1
aa(lp493
I11436
aI3
aa(lp494
I11436
aI4
aa(lp495
I11463
aI0
aa(lp496
I11463
aI1
aa(lp497
I11463
aI2
aa(lp498
I11463
aI3
aa(lp499
I11463
aI4
aa(lp500
I11502
aI0
aa(lp501
I11502
aI1
aa(lp502
I11502
aI2
aa(lp503
I11502
aI3
aa(lp504
I11502
aI4
aa(lp505
I11564
aI1
aa(lp506
I11690
aI0
aa(lp507
I11690
aI2
aa(lp508
I11690
aI4
aa(lp509
I11752
aI0
aa(lp510
I11752
aI1
aa(lp511
I11752
aI2
aa(lp512
I11752
aI3
aa(lp513
I11752
aI4
aa(lp514
I11760
aI0
aa(lp515
I11760
aI1
aa(lp516
I11760
aI3
aa(lp517
I11856
aI1
aa(lp518
I11856
aI2
aa(lp519
I11856
aI3
aa(lp520
I12091
aI0
aa(lp521
I12091
aI2
aa(lp522
I12091
aI3
aa(lp523
I12091
aI4
aa(lp524
I12136
aI1
aa(lp525
I12136
aI3
aa(lp526
I12273
aI1
aa(lp527
I12293
aI0
aa(lp528
I12293
aI1
aa(lp529
I12293
aI2
aa(lp530
I12293
aI3
aa(lp531
I12351
aI1
aa(lp532
I12351
aI2
aa(lp533
I12351
aI3
aa(lp534
I12351
aI4
aa(lp535
I12394
aI0
aa(lp536
I12394
aI1
aa(lp537
I12394
aI2
aa(lp538
I12394
aI4
aa(lp539
I12658
aI0
aa(lp540
I12658
aI1
aa(lp541
I12658
aI2
aa(lp542
I12658
aI3
aa(lp543
I12658
aI4
aa(lp544
I12746
aI0
aa(lp545
I12746
aI1
aa(lp546
I12746
aI3
aa(lp547
I12932
aI0
aa(lp548
I12932
aI2
aa(lp549
I12950
aI0
aa(lp550
I12950
aI1
aa(lp551
I12950
aI2
aa(lp552
I12950
aI3
aa(lp553
I12950
aI4
aa(lp554
I12967
aI0
aa(lp555
I12967
aI1
aa(lp556
I12967
aI2
aa(lp557
I12967
aI3
aa(lp558
I12967
aI4
aa(lp559
I12986
aI0
aa(lp560
I12986
aI1
aa(lp561
I12986
aI3
aa(lp562
I12986
aI4
aa(lp563
I13103
aI1
aa(lp564
I13103
aI4
aa(lp565
I13417
aI0
aa(lp566
I13417
aI2
aa(lp567
I13417
aI3
aa(lp568
I13417
aI4
aa(lp569
I13484
aI0
aa(lp570
I13484
aI1
aa(lp571
I13484
aI3
aa(lp572
I13484
aI4
aa(lp573
I13534
aI0
aa(lp574
I13534
aI1
aa(lp575
I13534
aI2
aa(lp576
I13534
aI4
aa(lp577
I13670
aI1
aa(lp578
I13716
aI3
aa(lp579
I13717
aI0
aa(lp580
I13717
aI1
aa(lp581
I13717
aI3
aa(lp582
I13717
aI4
aa(lp583
I14081
aI0
aa(lp584
I14081
aI1
aa(lp585
I14081
aI2
aa(lp586
I14081
aI3
aa(lp587
I14113
aI1
aa(lp588
I14113
aI2
aa(lp589
I14113
aI3
aa(lp590
I14113
aI4
aa(lp591
I14232
aI1
aa(lp592
I14232
aI2
aa(lp593
I14232
aI4
aa(lp594
I14255
aI0
aa(lp595
I14255
aI1
aa(lp596
I14255
aI2
aa(lp597
I14255
aI3
aa(lp598
I14255
aI4
aa(lp599
I14302
aI0
aa(lp600
I14302
aI1
aa(lp601
I14302
aI2
aa(lp602
I14302
aI3
aa(lp603
I14302
aI4
aa(lp604
I14447
aI0
aa(lp605
I14447
aI1
aa(lp606
I14447
aI2
aa(lp607
I14447
aI3
aa(lp608
I14447
aI4
aa(lp609
I14477
aI1
aa(lp610
I14477
aI2
aa(lp611
I14477
aI4
aa(lp612
I14563
aI1
aa(lp613
I14563
aI4
aa(lp614
I14684
aI3
aa(lp615
I14684
aI4
aa(lp616
I14787
aI0
aa(lp617
I14787
aI1
aa(lp618
I14787
aI2
aa(lp619
I14787
aI4
aa(lp620
I14819
aI2
aa(lp621
I14819
aI3
aa(lp622
I14819
aI4
aa(lp623
I14846
aI0
aa(lp624
I14846
aI3
aa(lp625
I14846
aI4
aa(lp626
I14900
aI0
aa(lp627
I14900
aI1
aa(lp628
I14900
aI2
aa(lp629
I14900
aI3
aa(lp630
I14900
aI4
aa(lp631
I14941
aI0
aa(lp632
I14941
aI2
aa(lp633
I14941
aI3
aa(lp634
I14941
aI4
aa(lp635
I15067
aI0
aa(lp636
I15067
aI2
aa(lp637
I15067
aI3
aa(lp638
I15067
aI4
aa(lp639
I15245
aI0
aa(lp640
I15245
aI1
aa(lp641
I15245
aI2
aa(lp642
I15245
aI3
aa(lp643
I15245
aI4
aa(lp644
I15261
aI0
aa(lp645
I15261
aI1
aa(lp646
I15261
aI2
aa(lp647
I15261
aI3
aa(lp648
I15261
aI4
aa(lp649
I15317
aI0
aa(lp650
I15317
aI1
aa(lp651
I15317
aI3
aa(lp652
I15317
aI4
aa(lp653
I15394
aI0
aa(lp654
I15394
aI1
aa(lp655
I15394
aI2
aa(lp656
I15394
aI3
aa(lp657
I15394
aI4
aa(lp658
I15592
aI1
aa(lp659
I15592
aI2
aa(lp660
I15592
aI3
aa(lp661
I15644
aI4
aa(lp662
I15672
aI0
aa(lp663
I15672
aI3
aa(lp664
I15684
aI3
aa(lp665
I15684
aI4
aa(lp666
I15838
aI0
aa(lp667
I15838
aI2
aa(lp668
I15838
aI3
aa(lp669
I15848
aI0
aa(lp670
I15848
aI1
aa(lp671
I15848
aI2
aa(lp672
I15848
aI3
aa(lp673
I15848
aI4
aa(lp674
I15881
aI0
aa(lp675
I15881
aI3
aa(lp676
I15881
aI4
aa(lp677
I15994
aI0
aa(lp678
I15994
aI1
aa(lp679
I15994
aI2
aa(lp680
I15994
aI3
aa(lp681
I15994
aI4
aa(lp682
I16014
aI0
aa(lp683
I16014
aI1
aa(lp684
I16014
aI2
aa(lp685
I16014
aI3
aa(lp686
I16014
aI4
aa(lp687
I16076
aI0
aa(lp688
I16076
aI1
aa(lp689
I16076
aI2
aa(lp690
I16076
aI3
aa(lp691
I16076
aI4
aa(lp692
I16093
aI0
aa(lp693
I16093
aI1
aa(lp694
I16093
aI2
aa(lp695
I16093
aI3
aa(lp696
I16093
aI4
aa(lp697
I16111
aI0
aa(lp698
I16111
aI2
aa(lp699
I16111
aI3
aa(lp700
I16111
aI4
aa(lp701
I16238
aI1
aa(lp702
I16238
aI2
aa(lp703
I16238
aI3
aa(lp704
I16252
aI0
aa(lp705
I16252
aI1
aa(lp706
I16252
aI2
aa(lp707
I16252
aI3
aa(lp708
I16252
aI4
aa(lp709
I16306
aI4
aa(lp710
I16603
aI4
aa(lp711
I16629
aI1
aa(lp712
I16629
aI2
aa(lp713
I16629
aI3
aa(lp714
I16690
aI0
aa(lp715
I16690
aI1
aa(lp716
I16690
aI2
aa(lp717
I16690
aI3
aa(lp718
I16690
aI4
aa(lp719
I16695
aI0
aa(lp720
I16695
aI1
aa(lp721
I16695
aI2
aa(lp722
I16695
aI3
aa(lp723
I16695
aI4
aa(lp724
I16798
aI0
aa(lp725
I16953
aI1
aa(lp726
I16953
aI3
aa(lp727
I16953
aI4
aa(lp728
I16967
aI0
aa(lp729
I16967
aI1
aa(lp730
I16967
aI3
aa(lp731
I16967
aI4
aa(lp732
I16994
aI2
aa(lp733
I16994
aI3
aa(lp734
I17005
aI0
aa(lp735
I17005
aI2
aa(lp736
I17005
aI3
aa(lp737
I17005
aI4
aa(lp738
I17005
aI5
aa(lp739
I17114
aI0
aa(lp740
I17114
aI1
aa(lp741
I17114
aI2
aa(lp742
I17114
aI3
aa(lp743
I17114
aI4
aa(lp744
I17371
aI4
aa(lp745
I17380
aI4
aa(lp746
I17519
aI0
aa(lp747
I17519
aI1
aa(lp748
I17597
aI0
aa(lp749
I17615
aI0
aa(lp750
I17615
aI4
aa(lp751
I17727
aI0
aa(lp752
I17727
aI1
aa(lp753
I17727
aI2
aa(lp754
I17727
aI3
aa(lp755
I17727
aI4
aa(lp756
I17739
aI1
aa(lp757
I17739
aI2
aa(lp758
I17739
aI3
aa(lp759
I17739
aI4
aa(lp760
I17860
aI1
aa(lp761
I17860
aI2
aa(lp762
I17860
aI3
aa(lp763
I18026
aI0
aa(lp764
I18197
aI0
aa(lp765
I18197
aI1
aa(lp766
I18197
aI2
aa(lp767
I18197
aI3
aa(lp768
I18197
aI4
aa(lp769
I18325
aI0
aa(lp770
I18325
aI1
aa(lp771
I18325
aI2
aa(lp772
I18325
aI3
aa(lp773
I18325
aI4
aa(lp774
I18352
aI2
aa(lp775
I18352
aI4
aa(lp776
I18475
aI0
aa(lp777
I18667
aI0
aa(lp778
I18667
aI1
aa(lp779
I18667
aI2
aa(lp780
I18667
aI3
aa(lp781
I18714
aI0
aa(lp782
I18714
aI1
aa(lp783
I18714
aI2
aa(lp784
I18714
aI3
aa(lp785
I18714
aI4
aa(lp786
I18727
aI0
aa(lp787
I18727
aI2
aa(lp788
I18727
aI3
aa(lp789
I18727
aI4
aa(lp790
I18730
aI0
aa(lp791
I18730
aI1
aa(lp792
I18730
aI2
aa(lp793
I18730
aI4
aa(lp794
I18750
aI0
aa(lp795
I18750
aI1
aa(lp796
I18750
aI2
aa(lp797
I18750
aI3
aa(lp798
I18750
aI4
aa(lp799
I19064
aI0
aa(lp800
I19064
aI1
aa(lp801
I19064
aI2
aa(lp802
I19064
aI3
aa(lp803
I19064
aI4
aa(lp804
I19384
aI0
aa(lp805
I19384
aI3
aa(lp806
I19494
aI0
aa(lp807
I19494
aI1
aa(lp808
I19494
aI2
aa(lp809
I19494
aI3
aa(lp810
I19494
aI4
aa(lp811
I19818
aI2
aa(lp812
I19818
aI3
aa(lp813
I20067
aI0
aa(lp814
I20067
aI1
aa(lp815
I20067
aI2
aa(lp816
I20125
aI0
aa(lp817
I20125
aI1
aa(lp818
I20125
aI2
aa(lp819
I20125
aI3
aa(lp820
I20125
aI4
aa(lp821
I20203
aI0
aa(lp822
I20203
aI1
aa(lp823
I20203
aI2
aa(lp824
I20203
aI3
aa(lp825
I20203
aI4
aa(lp826
I20254
aI0
aa(lp827
I20254
aI2
aa(lp828
I20254
aI3
aa(lp829
I20254
aI4
aa(lp830
I20307
aI1
aa(lp831
I20307
aI2
aa(lp832
I20307
aI3
aa(lp833
I20307
aI4
aa(lp834
I20323
aI0
aa(lp835
I20323
aI1
aa(lp836
I20323
aI2
aa(lp837
I20323
aI3
aa(lp838
I20323
aI4
aa(lp839
I20356
aI0
aa(lp840
I20356
aI2
aa(lp841
I20356
aI3
aa(lp842
I20356
aI4
aa(lp843
I20650
aI2
aa(lp844
I20650
aI3
aa(lp845
I20661
aI0
aa(lp846
I20661
aI1
aa(lp847
I20661
aI2
aa(lp848
I20661
aI3
aa(lp849
I20661
aI4
aa(lp850
I20663
aI0
aa(lp851
I20663
aI2
aa(lp852
I20663
aI3
aa(lp853
I20663
aI4
aa(lp854
I20805
aI4
aa(lp855
I20978
aI0
aa(lp856
I20978
aI1
aa(lp857
I20978
aI2
aa(lp858
I20978
aI3
aa(lp859
I21088
aI0
aa(lp860
I21088
aI1
aa(lp861
I21088
aI2
aa(lp862
I21088
aI3
aa(lp863
I21088
aI4
aa(lp864
I21122
aI1
aa(lp865
I21122
aI2
aa(lp866
I21180
aI2
aa(lp867
I21235
aI0
aa(lp868
I21235
aI1
aa(lp869
I21235
aI2
aa(lp870
I21235
aI3
aa(lp871
I21235
aI4
aa(lp872
I21282
aI0
aa(lp873
I21282
aI1
aa(lp874
I21282
aI2
aa(lp875
I21505
aI1
aa(lp876
I21725
aI0
aa(lp877
I21725
aI1
aa(lp878
I21725
aI2
aa(lp879
I21725
aI4
aa(lp880
I21733
aI0
aa(lp881
I21733
aI1
aa(lp882
I21733
aI3
aa(lp883
I21776
aI0
aa(lp884
I21776
aI1
aa(lp885
I21776
aI2
aa(lp886
I21776
aI3
aa(lp887
I21807
aI1
aa(lp888
I21807
aI2
aa(lp889
I21807
aI4
aa(lp890
I21811
aI0
aa(lp891
I21811
aI1
aa(lp892
I21811
aI2
aa(lp893
I21811
aI3
aa(lp894
I21811
aI4
aa(lp895
I21814
aI0
aa(lp896
I21814
aI1
aa(lp897
I21814
aI2
aa(lp898
I21814
aI3
aa(lp899
I21814
aI4
aa(lp900
I21838
aI0
aa(lp901
I21838
aI1
aa(lp902
I21838
aI2
aa(lp903
I21838
aI3
aa(lp904
I21838
aI4
aa(lp905
I21857
aI0
aa(lp906
I21857
aI4
aa(lp907
I21931
aI0
aa(lp908
I21931
aI1
aa(lp909
I21931
aI2
aa(lp910
I21931
aI3
aa(lp911
I21931
aI4
aa(lp912
I21967
aI0
aa(lp913
I21967
aI1
aa(lp914
I21967
aI4
aa(lp915
I21970
aI1
aa(lp916
I21970
aI2
aa(lp917
I21970
aI3
aa(lp918
I21970
aI4
aa(lp919
I21972
aI0
aa(lp920
I21972
aI1
aa(lp921
I21972
aI3
aa(lp922
I21972
aI4
aa(lp923
I21987
aI0
aa(lp924
I22036
aI1
aa(lp925
I22036
aI2
aa(lp926
I22089
aI0
aa(lp927
I22089
aI1
aa(lp928
I22089
aI2
aa(lp929
I22089
aI3
aa(lp930
I22089
aI4
aa(lp931
I22128
aI0
aa(lp932
I22128
aI1
aa(lp933
I22128
aI2
aa(lp934
I22128
aI3
aa(lp935
I22128
aI4
aa(lp936
I22470
aI0
aa(lp937
I22470
aI2
aa(lp938
I22559
aI0
aa(lp939
I22559
aI1
aa(lp940
I22559
aI2
aa(lp941
I22559
aI3
aa(lp942
I22559
aI4
aa(lp943
I22753
aI0
aa(lp944
I22753
aI1
aa(lp945
I22753
aI3
aa(lp946
I22753
aI4
aa(lp947
I22820
aI0
aa(lp948
I22866
aI0
aa(lp949
I22866
aI1
aa(lp950
I22866
aI3
aa(lp951
I22866
aI4
aa(lp952
I22893
aI2
aa(lp953
I22893
aI3
aa(lp954
I22893
aI4
aa(lp955
I22919
aI0
aa(lp956
I22919
aI1
aa(lp957
I22919
aI3
aa(lp958
I22919
aI4
aa(lp959
I22974
aI0
aa(lp960
I22974
aI1
aa(lp961
I22974
aI2
aa(lp962
I22974
aI3
aa(lp963
I22974
aI4
aa(lp964
I23026
aI0
aa(lp965
I23026
aI1
aa(lp966
I23219
aI0
aa(lp967
I23219
aI2
aa(lp968
I23369
aI3
aa(lp969
I23369
aI4
aa(lp970
I23567
aI0
aa(lp971
I23567
aI1
aa(lp972
I23567
aI2
aa(lp973
I23567
aI3
aa(lp974
I23567
aI4
aa(lp975
I23582
aI2
aa(lp976
I23592
aI0
aa(lp977
I23592
aI1
aa(lp978
I23592
aI2
aa(lp979
I23592
aI3
aa(lp980
I23592
aI4
aa(lp981
I23802
aI1
aa(lp982
I23802
aI2
aa(lp983
I23802
aI3
aa(lp984
I23802
aI4
aa(lp985
I23904
aI1
aa(lp986
I23904
aI2
aa(lp987
I23904
aI4
aa(lp988
I23981
aI1
aa(lp989
I23981
aI2
aa(lp990
I23981
aI3
aa(lp991
I23981
aI4
aa(lp992
I24119
aI0
aa(lp993
I24119
aI1
aa(lp994
I24119
aI2
aa(lp995
I24119
aI3
aa(lp996
I24119
aI4
aa(lp997
I24192
aI0
aa(lp998
I24192
aI1
aa(lp999
I24192
aI2
aa(lp1000
I24192
aI3
aa(lp1001
I24192
aI4
aa(lp1002
I24195
aI0
aa(lp1003
I24195
aI1
aa(lp1004
I24195
aI2
aa(lp1005
I24195
aI3
aa(lp1006
I24195
aI4
aa(lp1007
I24236
aI0
aa(lp1008
I24236
aI1
aa(lp1009
I24236
aI2
aa(lp1010
I24236
aI3
aa(lp1011
I24254
aI0
aa(lp1012
I24254
aI1
aa(lp1013
I24254
aI2
aa(lp1014
I24254
aI3
aa(lp1015
I24254
aI4
aa(lp1016
I24481
aI0
aa(lp1017
I24481
aI1
aa(lp1018
I24481
aI2
aa(lp1019
I24532
aI0
aa(lp1020
I24532
aI1
aa(lp1021
I24532
aI2
aa(lp1022
I24532
aI3
aa(lp1023
I24532
aI4
aa(lp1024
I24627
aI1
aa(lp1025
I24627
aI2
aa(lp1026
I24627
aI3
aa(lp1027
I24627
aI4
aa(lp1028
I24759
aI0
aa(lp1029
I24759
aI1
aa(lp1030
I24759
aI2
aa(lp1031
I24759
aI3
aa(lp1032
I24759
aI4
aa(lp1033
I25410
aI0
aa(lp1034
I25410
aI1
aa(lp1035
I25410
aI2
aa(lp1036
I25410
aI3
aa(lp1037
I25552
aI0
aa(lp1038
I25552
aI3
aa(lp1039
I25654
aI1
aa(lp1040
I25654
aI4
aa(lp1041
I25696
aI1
aa(lp1042
I25696
aI2
aa(lp1043
I25866
aI3
aa(lp1044
I26193
aI0
aa(lp1045
I26193
aI2
aa(lp1046
I26193
aI3
aa(lp1047
I26193
aI4
aa(lp1048
I26409
aI1
aa(lp1049
I26409
aI2
aa(lp1050
I26409
aI3
aa(lp1051
I26590
aI0
aa(lp1052
I26590
aI1
aa(lp1053
I26590
aI2
aa(lp1054
I26590
aI3
aa(lp1055
I26590
aI4
aa(lp1056
I26665
aI0
aa(lp1057
I26665
aI1
aa(lp1058
I26665
aI2
aa(lp1059
I26665
aI3
aa(lp1060
I26665
aI4
aa(lp1061
I26676
aI1
aa(lp1062
I26676
aI4
aa(lp1063
I26708
aI0
aa(lp1064
I26708
aI2
aa(lp1065
I26708
aI3
aa(lp1066
I26778
aI0
aa(lp1067
I26778
aI1
aa(lp1068
I26778
aI2
aa(lp1069
I26778
aI3
aa(lp1070
I26782
aI3
aa(lp1071
I26894
aI0
aa(lp1072
I26894
aI1
aa(lp1073
I26894
aI2
aa(lp1074
I26894
aI3
aa(lp1075
I26894
aI4
aa(lp1076
I27114
aI2
aa(lp1077
I27114
aI3
aa(lp1078
I27114
aI4
aa(lp1079
I27146
aI1
aa(lp1080
I27146
aI3
aa(lp1081
I27176
aI1
aa(lp1082
I27176
aI2
aa(lp1083
I27176
aI3
aa(lp1084
I27176
aI4
aa(lp1085
I27263
aI4
aa(lp1086
I27330
aI0
aa(lp1087
I27330
aI1
aa(lp1088
I27330
aI3
aa(lp1089
I27330
aI4
aa(lp1090
I27349
aI0
aa(lp1091
I27349
aI1
aa(lp1092
I27349
aI2
aa(lp1093
I27349
aI3
aa(lp1094
I27349
aI4
aa(lp1095
I27398
aI1
aa(lp1096
I27398
aI2
aa(lp1097
I27398
aI3
aa(lp1098
I27398
aI4
aa(lp1099
I27418
aI0
aa(lp1100
I27418
aI1
aa(lp1101
I27418
aI2
aa(lp1102
I27418
aI3
aa(lp1103
I27418
aI4
aa(lp1104
I27657
aI0
aa(lp1105
I27657
aI1
aa(lp1106
I27657
aI3
aa(lp1107
I27657
aI4
aa(lp1108
I27692
aI4
aa(lp1109
I27743
aI1
aa(lp1110
I27743
aI2
aa(lp1111
I27743
aI4
aa(lp1112
I27795
aI0
aa(lp1113
I27795
aI1
aa(lp1114
I27795
aI2
aa(lp1115
I27795
aI3
aa(lp1116
I27795
aI4
aa(lp1117
I27803
aI0
aa(lp1118
I27803
aI1
aa(lp1119
I27803
aI2
aa(lp1120
I27856
aI2
aa(lp1121
I27856
aI4
aa(lp1122
I27966
aI0
aa(lp1123
I27966
aI1
aa(lp1124
I27966
aI2
aa(lp1125
I27966
aI3
aa(lp1126
I27966
aI4
aa(lp1127
I28039
aI0
aa(lp1128
I28039
aI1
aa(lp1129
I28039
aI2
aa(lp1130
I28039
aI3
aa(lp1131
I28039
aI4
aa(lp1132
I28082
aI1
aa(lp1133
I28082
aI2
aa(lp1134
I28082
aI3
aa(lp1135
I28082
aI4
aa(lp1136
I28142
aI0
aa(lp1137
I28142
aI1
aa(lp1138
I28142
aI2
aa(lp1139
I28142
aI4
aa(lp1140
I28227
aI0
aa(lp1141
I28227
aI1
aa(lp1142
I28227
aI2
aa(lp1143
I28227
aI3
aa(lp1144
I28227
aI4
aa(lp1145
I28270
aI0
aa(lp1146
I28270
aI1
aa(lp1147
I28270
aI2
aa(lp1148
I28270
aI3
aa(lp1149
I28270
aI4
aa(lp1150
I28280
aI2
aa(lp1151
I28280
aI3
aa(lp1152
I28280
aI4
aa(lp1153
I28333
aI0
aa(lp1154
I28333
aI1
aa(lp1155
I28333
aI2
aa(lp1156
I28333
aI3
aa(lp1157
I28333
aI4
aa(lp1158
I28440
aI1
aa(lp1159
I28440
aI3
aa(lp1160
I28440
aI4
aa(lp1161
I28511
aI0
aa(lp1162
I28511
aI1
aa(lp1163
I28511
aI2
aa(lp1164
I28581
aI1
aa(lp1165
I28581
aI3
aa(lp1166
I28633
aI0
aa(lp1167
I28633
aI1
aa(lp1168
I28633
aI2
aa(lp1169
I28633
aI3
aa(lp1170
I28633
aI4
aa(lp1171
I28639
aI0
aa(lp1172
I28639
aI1
aa(lp1173
I28639
aI2
aa(lp1174
I28639
aI3
aa(lp1175
I28639
aI4
aa(lp1176
I28669
aI1
aa(lp1177
I28669
aI2
aa(lp1178
I28669
aI3
aa(lp1179
I28669
aI4
aa(lp1180
I28756
aI1
aa(lp1181
I28756
aI2
aa(lp1182
I28846
aI0
aa(lp1183
I28846
aI1
aa(lp1184
I28846
aI2
aa(lp1185
I28846
aI3
aa(lp1186
I28921
aI0
aa(lp1187
I28921
aI1
aa(lp1188
I28921
aI3
aa(lp1189
I28921
aI4
aa(lp1190
I29014
aI0
aa(lp1191
I29063
aI0
aa(lp1192
I29063
aI1
aa(lp1193
I29063
aI2
aa(lp1194
I29063
aI3
aa(lp1195
I29063
aI4
aa(lp1196
I29133
aI0
aa(lp1197
I29133
aI2
aa(lp1198
I29133
aI3
aa(lp1199
I29133
aI4
aa(lp1200
I29144
aI1
aa(lp1201
I29144
aI2
aa(lp1202
I29144
aI3
aa(lp1203
I29144
aI4
aa(lp1204
I29149
aI0
aa(lp1205
I29149
aI1
aa(lp1206
I29149
aI2
aa(lp1207
I29149
aI3
aa(lp1208
I29149
aI4
aa(lp1209
I29306
aI2
aa(lp1210
I29330
aI1
aa(lp1211
I29449
aI0
aa(lp1212
I29449
aI1
aa(lp1213
I29449
aI2
aa(lp1214
I29449
aI4
aa(lp1215
I29659
aI0
aa(lp1216
I29659
aI1
aa(lp1217
I29659
aI2
aa(lp1218
I29659
aI4
aa(lp1219
I29729
aI0
aa(lp1220
I29729
aI1
aa(lp1221
I29729
aI2
aa(lp1222
I29729
aI3
aa(lp1223
I29918
aI0
aa(lp1224
I30054
aI3
aa(lp1225
I30123
aI0
aa(lp1226
I30123
aI1
aa(lp1227
I30123
aI2
aa(lp1228
I30123
aI3
aa(lp1229
I30123
aI4
aa(lp1230
I30209
aI0
aa(lp1231
I30209
aI3
aa(lp1232
I30209
aI4
aa(lp1233
I30214
aI0
aa(lp1234
I30214
aI2
aa(lp1235
I30214
aI3
aa(lp1236
I30432
aI0
aa(lp1237
I30432
aI1
aa(lp1238
I30432
aI3
aa(lp1239
I30432
aI4
aa(lp1240
I30449
aI0
aa(lp1241
I30449
aI1
aa(lp1242
I30449
aI3
aa(lp1243
I30449
aI4
aa(lp1244
I30495
aI0
aa(lp1245
I30495
aI1
aa(lp1246
I30495
aI2
aa(lp1247
I30495
aI3
aa(lp1248
I30495
aI4
aa(lp1249
I30588
aI0
aa(lp1250
I30588
aI1
aa(lp1251
I30588
aI2
aa(lp1252
I30621
aI0
aa(lp1253
I30621
aI1
aa(lp1254
I30621
aI2
aa(lp1255
I30621
aI3
aa(lp1256
I30621
aI4
aa(lp1257
I30638
aI1
aa(lp1258
I30638
aI2
aa(lp1259
I30638
aI3
aa(lp1260
I30638
aI4
aa(lp1261
I30657
aI1
aa(lp1262
I30657
aI2
aa(lp1263
I30657
aI3
aa(lp1264
I30657
aI4
aa(lp1265
I30835
aI1
aa(lp1266
I30835
aI2
aa(lp1267
I30835
aI3
aa(lp1268
I30835
aI4
aa(lp1269
I31019
aI1
aa(lp1270
I31019
aI2
aa(lp1271
I31019
aI4
aa(lp1272
I31024
aI0
aa(lp1273
I31359
aI0
aa(lp1274
I31359
aI1
aa(lp1275
I31359
aI2
aa(lp1276
I31359
aI3
aa(lp1277
I31359
aI4
aa(lp1278
I31390
aI4
aa(lp1279
I31478
aI0
aa(lp1280
I31478
aI1
aa(lp1281
I31478
aI4
aa(lp1282
I31552
aI1
aa(lp1283
I31552
aI2
aa(lp1284
I31552
aI3
aa(lp1285
I31552
aI4
aa(lp1286
I31579
aI0
aa(lp1287
I31579
aI2
aa(lp1288
I31579
aI3
aa(lp1289
I31579
aI4
aa(lp1290
I31615
aI0
aa(lp1291
I31615
aI1
aa(lp1292
I31615
aI2
aa(lp1293
I31615
aI3
aa(lp1294
I31615
aI4
aa(lp1295
I31620
aI0
aa(lp1296
I31620
aI1
aa(lp1297
I31620
aI2
aa(lp1298
I31620
aI3
aa(lp1299
I31620
aI4
aa(lp1300
I31714
aI0
aa(lp1301
I31714
aI1
aa(lp1302
I31714
aI2
aa(lp1303
I31731
aI0
aa(lp1304
I31731
aI1
aa(lp1305
I31731
aI3
aa(lp1306
I31731
aI4
aa(lp1307
I31816
aI0
aa(lp1308
I31816
aI1
aa(lp1309
I31816
aI2
aa(lp1310
I31816
aI3
aa(lp1311
I31816
aI4
aa(lp1312
I31861
aI0
aa(lp1313
I31861
aI1
aa(lp1314
I31861
aI3
aa(lp1315
I31861
aI4
aa(lp1316
I32034
aI0
aa(lp1317
I32034
aI1
aa(lp1318
I32034
aI2
aa(lp1319
I32034
aI3
aa(lp1320
I32034
aI4
aa(lp1321
I32065
aI1
aa(lp1322
I32065
aI3
aa(lp1323
I32065
aI4
aa(lp1324
I32119
aI0
aa(lp1325
I32119
aI1
aa(lp1326
I32119
aI2
aa(lp1327
I32119
aI3
aa(lp1328
I32119
aI4
aa(lp1329
I32121
aI0
aa(lp1330
I32121
aI1
aa(lp1331
I32121
aI2
aa(lp1332
I32149
aI0
aa(lp1333
I32149
aI3
aa(lp1334
I32149
aI4
aa(lp1335
I32325
aI1
aa(lp1336
I32325
aI2
aa(lp1337
I32325
aI3
aa(lp1338
I32325
aI4
aa(lp1339
I32356
aI1
aa(lp1340
I32356
aI4
aa(lp1341
I32368
aI1
aa(lp1342
I32368
aI4
aa(lp1343
I32387
aI0
aa(lp1344
I32387
aI2
aa(lp1345
I32387
aI3
aa(lp1346
I32471
aI0
aa(lp1347
I32471
aI1
aa(lp1348
I32471
aI3
aa(lp1349
I32471
aI4
aa(lp1350
I32598
aI0
aa(lp1351
I32598
aI1
aa(lp1352
I32598
aI4
aa(lp1353
I32614
aI0
aa(lp1354
I32614
aI1
aa(lp1355
I32614
aI2
aa(lp1356
I32799
aI0
aa(lp1357
I32799
aI3
aa(lp1358
I32799
aI4
aa(lp1359
I32844
aI0
aa(lp1360
I32946
aI0
aa(lp1361
I32946
aI1
aa(lp1362
I32946
aI3
aa(lp1363
I32946
aI4
aa(lp1364
I32960
aI0
aa(lp1365
I32960
aI1
aa(lp1366
I32960
aI2
aa(lp1367
I32960
aI3
aa(lp1368
I32960
aI4
aa(lp1369
I33284
aI3
aa(lp1370
I33284
aI4
aa(lp1371
I33286
aI1
aa(lp1372
I33286
aI2
aa(lp1373
I33286
aI3
aa(lp1374
I33286
aI4
aa(lp1375
I33370
aI0
aa(lp1376
I33370
aI1
aa(lp1377
I33370
aI4
aa(lp1378
I33487
aI0
aa(lp1379
I33487
aI1
aa(lp1380
I33487
aI2
aa(lp1381
I33487
aI3
aa(lp1382
I33487
aI4
aa(lp1383
I33527
aI0
aa(lp1384
I33527
aI1
aa(lp1385
I33527
aI3
aa(lp1386
I33527
aI4
aa(lp1387
I33537
aI4
aa(lp1388
I33737
aI0
aa(lp1389
I33800
aI0
aa(lp1390
I33800
aI3
aa(lp1391
I33853
aI0
aa(lp1392
I33853
aI2
aa(lp1393
I33853
aI3
aa(lp1394
I33883
aI0
aa(lp1395
I33883
aI1
aa(lp1396
I33883
aI2
aa(lp1397
I33883
aI3
aa(lp1398
I33883
aI4
aa(lp1399
I34490
aI2
aa(lp1400
I34493
aI4
aa(lp1401
I34531
aI0
aa(lp1402
I34531
aI3
aa(lp1403
I34531
aI4
aa(lp1404
I34667
aI0
aa(lp1405
I34667
aI3
aa(lp1406
I34667
aI4
aa(lp1407
I34916
aI0
aa(lp1408
I34916
aI1
aa(lp1409
I34916
aI3
aa(lp1410
I34916
aI4
aa(lp1411
I34997
aI3
aa(lp1412
I35158
aI0
aa(lp1413
I35158
aI1
aa(lp1414
I35158
aI2
aa(lp1415
I35158
aI4
aa(lp1416
I35195
aI0
aa(lp1417
I35195
aI1
aa(lp1418
I35195
aI2
aa(lp1419
I35195
aI3
aa(lp1420
I35195
aI4
aa(lp1421
I35199
aI0
aa(lp1422
I35199
aI2
aa(lp1423
I35199
aI3
aa(lp1424
I35286
aI1
aa(lp1425
I35286
aI2
aa(lp1426
I35286
aI3
aa(lp1427
I35286
aI4
aa(lp1428
I35524
aI0
aa(lp1429
I35524
aI1
aa(lp1430
I35524
aI2
aa(lp1431
I35524
aI3
aa(lp1432
I35524
aI4
aa(lp1433
I35690
aI1
aa(lp1434
I35690
aI2
aa(lp1435
I35690
aI3
aa(lp1436
I35772
aI0
aa(lp1437
I35772
aI1
aa(lp1438
I35772
aI3
aa(lp1439
I35785
aI0
aa(lp1440
I35785
aI1
aa(lp1441
I35785
aI2
aa(lp1442
I35785
aI3
aa(lp1443
I35785
aI4
aa(lp1444
I35847
aI0
aa(lp1445
I35847
aI1
aa(lp1446
I35847
aI2
aa(lp1447
I35847
aI3
aa(lp1448
I35847
aI4
aa(lp1449
I35978
aI0
aa(lp1450
I35978
aI1
aa(lp1451
I35978
aI2
aa(lp1452
I35978
aI4
aa(lp1453
I35992
aI4
aa(lp1454
I36005
aI1
aa(lp1455
I36005
aI2
aa(lp1456
I36005
aI3
aa(lp1457
I36005
aI4
aa(lp1458
I36102
aI1
aa(lp1459
I36102
aI2
aa(lp1460
I36102
aI3
aa(lp1461
I36102
aI4
aa(lp1462
I36128
aI0
aa(lp1463
I36128
aI1
aa(lp1464
I36128
aI2
aa(lp1465
I36128
aI3
aa(lp1466
I36128
aI4
aa(lp1467
I36253
aI0
aa(lp1468
I36253
aI1
aa(lp1469
I36253
aI2
aa(lp1470
I36253
aI3
aa(lp1471
I36253
aI4
aa(lp1472
I36421
aI0
aa(lp1473
I36421
aI1
aa(lp1474
I36421
aI2
aa(lp1475
I36421
aI3
aa(lp1476
I36421
aI4
aa(lp1477
I36482
aI2
aa(lp1478
I36482
aI3
aa(lp1479
I36482
aI4
aa(lp1480
I36503
aI0
aa(lp1481
I36503
aI2
aa(lp1482
I36503
aI3
aa(lp1483
I36573
aI0
aa(lp1484
I36573
aI1
aa(lp1485
I36573
aI3
aa(lp1486
I36613
aI3
aa(lp1487
I36676
aI1
aa(lp1488
I36676
aI4
aa(lp1489
I36685
aI0
aa(lp1490
I36685
aI1
aa(lp1491
I36685
aI2
aa(lp1492
I36685
aI3
aa(lp1493
I36685
aI4
aa(lp1494
I36740
aI0
aa(lp1495
I36740
aI1
aa(lp1496
I36740
aI2
aa(lp1497
I36740
aI3
aa(lp1498
I36740
aI4
aa(lp1499
I36752
aI0
aa(lp1500
I36752
aI1
aa(lp1501
I36752
aI2
aa(lp1502
I36752
aI4
aa(lp1503
I36779
aI0
aa(lp1504
I36779
aI1
aa(lp1505
I36779
aI2
aa(lp1506
I36779
aI3
aa(lp1507
I36779
aI4
aa(lp1508
I36936
aI0
aa(lp1509
I36936
aI1
aa(lp1510
I36936
aI2
aa(lp1511
I36936
aI3
aa(lp1512
I36936
aI4
aa(lp1513
I36937
aI0
aa(lp1514
I36937
aI1
aa(lp1515
I36937
aI2
aa(lp1516
I36937
aI4
aa(lp1517
I36941
aI0
aa(lp1518
I36941
aI2
aa(lp1519
I36941
aI4
aa(lp1520
I37024
aI0
aa(lp1521
I37024
aI1
aa(lp1522
I37024
aI2
aa(lp1523
I37024
aI3
aa(lp1524
I37024
aI4
aa(lp1525
I37037
aI0
aa(lp1526
I37037
aI1
aa(lp1527
I37037
aI2
aa(lp1528
I37037
aI3
aa(lp1529
I37037
aI4
aa(lp1530
I37249
aI1
aa(lp1531
I37249
aI3
aa(lp1532
I37303
aI2
aa(lp1533
I37303
aI3
aa(lp1534
I37661
aI1
aa(lp1535
I37661
aI2
aa(lp1536
I37661
aI3
aa(lp1537
I37661
aI4
aa(lp1538
I37988
aI0
aa(lp1539
I37988
aI1
aa(lp1540
I37988
aI2
aa(lp1541
I37988
aI4
aa(lp1542
I38050
aI2
aa(lp1543
I38050
aI4
aa(lp1544
I38088
aI0
aa(lp1545
I38088
aI1
aa(lp1546
I38088
aI3
aa(lp1547
I38088
aI4
aa(lp1548
I38131
aI0
aa(lp1549
I38131
aI1
aa(lp1550
I38131
aI2
aa(lp1551
I38131
aI3
aa(lp1552
I38131
aI4
aa(lp1553
I38162
aI0
aa(lp1554
I38162
aI1
aa(lp1555
I38162
aI2
aa(lp1556
I38162
aI3
aa(lp1557
I38329
aI0
aa(lp1558
I38329
aI1
aa(lp1559
I38329
aI2
aa(lp1560
I38329
aI4
aa(lp1561
I38333
aI0
aa(lp1562
I38333
aI2
aa(lp1563
I38333
aI3
aa(lp1564
I38333
aI4
aa(lp1565
I38454
aI0
aa(lp1566
I38454
aI1
aa(lp1567
I38454
aI2
aa(lp1568
I38454
aI3
aa(lp1569
I38454
aI4
aa(lp1570
I38502
aI3
aa(lp1571
I38686
aI0
aa(lp1572
I38686
aI1
aa(lp1573
I38686
aI2
aa(lp1574
I38686
aI3
aa(lp1575
I38686
aI4
aa(lp1576
I38824
aI0
aa(lp1577
I38824
aI3
aa(lp1578
I38851
aI3
aa(lp1579
I38851
aI4
aa(lp1580
I39103
aI0
aa(lp1581
I39103
aI1
aa(lp1582
I39103
aI2
aa(lp1583
I39103
aI3
aa(lp1584
I39103
aI4
aa(lp1585
I39110
aI2
aa(lp1586
I39110
aI3
aa(lp1587
I39131
aI4
aa(lp1588
I39196
aI0
aa(lp1589
I39196
aI3
aa(lp1590
I39196
aI4
aa(lp1591
I39264
aI0
aa(lp1592
I39264
aI1
aa(lp1593
I39264
aI3
aa(lp1594
I39330
aI0
aa(lp1595
I39330
aI2
aa(lp1596
I39330
aI3
aa(lp1597
I39385
aI2
aa(lp1598
I39385
aI4
aa(lp1599
I39412
aI0
aa(lp1600
I39412
aI1
aa(lp1601
I39412
aI2
aa(lp1602
I39412
aI3
aa(lp1603
I39412
aI4
aa(lp1604
I39478
aI2
aa(lp1605
I39729
aI2
aa(lp1606
I39729
aI3
aa(lp1607
I39805
aI0
aa(lp1608
I39805
aI1
aa(lp1609
I39805
aI2
aa(lp1610
I39805
aI3
aa(lp1611
I39805
aI4
aa(lp1612
I39916
aI0
aa(lp1613
I39916
aI2
aa(lp1614
I39916
aI3
aa(lp1615
I39916
aI4
aa(lp1616
I39982
aI0
aa(lp1617
I39982
aI1
aa(lp1618
I39982
aI4
aa(lp1619
I40055
aI2
aa(lp1620
I40092
aI0
aa(lp1621
I40092
aI1
aa(lp1622
I40092
aI2
aa(lp1623
I40092
aI4
aa(lp1624
I40430
aI0
aa(lp1625
I40430
aI1
aa(lp1626
I40430
aI4
aa.