(lp0
(lp1
I2
aI1
aa(lp2
I84
aI3
aa(lp3
I188
aI1
aa(lp4
I188
aI2
aa(lp5
I188
aI3
aa(lp6
I209
aI3
aa(lp7
I278
aI0
aa(lp8
I278
aI1
aa(lp9
I278
aI2
aa(lp10
I278
aI3
aa(lp11
I409
aI2
aa(lp12
I409
aI4
aa(lp13
I484
aI2
aa(lp14
I491
aI0
aa(lp15
I498
aI1
aa(lp16
I498
aI3
aa(lp17
I521
aI0
aa(lp18
I521
aI3
aa(lp19
I593
aI3
aa(lp20
I622
aI3
aa(lp21
I622
aI4
aa(lp22
I1031
aI3
aa(lp23
I1187
aI4
aa(lp24
I1385
aI2
aa(lp25
I1456
aI1
aa(lp26
I1456
aI2
aa(lp27
I1508
aI0
aa(lp28
I1508
aI1
aa(lp29
I1508
aI2
aa(lp30
I1508
aI3
aa(lp31
I1508
aI4
aa(lp32
I1521
aI1
aa(lp33
I1859
aI2
aa(lp34
I1859
aI4
aa(lp35
I1865
aI1
aa(lp36
I1865
aI2
aa(lp37
I1873
aI0
aa(lp38
I1879
aI1
aa(lp39
I1879
aI2
aa(lp40
I1879
aI3
aa(lp41
I1954
aI0
aa(lp42
I2059
aI3
aa(lp43
I2080
aI0
aa(lp44
I2080
aI3
aa(lp45
I2080
aI4
aa(lp46
I2150
aI0
aa(lp47
I2150
aI4
aa(lp48
I2184
aI1
aa(lp49
I2184
aI2
aa(lp50
I2276
aI0
aa(lp51
I2276
aI2
aa(lp52
I2288
aI2
aa(lp53
I2354
aI1
aa(lp54
I2378
aI2
aa(lp55
I2460
aI4
aa(lp56
I2684
aI2
aa(lp57
I2685
aI4
aa(lp58
I2821
aI2
aa(lp59
I2933
aI1
aa(lp60
I2933
aI2
aa(lp61
I3011
aI0
aa(lp62
I3069
aI0
aa(lp63
I3154
aI1
aa(lp64
I3154
aI3
aa(lp65
I3154
aI4
aa(lp66
I3227
aI0
aa(lp67
I3227
aI1
aa(lp68
I3227
aI3
aa(lp69
I3227
aI4
aa(lp70
I3348
aI1
aa(lp71
I3369
aI2
aa(lp72
I3450
aI0
aa(lp73
I3479
aI3
aa(lp74
I3586
aI1
aa(lp75
I3586
aI4
aa(lp76
I3647
aI1
aa(lp77
I3647
aI2
aa(lp78
I3733
aI3
aa(lp79
I3733
aI4
aa(lp80
I3802
aI3
aa(lp81
I3802
aI4
aa(lp82
I3806
aI0
aa(lp83
I3806
aI2
aa(lp84
I3831
aI3
aa(lp85
I3832
aI1
aa(lp86
I3832
aI2
aa(lp87
I3855
aI3
aa(lp88
I3855
aI4
aa(lp89
I3959
aI0
aa(lp90
I3959
aI4
aa(lp91
I3974
aI0
aa(lp92
I3974
aI4
aa(lp93
I3986
aI3
aa(lp94
I3995
aI1
aa(lp95
I4076
aI1
aa(lp96
I4076
aI2
aa(lp97
I4076
aI4
aa(lp98
I4116
aI1
aa(lp99
I4116
aI2
aa(lp100
I4116
aI3
aa(lp101
I4116
aI4
aa(lp102
I4121
aI4
aa(lp103
I4380
aI2
aa(lp104
I4410
aI1
aa(lp105
I4410
aI2
aa(lp106
I4410
aI3
aa(lp107
I4410
aI4
aa(lp108
I4598
aI1
aa(lp109
I4598
aI4
aa(lp110
I4636
aI3
aa(lp111
I4636
aI4
aa(lp112
I4645
aI0
aa(lp113
I4645
aI3
aa(lp114
I4664
aI1
aa(lp115
I4664
aI4
aa(lp116
I4714
aI0
aa(lp117
I4714
aI1
aa(lp118
I4714
aI3
aa(lp119
I4718
aI3
aa(lp120
I4782
aI1
aa(lp121
I4826
aI4
aa(lp122
I4996
aI1
aa(lp123
I4996
aI3
aa(lp124
I5011
aI0
aa(lp125
I5011
aI4
aa(lp126
I5030
aI1
aa(lp127
I5037
aI0
aa(lp128
I5037
aI2
aa(lp129
I5157
aI1
aa(lp130
I5160
aI3
aa(lp131
I5180
aI1
aa(lp132
I5180
aI3
aa(lp133
I5180
aI4
aa(lp134
I5270
aI0
aa(lp135
I5270
aI3
aa(lp136
I5301
aI2
aa(lp137
I5345
aI3
aa(lp138
I5389
aI0
aa(lp139
I5389
aI3
aa(lp140
I5421
aI0
aa(lp141
I5421
aI3
aa(lp142
I5437
aI4
aa(lp143
I5532
aI1
aa(lp144
I5532
aI4
aa(lp145
I5753
aI2
aa(lp146
I5862
aI4
aa(lp147
I5922
aI2
aa(lp148
I5922
aI3
aa(lp149
I5946
aI2
aa(lp150
I5946
aI3
aa(lp151
I5946
aI4
aa(lp152
I6006
aI0
aa(lp153
I6059
aI0
aa(lp154
I6059
aI3
aa(lp155
I6139
aI2
aa(lp156
I6206
aI2
aa(lp157
I6271
aI2
aa(lp158
I6295
aI2
aa(lp159
I6314
aI2
aa(lp160
I6372
aI0
aa(lp161
I6372
aI2
aa(lp162
I6372
aI3
aa(lp163
I6456
aI2
aa(lp164
I6543
aI2
aa(lp165
I6543
aI3
aa(lp166
I6543
aI4
aa(lp167
I6579
aI1
aa(lp168
I6579
aI4
aa(lp169
I6606
aI0
aa(lp170
I6611
aI0
aa(lp171
I6769
aI1
aa(lp172
I6769
aI4
aa(lp173
I6894
aI1
aa(lp174
I6900
aI4
aa(lp175
I6943
aI0
aa(lp176
I7019
aI4
aa(lp177
I7251
aI0
aa(lp178
I7251
aI3
aa(lp179
I7251
aI4
aa(lp180
I7336
aI3
aa(lp181
I7372
aI0
aa(lp182
I7372
aI2
aa(lp183
I7570
aI1
aa(lp184
I7570
aI4
aa(lp185
I7750
aI2
aa(lp186
I7759
aI1
aa(lp187
I7777
aI4
aa(lp188
I7894
aI0
aa(lp189
I7894
aI3
aa(lp190
I7894
aI4
aa(lp191
I8037
aI3
aa(lp192
I8059
aI1
aa(lp193
I8163
aI4
aa(lp194
I8193
aI1
aa(lp195
I8263
aI1
aa(lp196
I8469
aI2
aa(lp197
I8469
aI3
aa(lp198
I8530
aI0
aa(lp199
I8530
aI1
aa(lp200
I8530
aI2
aa(lp201
I8530
aI4
aa(lp202
I8548
aI3
aa(lp203
I8548
aI4
aa(lp204
I8602
aI3
aa(lp205
I8613
aI0
aa(lp206
I8613
aI1
aa(lp207
I8637
aI2
aa(lp208
I8666
aI1
aa(lp209
I8677
aI0
aa(lp210
I8677
aI3
aa(lp211
I8813
aI1
aa(lp212
I8827
aI4
aa(lp213
I8875
aI2
aa(lp214
I8928
aI0
aa(lp215
I8928
aI4
aa(lp216
I9000
aI0
aa(lp217
I9000
aI1
aa(lp218
I9000
aI2
aa(lp219
I9078
aI1
aa(lp220
I9078
aI4
aa(lp221
I9082
aI2
aa(lp222
I9132
aI3
aa(lp223
I9135
aI0
aa(lp224
I9135
aI2
aa(lp225
I9169
aI0
aa(lp226
I9169
aI2
aa(lp227
I9172
aI0
aa(lp228
I9172
aI2
aa(lp229
I9201
aI1
aa(lp230
I9201
aI2
aa(lp231
I9201
aI3
aa(lp232
I9252
aI1
aa(lp233
I9255
aI4
aa(lp234
I9457
aI2
aa(lp235
I9457
aI4
aa(lp236
I9546
aI1
aa(lp237
I9585
aI3
aa(lp238
I9590
aI2
aa(lp239
I9624
aI0
aa(lp240
I9650
aI1
aa(lp241
I9650
aI2
aa(lp242
I9650
aI4
aa(lp243
I9739
aI2
aa(lp244
I9739
aI4
aa(lp245
I9757
aI2
aa(lp246
I9757
aI4
aa(lp247
I9857
aI1
aa(lp248
I10066
aI1
aa(lp249
I10066
aI4
aa(lp250
I10120
aI0
aa(lp251
I10120
aI3
aa(lp252
I10120
aI4
aa(lp253
I10275
aI0
aa(lp254
I10338
aI0
aa(lp255
I10340
aI0
aa(lp256
I10429
aI2
aa(lp257
I10487
aI1
aa(lp258
I10533
aI2
aa(lp259
I10629
aI0
aa(lp260
I10763
aI2
aa(lp261
I10891
aI0
aa(lp262
I10891
aI4
aa(lp263
I10944
aI0
aa(lp264
I10944
aI3
aa(lp265
I11053
aI0
aa(lp266
I11141
aI2
aa(lp267
I11141
aI3
aa(lp268
I11141
aI4
aa(lp269
I11208
aI1
aa(lp270
I11208
aI3
aa(lp271
I11218
aI0
aa(lp272
I11234
aI1
aa(lp273
I11234
aI4
aa(lp274
I11251
aI4
aa(lp275
I11300
aI0
aa(lp276
I11336
aI3
aa(lp277
I11469
aI2
aa(lp278
I11589
aI1
aa(lp279
I11589
aI3
aa(lp280
I11649
aI1
aa(lp281
I11649
aI3
aa(lp282
I11649
aI4
aa(lp283
I11686
aI3
aa(lp284
I11763
aI1
aa(lp285
I11763
aI3
aa(lp286
I11847
aI1
aa(lp287
I11927
aI1
aa(lp288
I12098
aI3
aa(lp289
I12098
aI4
aa(lp290
I12102
aI4
aa(lp291
I12175
aI0
aa(lp292
I12261
aI2
aa(lp293
I12261
aI4
aa(lp294
I12346
aI1
aa(lp295
I12440
aI0
aa(lp296
I12457
aI0
aa(lp297
I12457
aI4
aa(lp298
I12468
aI3
aa(lp299
I12468
aI4
aa(lp300
I12542
aI0
aa(lp301
I12542
aI1
aa(lp302
I12542
aI2
aa(lp303
I12542
aI3
aa(lp304
I12542
aI4
aa(lp305
I12650
aI1
aa(lp306
I12650
aI4
aa(lp307
I12743
aI1
aa(lp308
I12758
aI0
aa(lp309
I12758
aI1
aa(lp310
I12796
aI2
aa(lp311
I12796
aI4
aa(lp312
I12835
aI4
aa(lp313
I12895
aI3
aa(lp314
I13035
aI1
aa(lp315
I13035
aI2
aa(lp316
I13035
aI3
aa(lp317
I13115
aI1
aa(lp318
I13141
aI2
aa(lp319
I13196
aI0
aa(lp320
I13196
aI1
aa(lp321
I13196
aI3
aa(lp322
I13196
aI4
aa(lp323
I13226
aI0
aa(lp324
I13226
aI1
aa(lp325
I13263
aI2
aa(lp326
I13269
aI3
aa(lp327
I13365
aI1
aa(lp328
I13365
aI4
aa(lp329
I13380
aI3
aa(lp330
I13507
aI2
aa(lp331
I13575
aI3
aa(lp332
I13683
aI0
aa(lp333
I13683
aI2
aa(lp334
I13862
aI1
aa(lp335
I13891
aI0
aa(lp336
I13891
aI1
aa(lp337
I13891
aI3
aa(lp338
I14021
aI1
aa(lp339
I14021
aI2
aa(lp340
I14021
aI4
aa(lp341
I14084
aI0
aa(lp342
I14084
aI2
aa(lp343
I14084
aI3
aa(lp344
I14084
aI4
aa(lp345
I14119
aI1
aa(lp346
I14119
aI4
aa(lp347
I14344
aI1
aa(lp348
I14416
aI3
aa(lp349
I14416
aI4
aa(lp350
I14521
aI2
aa(lp351
I14521
aI3
aa(lp352
I14525
aI1
aa(lp353
I14560
aI1
aa(lp354
I14579
aI0
aa(lp355
I14579
aI4
aa(lp356
I14708
aI4
aa(lp357
I14826
aI2
aa(lp358
I14826
aI4
aa(lp359
I14959
aI0
aa(lp360
I14959
aI1
aa(lp361
I14959
aI3
aa(lp362
I14959
aI4
aa(lp363
I14967
aI4
aa(lp364
I14971
aI3
aa(lp365
I15055
aI0
aa(lp366
I15055
aI4
aa(lp367
I15088
aI1
aa(lp368
I15088
aI4
aa(lp369
I15150
aI0
aa(lp370
I15150
aI1
aa(lp371
I15150
aI3
aa(lp372
I15161
aI0
aa(lp373
I15289
aI0
aa(lp374
I15289
aI1
aa(lp375
I15289
aI3
aa(lp376
I15486
aI0
aa(lp377
I15486
aI2
aa(lp378
I15519
aI3
aa(lp379
I15616
aI1
aa(lp380
I15616
aI2
aa(lp381
I15717
aI3
aa(lp382
I15795
aI0
aa(lp383
I15795
aI4
aa(lp384
I15873
aI0
aa(lp385
I15873
aI2
aa(lp386
I15873
aI4
aa(lp387
I15925
aI2
aa(lp388
I16136
aI0
aa(lp389
I16152
aI1
aa(lp390
I16183
aI0
aa(lp391
I16260
aI3
aa(lp392
I16299
aI0
aa(lp393
I16299
aI2
aa(lp394
I16299
aI3
aa(lp395
I16299
aI4
aa(lp396
I16376
aI0
aa(lp397
I16383
aI1
aa(lp398
I16411
aI0
aa(lp399
I16423
aI2
aa(lp400
I16558
aI4
aa(lp401
I16578
aI3
aa(lp402
I16578
aI4
aa(lp403
I16825
aI4
aa(lp404
I16830
aI1
aa(lp405
I16830
aI2
aa(lp406
I16830
aI3
aa(lp407
I16910
aI2
aa(lp408
I16910
aI3
aa(lp409
I16960
aI3
aa(lp410
I17075
aI3
aa(lp411
I17124
aI0
aa(lp412
I17124
aI1
aa(lp413
I17124
aI2
aa(lp414
I17158
aI4
aa(lp415
I17202
aI3
aa(lp416
I17202
aI4
aa(lp417
I17245
aI2
aa(lp418
I17391
aI3
aa(lp419
I17557
aI4
aa(lp420
I17671
aI1
aa(lp421
I17671
aI3
aa(lp422
I17716
aI2
aa(lp423
I17919
aI1
aa(lp424
I17941
aI2
aa(lp425
I17941
aI4
aa(lp426
I17954
aI1
aa(lp427
I17954
aI4
aa(lp428
I17969
aI1
aa(lp429
I18072
aI4
aa(lp430
I18081
aI3
aa(lp431
I18137
aI3
aa(lp432
I18144
aI0
aa(lp433
I18144
aI1
aa(lp434
I18144
aI2
aa(lp435
I18149
aI4
aa(lp436
I18218
aI2
aa(lp437
I18369
aI4
aa(lp438
I18371
aI0
aa(lp439
I18371
aI1
aa(lp440
I18371
aI2
aa(lp441
I18371
aI4
aa(lp442
I18391
aI4
aa(lp443
I18461
aI0
aa(lp444
I18461
aI4
aa(lp445
I18518
aI3
aa(lp446
I18562
aI0
aa(lp447
I18562
aI2
aa(lp448
I18562
aI3
aa(lp449
I18562
aI4
aa(lp450
I18576
aI2
aa(lp451
I18693
aI2
aa(lp452
I18700
aI1
aa(lp453
I18700
aI3
aa(lp454
I18700
aI4
aa(lp455
I18704
aI1
aa(lp456
I18757
aI1
aa(lp457
I18757
aI4
aa(lp458
I18766
aI3
aa(lp459
I18799
aI0
aa(lp460
I18799
aI1
aa(lp461
I18864
aI0
aa(lp462
I18864
aI1
aa(lp463
I18864
aI2
aa(lp464
I18864
aI3
aa(lp465
I18895
aI0
aa(lp466
I18895
aI3
aa(lp467
I18932
aI1
aa(lp468
I19071
aI0
aa(lp469
I19071
aI2
aa(lp470
I19196
aI2
aa(lp471
I19269
aI0
aa(lp472
I19306
aI2
aa(lp473
I19313
aI4
aa(lp474
I19342
aI4
aa(lp475
I19374
aI4
aa(lp476
I19493
aI1
aa(lp477
I19544
aI4
aa(lp478
I19703
aI1
aa(lp479
I19736
aI0
aa(lp480
I19781
aI0
aa(lp481
I19781
aI1
aa(lp482
I19781
aI4
aa(lp483
I19938
aI2
aa(lp484
I19938
aI4
aa(lp485
I20052
aI1
aa(lp486
I20052
aI2
aa(lp487
I20090
aI0
aa(lp488
I20163
aI0
aa(lp489
I20163
aI1
aa(lp490
I20163
aI3
aa(lp491
I20286
aI0
aa(lp492
I20286
aI1
aa(lp493
I20368
aI0
aa(lp494
I20368
aI2
aa(lp495
I20368
aI4
aa(lp496
I20400
aI0
aa(lp497
I20400
aI1
aa(lp498
I20400
aI3
aa(lp499
I20421
aI2
aa(lp500
I20421
aI4
aa(lp501
I20482
aI0
aa(lp502
I20482
aI1
aa(lp503
I20482
aI2
aa(lp504
I20482
aI3
aa(lp505
I20482
aI4
aa(lp506
I20606
aI3
aa(lp507
I20612
aI0
aa(lp508
I20629
aI2
aa(lp509
I20629
aI4
aa(lp510
I20636
aI4
aa(lp511
I20656
aI2
aa(lp512
I20656
aI3
aa(lp513
I20747
aI3
aa(lp514
I20753
aI3
aa(lp515
I20915
aI4
aa(lp516
I21027
aI4
aa(lp517
I21183
aI0
aa(lp518
I21183
aI1
aa(lp519
I21284
aI3
aa(lp520
I21554
aI3
aa(lp521
I21651
aI2
aa(lp522
I21763
aI1
aa(lp523
I21785
aI2
aa(lp524
I21873
aI2
aa(lp525
I21873
aI3
aa(lp526
I21889
aI0
aa(lp527
I21948
aI2
aa(lp528
I21948
aI3
aa(lp529
I21973
aI0
aa(lp530
I22051
aI1
aa(lp531
I22051
aI4
aa(lp532
I22252
aI2
aa(lp533
I22523
aI4
aa(lp534
I22570
aI2
aa(lp535
I22608
aI5
aa(lp536
I22622
aI1
aa(lp537
I22681
aI1
aa(lp538
I22681
aI3
aa(lp539
I22790
aI4
aa(lp540
I22942
aI1
aa(lp541
I23063
aI0
aa(lp542
I23102
aI0
aa(lp543
I23102
aI3
aa(lp544
I23126
aI3
aa(lp545
I23281
aI0
aa(lp546
I23281
aI3
aa(lp547
I23469
aI3
aa(lp548
I23714
aI1
aa(lp549
I23714
aI2
aa(lp550
I23801
aI0
aa(lp551
I23816
aI2
aa(lp552
I23835
aI0
aa(lp553
I23835
aI4
aa(lp554
I23876
aI2
aa(lp555
I23907
aI0
aa(lp556
I23924
aI1
aa(lp557
I23959
aI1
aa(lp558
I23963
aI1
aa(lp559
I24035
aI1
aa(lp560
I24035
aI4
aa(lp561
I24061
aI2
aa(lp562
I24226
aI1
aa(lp563
I24305
aI2
aa(lp564
I24435
aI2
aa(lp565
I24435
aI4
aa(lp566
I24466
aI0
aa(lp567
I24476
aI1
aa(lp568
I24486
aI0
aa(lp569
I24486
aI2
aa(lp570
I24486
aI4
aa(lp571
I24832
aI4
aa(lp572
I24892
aI0
aa(lp573
I24892
aI4
aa(lp574
I25117
aI1
aa(lp575
I25144
aI4
aa(lp576
I25267
aI0
aa(lp577
I25267
aI3
aa(lp578
I25276
aI1
aa(lp579
I25276
aI4
aa(lp580
I25301
aI1
aa(lp581
I25502
aI3
aa(lp582
I25566
aI4
aa(lp583
I25614
aI0
aa(lp584
I25665
aI2
aa(lp585
I25665
aI4
aa(lp586
I25678
aI0
aa(lp587
I25678
aI2
aa(lp588
I25725
aI4
aa(lp589
I25734
aI0
aa(lp590
I25734
aI3
aa(lp591
I25811
aI1
aa(lp592
I25823
aI0
aa(lp593
I25823
aI1
aa(lp594
I25867
aI2
aa(lp595
I25910
aI2
aa(lp596
I25910
aI4
aa(lp597
I25967
aI2
aa(lp598
I25967
aI3
aa(lp599
I26071
aI0
aa(lp600
I26412
aI4
aa(lp601
I26440
aI2
aa(lp602
I26478
aI1
aa(lp603
I26478
aI2
aa(lp604
I26478
aI4
aa(lp605
I26569
aI0
aa(lp606
I26569
aI1
aa(lp607
I26569
aI4
aa(lp608
I26721
aI0
aa(lp609
I26721
aI1
aa(lp610
I26825
aI4
aa(lp611
I26929
aI4
aa(lp612
I26987
aI4
aa(lp613
I26992
aI0
aa(lp614
I26992
aI4
aa(lp615
I27157
aI4
aa(lp616
I27256
aI2
aa(lp617
I27256
aI4
aa(lp618
I27285
aI3
aa(lp619
I27285
aI4
aa(lp620
I27299
aI1
aa(lp621
I27336
aI1
aa(lp622
I27336
aI4
aa(lp623
I27381
aI0
aa(lp624
I27381
aI3
aa(lp625
I27504
aI0
aa(lp626
I27504
aI4
aa(lp627
I27556
aI0
aa(lp628
I27556
aI3
aa(lp629
I27556
aI4
aa(lp630
I27677
aI0
aa(lp631
I27677
aI3
aa(lp632
I27709
aI1
aa(lp633
I27709
aI2
aa(lp634
I27709
aI3
aa(lp635
I27766
aI0
aa(lp636
I27766
aI1
aa(lp637
I27766
aI4
aa(lp638
I27879
aI4
aa(lp639
I28087
aI1
aa(lp640
I28087
aI2
aa(lp641
I28087
aI3
aa(lp642
I28087
aI4
aa(lp643
I28131
aI3
aa(lp644
I28135
aI1
aa(lp645
I28135
aI2
aa(lp646
I28145
aI3
aa(lp647
I28182
aI0
aa(lp648
I28182
aI1
aa(lp649
I28235
aI4
aa(lp650
I28362
aI0
aa(lp651
I28409
aI0
aa(lp652
I28409
aI4
aa(lp653
I28794
aI3
aa(lp654
I28800
aI0
aa(lp655
I28800
aI3
aa(lp656
I28847
aI3
aa(lp657
I28895
aI2
aa(lp658
I28932
aI4
aa(lp659
I29050
aI1
aa(lp660
I29064
aI4
aa(lp661
I29078
aI1
aa(lp662
I29078
aI2
aa(lp663
I29078
aI3
aa(lp664
I29151
aI2
aa(lp665
I29225
aI0
aa(lp666
I29272
aI4
aa(lp667
I29285
aI4
aa(lp668
I29319
aI0
aa(lp669
I29585
aI2
aa(lp670
I29585
aI4
aa(lp671
I29679
aI2
aa(lp672
I29679
aI3
aa(lp673
I29720
aI3
aa(lp674
I29730
aI0
aa(lp675
I29753
aI2
aa(lp676
I29799
aI0
aa(lp677
I29799
aI4
aa(lp678
I29860
aI3
aa(lp679
I29872
aI4
aa(lp680
I29939
aI0
aa(lp681
I29939
aI2
aa(lp682
I29939
aI4
aa(lp683
I30172
aI0
aa(lp684
I30172
aI3
aa(lp685
I30185
aI0
aa(lp686
I30185
aI1
aa(lp687
I30185
aI2
aa(lp688
I30185
aI3
aa(lp689
I30185
aI4
aa(lp690
I30406
aI2
aa(lp691
I30406
aI4
aa(lp692
I30423
aI2
aa(lp693
I30488
aI2
aa(lp694
I30494
aI2
aa(lp695
I30494
aI3
aa(lp696
I30672
aI3
aa(lp697
I30809
aI3
aa(lp698
I30809
aI4
aa(lp699
I30929
aI2
aa(lp700
I30929
aI4
aa(lp701
I30963
aI0
aa(lp702
I30963
aI1
aa(lp703
I30963
aI2
aa(lp704
I30963
aI3
aa(lp705
I30963
aI4
aa(lp706
I31084
aI0
aa(lp707
I31084
aI1
aa(lp708
I31084
aI2
aa(lp709
I31104
aI3
aa(lp710
I31192
aI2
aa(lp711
I31213
aI1
aa(lp712
I31261
aI2
aa(lp713
I31338
aI1
aa(lp714
I31348
aI3
aa(lp715
I31358
aI0
aa(lp716
I31464
aI2
aa(lp717
I31464
aI3
aa(lp718
I31464
aI4
aa(lp719
I31497
aI4
aa(lp720
I31546
aI3
aa(lp721
I31575
aI3
aa(lp722
I31575
aI4
aa(lp723
I31580
aI1
aa(lp724
I31582
aI3
aa(lp725
I31653
aI2
aa(lp726
I31990
aI2
aa(lp727
I31990
aI3
aa(lp728
I31996
aI2
aa(lp729
I31996
aI4
aa(lp730
I32005
aI4
aa(lp731
I32042
aI3
aa(lp732
I32042
aI4
aa(lp733
I32117
aI0
aa(lp734
I32126
aI2
aa(lp735
I32126
aI4
aa(lp736
I32158
aI4
aa(lp737
I32177
aI1
aa(lp738
I32280
aI0
aa(lp739
I32280
aI1
aa(lp740
I32293
aI1
aa(lp741
I32334
aI0
aa(lp742
I32435
aI3
aa(lp743
I32435
aI4
aa(lp744
I32496
aI1
aa(lp745
I32496
aI2
aa(lp746
I32496
aI3
aa(lp747
I32652
aI2
aa(lp748
I32652
aI3
aa(lp749
I32740
aI1
aa(lp750
I32740
aI2
aa(lp751
I33016
aI2
aa(lp752
I33016
aI3
aa(lp753
I33049
aI0
aa(lp754
I33049
aI2
aa(lp755
I33375
aI1
aa(lp756
I33462
aI0
aa(lp757
I33462
aI2
aa(lp758
I33471
aI2
aa(lp759
I33486
aI0
aa(lp760
I33516
aI1
aa(lp761
I33585
aI2
aa(lp762
I33585
aI3
aa(lp763
I33605
aI1
aa(lp764
I33605
aI4
aa(lp765
I33809
aI1
aa(lp766
I33809
aI2
aa(lp767
I33809
aI3
aa(lp768
I33818
aI1
aa(lp769
I33818
aI2
aa(lp770
I33904
aI2
aa(lp771
I33904
aI3
aa(lp772
I33937
aI1
aa(lp773
I33983
aI2
aa(lp774
I33986
aI1
aa(lp775
I34020
aI3
aa(lp776
I34058
aI0
aa(lp777
I34058
aI4
aa(lp778
I34125
aI0
aa(lp779
I34125
aI1
aa(lp780
I34166
aI0
aa(lp781
I34207
aI1
aa(lp782
I34207
aI4
aa(lp783
I34261
aI2
aa(lp784
I34261
aI3
aa(lp785
I34272
aI4
aa(lp786
I34300
aI1
aa(lp787
I34309
aI4
aa(lp788
I34389
aI3
aa(lp789
I34446
aI1
aa(lp790
I34446
aI3
aa(lp791
I34446
aI4
aa(lp792
I34621
aI4
aa(lp793
I34803
aI1
aa(lp794
I34803
aI2
aa(lp795
I34803
aI3
aa(lp796
I34901
aI2
aa(lp797
I34921
aI1
aa(lp798
I34993
aI3
aa(lp799
I35024
aI2
aa(lp800
I35041
aI3
aa(lp801
I35041
aI4
aa(lp802
I35129
aI2
aa(lp803
I35129
aI4
aa(lp804
I35174
aI1
aa(lp805
I35329
aI3
aa(lp806
I35548
aI1
aa(lp807
I35557
aI3
aa(lp808
I35575
aI2
aa(lp809
I35692
aI2
aa(lp810
I35692
aI3
aa(lp811
I35758
aI2
aa(lp812
I35758
aI4
aa(lp813
I35842
aI2
aa(lp814
I35910
aI4
aa(lp815
I35928
aI4
aa(lp816
I35971
aI1
aa(lp817
I35973
aI1
aa(lp818
I35973
aI2
aa(lp819
I35973
aI3
aa(lp820
I36046
aI0
aa(lp821
I36046
aI2
aa(lp822
I36046
aI3
aa(lp823
I36074
aI2
aa(lp824
I36074
aI4
aa(lp825
I36122
aI0
aa(lp826
I36122
aI1
aa(lp827
I36122
aI2
aa(lp828
I36122
aI3
aa(lp829
I36122
aI4
aa(lp830
I36206
aI4
aa(lp831
I36294
aI2
aa(lp832
I36318
aI2
aa(lp833
I36424
aI3
aa(lp834
I36424
aI4
aa(lp835
I36450
aI2
aa(lp836
I36450
aI3
aa(lp837
I36450
aI4
aa(lp838
I36452
aI4
aa(lp839
I36585
aI2
aa(lp840
I36601
aI1
aa(lp841
I36601
aI2
aa(lp842
I36601
aI4
aa(lp843
I36665
aI1
aa(lp844
I36762
aI1
aa(lp845
I36846
aI1
aa(lp846
I36857
aI0
aa(lp847
I36857
aI2
aa(lp848
I36857
aI4
aa(lp849
I37028
aI1
aa(lp850
I37087
aI0
aa(lp851
I37087
aI1
aa(lp852
I37153
aI3
aa(lp853
I37159
aI0
aa(lp854
I37159
aI1
aa(lp855
I37159
aI2
aa(lp856
I37159
aI4
aa(lp857
I37222
aI0
aa(lp858
I37222
aI1
aa(lp859
I37222
aI2
aa(lp860
I37222
aI3
aa(lp861
I37326
aI1
aa(lp862
I37326
aI2
aa(lp863
I37360
aI4
aa(lp864
I37366
aI0
aa(lp865
I37366
aI1
aa(lp866
I37366
aI4
aa(lp867
I37418
aI0
aa(lp868
I37418
aI1
aa(lp869
I37418
aI2
aa(lp870
I37418
aI3
aa(lp871
I37418
aI4
aa(lp872
I37430
aI1
aa(lp873
I37430
aI2
aa(lp874
I37430
aI3
aa(lp875
I37473
aI1
aa(lp876
I37473
aI4
aa(lp877
I37558
aI0
aa(lp878
I37558
aI2
aa(lp879
I37628
aI4
aa(lp880
I37711
aI1
aa(lp881
I37886
aI2
aa(lp882
I38021
aI1
aa(lp883
I38021
aI2
aa(lp884
I38139
aI0
aa(lp885
I38139
aI3
aa(lp886
I38193
aI2
aa(lp887
I38193
aI4
aa(lp888
I38213
aI2
aa(lp889
I38213
aI4
aa(lp890
I38257
aI1
aa(lp891
I38257
aI2
aa(lp892
I38276
aI1
aa(lp893
I38276
aI3
aa(lp894
I38302
aI0
aa(lp895
I38302
aI4
aa(lp896
I38470
aI3
aa(lp897
I38483
aI0
aa(lp898
I38483
aI2
aa(lp899
I38581
aI1
aa(lp900
I38581
aI4
aa(lp901
I38584
aI4
aa(lp902
I38822
aI1
aa(lp903
I38859
aI2
aa(lp904
I38859
aI3
aa(lp905
I38859
aI4
aa(lp906
I38860
aI4
aa(lp907
I38995
aI1
aa(lp908
I38995
aI2
aa(lp909
I38995
aI3
aa(lp910
I39119
aI1
aa(lp911
I39119
aI2
aa(lp912
I39119
aI3
aa(lp913
I39148
aI0
aa(lp914
I39148
aI3
aa(lp915
I39159
aI1
aa(lp916
I39159
aI2
aa(lp917
I39163
aI3
aa(lp918
I39163
aI4
aa(lp919
I39259
aI1
aa(lp920
I39259
aI2
aa(lp921
I39259
aI3
aa(lp922
I39259
aI4
aa(lp923
I39320
aI2
aa(lp924
I39320
aI3
aa(lp925
I39331
aI2
aa(lp926
I39331
aI3
aa(lp927
I39512
aI4
aa(lp928
I39543
aI1
aa(lp929
I39545
aI3
aa(lp930
I39643
aI2
aa(lp931
I39670
aI1
aa(lp932
I39823
aI0
aa(lp933
I39823
aI2
aa(lp934
I39880
aI2
aa(lp935
I39937
aI2
aa(lp936
I39983
aI4
aa(lp937
I39998
aI0
aa(lp938
I39998
aI2
aa(lp939
I40003
aI1
aa(lp940
I40003
aI2
aa(lp941
I40003
aI3
aa(lp942
I40003
aI4
aa(lp943
I40030
aI3
aa(lp944
I40069
aI0
aa(lp945
I40128
aI4
aa(lp946
I40230
aI2
aa(lp947
I40278
aI1
aa(lp948
I40278
aI4
aa(lp949
I40281
aI1
aa(lp950
I40281
aI2
aa(lp951
I40281
aI4
aa(lp952
I40294
aI1
aa(lp953
I40294
aI2
aa(lp954
I40294
aI3
aa(lp955
I40410
aI4
aa(lp956
I40411
aI0
aa.