(lp0
(lp1
I87
aI1
aa(lp2
I179
aI1
aa(lp3
I179
aI2
aa(lp4
I179
aI4
aa(lp5
I386
aI0
aa(lp6
I386
aI3
aa(lp7
I628
aI3
aa(lp8
I1174
aI2
aa(lp9
I1516
aI2
aa(lp10
I1516
aI3
aa(lp11
I1580
aI0
aa(lp12
I1580
aI3
aa(lp13
I1580
aI4
aa(lp14
I1718
aI3
aa(lp15
I1817
aI3
aa(lp16
I1817
aI4
aa(lp17
I2156
aI1
aa(lp18
I2156
aI3
aa(lp19
I2460
aI3
aa(lp20
I2806
aI0
aa(lp21
I2806
aI4
aa(lp22
I2900
aI0
aa(lp23
I3179
aI0
aa(lp24
I3179
aI1
aa(lp25
I3179
aI3
aa(lp26
I3332
aI0
aa(lp27
I3352
aI0
aa(lp28
I3433
aI1
aa(lp29
I3433
aI4
aa(lp30
I3645
aI0
aa(lp31
I3645
aI1
aa(lp32
I3645
aI2
aa(lp33
I3645
aI3
aa(lp34
I3645
aI4
aa(lp35
I3806
aI2
aa(lp36
I4006
aI0
aa(lp37
I4006
aI2
aa(lp38
I4006
aI4
aa(lp39
I4140
aI2
aa(lp40
I4140
aI4
aa(lp41
I4816
aI2
aa(lp42
I4978
aI2
aa(lp43
I4978
aI3
aa(lp44
I4978
aI4
aa(lp45
I5041
aI2
aa(lp46
I5358
aI2
aa(lp47
I5561
aI0
aa(lp48
I5561
aI2
aa(lp49
I5561
aI3
aa(lp50
I5561
aI4
aa(lp51
I5610
aI1
aa(lp52
I5644
aI3
aa(lp53
I5674
aI1
aa(lp54
I5859
aI1
aa(lp55
I5859
aI3
aa(lp56
I6159
aI2
aa(lp57
I6159
aI3
aa(lp58
I6159
aI4
aa(lp59
I6258
aI2
aa(lp60
I6650
aI4
aa(lp61
I6991
aI3
aa(lp62
I7791
aI0
aa(lp63
I7791
aI1
aa(lp64
I7791
aI3
aa(lp65
I8273
aI3
aa(lp66
I8517
aI2
aa(lp67
I8573
aI3
aa(lp68
I8728
aI0
aa(lp69
I8728
aI2
aa(lp70
I8728
aI4
aa(lp71
I8831
aI1
aa(lp72
I8831
aI3
aa(lp73
I8840
aI0
aa(lp74
I8840
aI1
aa(lp75
I8840
aI3
aa(lp76
I8840
aI4
aa(lp77
I8861
aI4
aa(lp78
I8901
aI2
aa(lp79
I8901
aI4
aa(lp80
I8966
aI2
aa(lp81
I8966
aI4
aa(lp82
I9089
aI1
aa(lp83
I9224
aI3
aa(lp84
I9344
aI0
aa(lp85
I9344
aI1
aa(lp86
I9344
aI3
aa(lp87
I9344
aI4
aa(lp88
I9381
aI3
aa(lp89
I9381
aI4
aa(lp90
I9867
aI1
aa(lp91
I9965
aI1
aa(lp92
I9965
aI4
aa(lp93
I10585
aI1
aa(lp94
I10641
aI3
aa(lp95
I11127
aI1
aa(lp96
I11156
aI0
aa(lp97
I11196
aI4
aa(lp98
I11290
aI2
aa(lp99
I11290
aI4
aa(lp100
I11477
aI1
aa(lp101
I11477
aI3
aa(lp102
I11705
aI3
aa(lp103
I11887
aI1
aa(lp104
I11943
aI4
aa(lp105
I11950
aI1
aa(lp106
I11950
aI2
aa(lp107
I11950
aI3
aa(lp108
I11977
aI4
aa(lp109
I12108
aI1
aa(lp110
I12108
aI4
aa(lp111
I12359
aI0
aa(lp112
I12359
aI2
aa(lp113
I12359
aI3
aa(lp114
I12840
aI0
aa(lp115
I12840
aI1
aa(lp116
I13333
aI2
aa(lp117
I13333
aI4
aa(lp118
I13448
aI4
aa(lp119
I13595
aI3
aa(lp120
I14078
aI1
aa(lp121
I14078
aI2
aa(lp122
I14176
aI0
aa(lp123
I14176
aI2
aa(lp124
I14176
aI4
aa(lp125
I14304
aI2
aa(lp126
I14942
aI0
aa(lp127
I14973
aI3
aa(lp128
I14973
aI4
aa(lp129
I15155
aI3
aa(lp130
I15173
aI1
aa(lp131
I15173
aI2
aa(lp132
I15446
aI0
aa(lp133
I15511
aI1
aa(lp134
I15556
aI2
aa(lp135
I15556
aI4
aa(lp136
I15759
aI3
aa(lp137
I15817
aI0
aa(lp138
I16006
aI2
aa(lp139
I16006
aI3
aa(lp140
I16112
aI3
aa(lp141
I16112
aI4
aa(lp142
I16169
aI2
aa(lp143
I16221
aI2
aa(lp144
I16283
aI1
aa(lp145
I16399
aI4
aa(lp146
I16432
aI0
aa(lp147
I16474
aI2
aa(lp148
I16560
aI2
aa(lp149
I16852
aI3
aa(lp150
I16911
aI3
aa(lp151
I17043
aI2
aa(lp152
I17073
aI1
aa(lp153
I17073
aI2
aa(lp154
I17073
aI3
aa(lp155
I17073
aI4
aa(lp156
I17688
aI1
aa(lp157
I17688
aI2
aa(lp158
I17688
aI3
aa(lp159
I17688
aI4
aa(lp160
I17786
aI2
aa(lp161
I18498
aI0
aa(lp162
I18498
aI1
aa(lp163
I18498
aI2
aa(lp164
I18498
aI3
aa(lp165
I18498
aI4
aa(lp166
I18525
aI0
aa(lp167
I18525
aI1
aa(lp168
I18525
aI2
aa(lp169
I18525
aI3
aa(lp170
I18525
aI4
aa(lp171
I18578
aI1
aa(lp172
I18965
aI1
aa(lp173
I18984
aI3
aa(lp174
I19272
aI0
aa(lp175
I19272
aI1
aa(lp176
I19272
aI2
aa(lp177
I19272
aI4
aa(lp178
I19330
aI1
aa(lp179
I19561
aI1
aa(lp180
I20495
aI3
aa(lp181
I21109
aI2
aa(lp182
I21344
aI0
aa(lp183
I21540
aI3
aa(lp184
I21579
aI3
aa(lp185
I21675
aI2
aa(lp186
I21731
aI0
aa(lp187
I21731
aI4
aa(lp188
I21761
aI2
aa(lp189
I22343
aI1
aa(lp190
I22343
aI4
aa(lp191
I22580
aI2
aa(lp192
I22690
aI2
aa(lp193
I23138
aI3
aa(lp194
I23624
aI0
aa(lp195
I23624
aI1
aa(lp196
I23642
aI2
aa(lp197
I23658
aI0
aa(lp198
I23658
aI1
aa(lp199
I23658
aI2
aa(lp200
I23658
aI3
aa(lp201
I23658
aI4
aa(lp202
I23861
aI0
aa(lp203
I23861
aI1
aa(lp204
I23861
aI3
aa(lp205
I23861
aI4
aa(lp206
I24131
aI2
aa(lp207
I24131
aI4
aa(lp208
I24170
aI0
aa(lp209
I24170
aI2
aa(lp210
I24170
aI3
aa(lp211
I24170
aI4
aa(lp212
I24542
aI2
aa(lp213
I24544
aI1
aa(lp214
I24544
aI2
aa(lp215
I24544
aI3
aa(lp216
I24735
aI0
aa(lp217
I25044
aI3
aa(lp218
I25426
aI3
aa(lp219
I25800
aI0
aa(lp220
I25800
aI1
aa(lp221
I25813
aI0
aa(lp222
I25984
aI0
aa(lp223
I26226
aI0
aa(lp224
I26226
aI3
aa(lp225
I26226
aI4
aa(lp226
I26462
aI0
aa(lp227
I26462
aI1
aa(lp228
I26462
aI2
aa(lp229
I26462
aI3
aa(lp230
I26462
aI4
aa(lp231
I26502
aI0
aa(lp232
I27121
aI0
aa(lp233
I27131
aI0
aa(lp234
I27142
aI0
aa(lp235
I27186
aI1
aa(lp236
I27190
aI2
aa(lp237
I27190
aI3
aa(lp238
I27190
aI4
aa(lp239
I27387
aI2
aa(lp240
I27387
aI4
aa(lp241
I27456
aI1
aa(lp242
I27636
aI3
aa(lp243
I28050
aI1
aa(lp244
I28050
aI3
aa(lp245
I28052
aI5
aa(lp246
I28113
aI0
aa(lp247
I28124
aI2
aa(lp248
I28124
aI4
aa(lp249
I28237
aI0
aa(lp250
I28584
aI2
aa(lp251
I28620
aI3
aa(lp252
I29141
aI0
aa(lp253
I29421
aI2
aa(lp254
I29421
aI4
aa(lp255
I29613
aI0
aa(lp256
I29715
aI1
aa(lp257
I29715
aI3
aa(lp258
I29743
aI0
aa(lp259
I29743
aI3
aa(lp260
I29836
aI0
aa(lp261
I29836
aI2
aa(lp262
I29836
aI3
aa(lp263
I29836
aI4
aa(lp264
I29875
aI2
aa(lp265
I29875
aI3
aa(lp266
I29875
aI4
aa(lp267
I29876
aI1
aa(lp268
I29876
aI3
aa(lp269
I30700
aI0
aa(lp270
I30700
aI1
aa(lp271
I30700
aI2
aa(lp272
I30700
aI3
aa(lp273
I30700
aI4
aa(lp274
I30817
aI0
aa(lp275
I30820
aI3
aa(lp276
I30820
aI4
aa(lp277
I31164
aI0
aa(lp278
I31177
aI0
aa(lp279
I31177
aI2
aa(lp280
I31177
aI3
aa(lp281
I31398
aI4
aa(lp282
I31460
aI3
aa(lp283
I31614
aI4
aa(lp284
I31732
aI0
aa(lp285
I31732
aI1
aa(lp286
I31732
aI2
aa(lp287
I31732
aI3
aa(lp288
I31732
aI4
aa(lp289
I31772
aI0
aa(lp290
I31772
aI1
aa(lp291
I31772
aI2
aa(lp292
I31772
aI3
aa(lp293
I31897
aI0
aa(lp294
I31897
aI2
aa(lp295
I31897
aI3
aa(lp296
I31897
aI4
aa(lp297
I32135
aI2
aa(lp298
I32135
aI3
aa(lp299
I32135
aI4
aa(lp300
I32173
aI2
aa(lp301
I32324
aI2
aa(lp302
I33046
aI0
aa(lp303
I33075
aI0
aa(lp304
I33153
aI2
aa(lp305
I33211
aI2
aa(lp306
I33454
aI2
aa(lp307
I33454
aI4
aa(lp308
I33477
aI2
aa(lp309
I33664
aI1
aa(lp310
I33683
aI1
aa(lp311
I33787
aI2
aa(lp312
I34083
aI4
aa(lp313
I34164
aI0
aa(lp314
I34164
aI1
aa(lp315
I34164
aI2
aa(lp316
I34164
aI3
aa(lp317
I34164
aI4
aa(lp318
I34250
aI0
aa(lp319
I34250
aI1
aa(lp320
I34250
aI2
aa(lp321
I34732
aI1
aa(lp322
I34732
aI2
aa(lp323
I34906
aI4
aa(lp324
I35027
aI0
aa(lp325
I35027
aI2
aa(lp326
I35216
aI3
aa(lp327
I35223
aI0
aa(lp328
I35223
aI3
aa(lp329
I35410
aI0
aa(lp330
I35447
aI0
aa(lp331
I35447
aI4
aa(lp332
I35477
aI0
aa(lp333
I35477
aI4
aa(lp334
I35493
aI1
aa(lp335
I35493
aI4
aa(lp336
I35577
aI3
aa(lp337
I35577
aI4
aa(lp338
I35716
aI0
aa(lp339
I35716
aI1
aa(lp340
I35716
aI3
aa(lp341
I35757
aI0
aa(lp342
I35757
aI3
aa(lp343
I35757
aI4
aa(lp344
I35874
aI1
aa(lp345
I36243
aI3
aa(lp346
I36276
aI1
aa(lp347
I36709
aI4
aa(lp348
I36778
aI0
aa(lp349
I36812
aI4
aa(lp350
I37289
aI2
aa(lp351
I37289
aI3
aa(lp352
I37305
aI0
aa(lp353
I37990
aI0
aa(lp354
I37990
aI1
aa(lp355
I37990
aI3
aa(lp356
I37990
aI4
aa(lp357
I38323
aI2
aa(lp358
I38323
aI3
aa(lp359
I38323
aI4
aa(lp360
I38373
aI4
aa(lp361
I38456
aI1
aa(lp362
I38679
aI1
aa(lp363
I38730
aI3
aa(lp364
I38763
aI0
aa(lp365
I38763
aI2
aa(lp366
I38763
aI3
aa(lp367
I38763
aI4
aa(lp368
I39482
aI0
aa(lp369
I39482
aI4
aa(lp370
I39813
aI2
aa(lp371
I39813
aI3
aa(lp372
I39813
aI4
aa(lp373
I39894
aI4
aa(lp374
I40322
aI0
aa(lp375
I40322
aI3
aa(lp376
I40418
aI4
aa.