(lp0
(lp1
I59
aI1
aa(lp2
I59
aI4
aa(lp3
I239
aI3
aa(lp4
I268
aI2
aa(lp5
I446
aI0
aa(lp6
I687
aI4
aa(lp7
I781
aI1
aa(lp8
I1127
aI0
aa(lp9
I1426
aI0
aa(lp10
I1426
aI3
aa(lp11
I1426
aI4
aa(lp12
I1450
aI2
aa(lp13
I1513
aI0
aa(lp14
I1674
aI1
aa(lp15
I1721
aI3
aa(lp16
I1884
aI2
aa(lp17
I1885
aI1
aa(lp18
I1885
aI2
aa(lp19
I1885
aI3
aa(lp20
I1885
aI4
aa(lp21
I2110
aI0
aa(lp22
I2110
aI1
aa(lp23
I2169
aI0
aa(lp24
I2292
aI2
aa(lp25
I2306
aI3
aa(lp26
I2317
aI2
aa(lp27
I2468
aI1
aa(lp28
I2523
aI4
aa(lp29
I2680
aI3
aa(lp30
I2767
aI1
aa(lp31
I2921
aI3
aa(lp32
I3111
aI3
aa(lp33
I3305
aI2
aa(lp34
I3323
aI0
aa(lp35
I3323
aI1
aa(lp36
I3323
aI2
aa(lp37
I3323
aI3
aa(lp38
I3323
aI4
aa(lp39
I3380
aI3
aa(lp40
I3511
aI3
aa(lp41
I3522
aI1
aa(lp42
I3648
aI1
aa(lp43
I3648
aI2
aa(lp44
I3648
aI3
aa(lp45
I3648
aI4
aa(lp46
I3941
aI1
aa(lp47
I4042
aI0
aa(lp48
I4042
aI1
aa(lp49
I4042
aI2
aa(lp50
I4042
aI3
aa(lp51
I4081
aI3
aa(lp52
I4175
aI4
aa(lp53
I4285
aI4
aa(lp54
I4291
aI0
aa(lp55
I4291
aI1
aa(lp56
I4291
aI3
aa(lp57
I4439
aI1
aa(lp58
I4439
aI4
aa(lp59
I4651
aI0
aa(lp60
I4651
aI1
aa(lp61
I4672
aI1
aa(lp62
I4692
aI0
aa(lp63
I4692
aI2
aa(lp64
I4692
aI4
aa(lp65
I5121
aI2
aa(lp66
I5121
aI4
aa(lp67
I5138
aI0
aa(lp68
I5328
aI1
aa(lp69
I5424
aI1
aa(lp70
I5424
aI3
aa(lp71
I5581
aI3
aa(lp72
I5581
aI4
aa(lp73
I5626
aI3
aa(lp74
I5631
aI3
aa(lp75
I5664
aI1
aa(lp76
I5702
aI1
aa(lp77
I5733
aI4
aa(lp78
I5770
aI0
aa(lp79
I5770
aI3
aa(lp80
I5803
aI1
aa(lp81
I5834
aI0
aa(lp82
I5998
aI0
aa(lp83
I5998
aI1
aa(lp84
I5998
aI4
aa(lp85
I6173
aI4
aa(lp86
I6213
aI3
aa(lp87
I6217
aI1
aa(lp88
I6217
aI2
aa(lp89
I6217
aI3
aa(lp90
I6299
aI2
aa(lp91
I6299
aI3
aa(lp92
I6319
aI1
aa(lp93
I6381
aI3
aa(lp94
I6387
aI2
aa(lp95
I6576
aI1
aa(lp96
I6576
aI2
aa(lp97
I6681
aI1
aa(lp98
I7127
aI4
aa(lp99
I7241
aI1
aa(lp100
I7277
aI0
aa(lp101
I7401
aI1
aa(lp102
I7635
aI3
aa(lp103
I7731
aI3
aa(lp104
I7741
aI0
aa(lp105
I8544
aI0
aa(lp106
I8544
aI4
aa(lp107
I8572
aI1
aa(lp108
I8572
aI2
aa(lp109
I8572
aI3
aa(lp110
I8748
aI0
aa(lp111
I8910
aI1
aa(lp112
I8992
aI2
aa(lp113
I8992
aI3
aa(lp114
I9073
aI3
aa(lp115
I9093
aI1
aa(lp116
I9093
aI3
aa(lp117
I9229
aI3
aa(lp118
I9375
aI2
aa(lp119
I9375
aI4
aa(lp120
I9400
aI4
aa(lp121
I9884
aI2
aa(lp122
I9984
aI1
aa(lp123
I9984
aI2
aa(lp124
I9984
aI4
aa(lp125
I10013
aI2
aa(lp126
I10124
aI0
aa(lp127
I10124
aI4
aa(lp128
I10184
aI1
aa(lp129
I10184
aI2
aa(lp130
I10184
aI3
aa(lp131
I10184
aI4
aa(lp132
I10214
aI4
aa(lp133
I10449
aI1
aa(lp134
I10566
aI1
aa(lp135
I10566
aI3
aa(lp136
I10672
aI2
aa(lp137
I10672
aI4
aa(lp138
I11121
aI1
aa(lp139
I11276
aI1
aa(lp140
I11276
aI3
aa(lp141
I11288
aI3
aa(lp142
I11427
aI4
aa(lp143
I11440
aI0
aa(lp144
I11460
aI4
aa(lp145
I11562
aI4
aa(lp146
I11764
aI0
aa(lp147
I11764
aI1
aa(lp148
I12115
aI0
aa(lp149
I12153
aI1
aa(lp150
I12403
aI1
aa(lp151
I12403
aI2
aa(lp152
I12403
aI3
aa(lp153
I12403
aI4
aa(lp154
I12640
aI1
aa(lp155
I12646
aI1
aa(lp156
I12768
aI0
aa(lp157
I12779
aI0
aa(lp158
I12779
aI2
aa(lp159
I12781
aI2
aa(lp160
I12781
aI4
aa(lp161
I12888
aI1
aa(lp162
I12888
aI2
aa(lp163
I12935
aI2
aa(lp164
I13011
aI0
aa(lp165
I13011
aI3
aa(lp166
I13011
aI4
aa(lp167
I13121
aI1
aa(lp168
I13281
aI4
aa(lp169
I13853
aI2
aa(lp170
I13853
aI3
aa(lp171
I13853
aI4
aa(lp172
I13986
aI2
aa(lp173
I14079
aI1
aa(lp174
I14079
aI2
aa(lp175
I14278
aI0
aa(lp176
I14278
aI2
aa(lp177
I14287
aI4
aa(lp178
I14371
aI0
aa(lp179
I14375
aI1
aa(lp180
I14375
aI2
aa(lp181
I14375
aI3
aa(lp182
I14482
aI4
aa(lp183
I14858
aI0
aa(lp184
I14858
aI1
aa(lp185
I14858
aI4
aa(lp186
I15066
aI1
aa(lp187
I15254
aI0
aa(lp188
I15472
aI0
aa(lp189
I15666
aI0
aa(lp190
I15666
aI2
aa(lp191
I15666
aI4
aa(lp192
I15685
aI2
aa(lp193
I15784
aI2
aa(lp194
I15784
aI3
aa(lp195
I15814
aI1
aa(lp196
I15814
aI2
aa(lp197
I15814
aI3
aa(lp198
I15860
aI1
aa(lp199
I15872
aI4
aa(lp200
I15877
aI2
aa(lp201
I15903
aI3
aa(lp202
I16170
aI2
aa(lp203
I16350
aI2
aa(lp204
I16622
aI0
aa(lp205
I16622
aI1
aa(lp206
I16622
aI2
aa(lp207
I16661
aI1
aa(lp208
I16686
aI1
aa(lp209
I16836
aI3
aa(lp210
I16997
aI4
aa(lp211
I17016
aI2
aa(lp212
I17037
aI3
aa(lp213
I17184
aI0
aa(lp214
I17184
aI1
aa(lp215
I17240
aI2
aa(lp216
I17240
aI4
aa(lp217
I17498
aI0
aa(lp218
I17598
aI0
aa(lp219
I17598
aI2
aa(lp220
I17917
aI3
aa(lp221
I17943
aI3
aa(lp222
I17943
aI4
aa(lp223
I18093
aI1
aa(lp224
I18093
aI4
aa(lp225
I18130
aI3
aa(lp226
I18327
aI3
aa(lp227
I18548
aI0
aa(lp228
I18548
aI1
aa(lp229
I18717
aI3
aa(lp230
I18794
aI0
aa(lp231
I18822
aI1
aa(lp232
I18867
aI2
aa(lp233
I19262
aI0
aa(lp234
I19302
aI1
aa(lp235
I19333
aI0
aa(lp236
I19333
aI4
aa(lp237
I19615
aI0
aa(lp238
I19684
aI0
aa(lp239
I19811
aI4
aa(lp240
I19963
aI0
aa(lp241
I20006
aI0
aa(lp242
I20006
aI2
aa(lp243
I20176
aI2
aa(lp244
I20338
aI4
aa(lp245
I20357
aI1
aa(lp246
I20410
aI2
aa(lp247
I20516
aI4
aa(lp248
I20759
aI0
aa(lp249
I20759
aI4
aa(lp250
I21010
aI2
aa(lp251
I21010
aI4
aa(lp252
I21011
aI1
aa(lp253
I21011
aI2
aa(lp254
I21011
aI3
aa(lp255
I21143
aI1
aa(lp256
I21299
aI0
aa(lp257
I21299
aI2
aa(lp258
I21299
aI4
aa(lp259
I21449
aI0
aa(lp260
I21688
aI0
aa(lp261
I22006
aI1
aa(lp262
I22127
aI0
aa(lp263
I22129
aI0
aa(lp264
I22230
aI3
aa(lp265
I22360
aI2
aa(lp266
I22576
aI2
aa(lp267
I22615
aI3
aa(lp268
I22785
aI2
aa(lp269
I22806
aI0
aa(lp270
I22844
aI0
aa(lp271
I22844
aI1
aa(lp272
I22844
aI2
aa(lp273
I22867
aI1
aa(lp274
I22867
aI4
aa(lp275
I22976
aI4
aa(lp276
I22977
aI0
aa(lp277
I23022
aI2
aa(lp278
I23022
aI3
aa(lp279
I23064
aI2
aa(lp280
I23182
aI1
aa(lp281
I23336
aI2
aa(lp282
I23719
aI2
aa(lp283
I23719
aI3
aa(lp284
I23765
aI3
aa(lp285
I23765
aI4
aa(lp286
I24020
aI0
aa(lp287
I24020
aI3
aa(lp288
I24020
aI4
aa(lp289
I24179
aI1
aa(lp290
I24214
aI3
aa(lp291
I24231
aI0
aa(lp292
I24274
aI2
aa(lp293
I24315
aI2
aa(lp294
I24438
aI2
aa(lp295
I24458
aI0
aa(lp296
I24791
aI0
aa(lp297
I24791
aI1
aa(lp298
I24791
aI3
aa(lp299
I24791
aI4
aa(lp300
I24920
aI3
aa(lp301
I24920
aI4
aa(lp302
I24930
aI1
aa(lp303
I24930
aI3
aa(lp304
I25265
aI2
aa(lp305
I25274
aI2
aa(lp306
I25402
aI1
aa(lp307
I25690
aI2
aa(lp308
I25697
aI0
aa(lp309
I25697
aI1
aa(lp310
I26003
aI1
aa(lp311
I26090
aI2
aa(lp312
I26182
aI2
aa(lp313
I26495
aI4
aa(lp314
I26522
aI1
aa(lp315
I26527
aI4
aa(lp316
I26596
aI2
aa(lp317
I26901
aI0
aa(lp318
I26907
aI2
aa(lp319
I26965
aI0
aa(lp320
I26965
aI2
aa(lp321
I26965
aI3
aa(lp322
I26965
aI4
aa(lp323
I26995
aI4
aa(lp324
I27071
aI2
aa(lp325
I27279
aI0
aa(lp326
I27279
aI2
aa(lp327
I27325
aI3
aa(lp328
I27563
aI2
aa(lp329
I27630
aI1
aa(lp330
I27687
aI3
aa(lp331
I27693
aI4
aa(lp332
I27698
aI1
aa(lp333
I27750
aI0
aa(lp334
I27942
aI1
aa(lp335
I28099
aI0
aa(lp336
I28099
aI1
aa(lp337
I28279
aI2
aa(lp338
I28291
aI1
aa(lp339
I28356
aI1
aa(lp340
I28365
aI0
aa(lp341
I28365
aI1
aa(lp342
I28572
aI2
aa(lp343
I28572
aI3
aa(lp344
I28624
aI0
aa(lp345
I28776
aI4
aa(lp346
I28783
aI0
aa(lp347
I28956
aI1
aa(lp348
I28956
aI3
aa(lp349
I28967
aI1
aa(lp350
I28967
aI2
aa(lp351
I29018
aI1
aa(lp352
I29029
aI0
aa(lp353
I29069
aI3
aa(lp354
I29099
aI0
aa(lp355
I29116
aI4
aa(lp356
I29393
aI0
aa(lp357
I29463
aI0
aa(lp358
I29463
aI1
aa(lp359
I29463
aI2
aa(lp360
I29923
aI0
aa(lp361
I29923
aI1
aa(lp362
I30107
aI1
aa(lp363
I30107
aI2
aa(lp364
I30107
aI4
aa(lp365
I30110
aI1
aa(lp366
I30140
aI1
aa(lp367
I30140
aI2
aa(lp368
I30140
aI3
aa(lp369
I30147
aI0
aa(lp370
I30275
aI1
aa(lp371
I30599
aI4
aa(lp372
I31004
aI1
aa(lp373
I31004
aI4
aa(lp374
I31011
aI4
aa(lp375
I31119
aI4
aa(lp376
I31236
aI0
aa(lp377
I31415
aI1
aa(lp378
I31415
aI3
aa(lp379
I31510
aI0
aa(lp380
I31510
aI1
aa(lp381
I31527
aI1
aa(lp382
I31529
aI2
aa(lp383
I31564
aI3
aa(lp384
I31566
aI3
aa(lp385
I31788
aI1
aa(lp386
I31788
aI2
aa(lp387
I31788
aI3
aa(lp388
I31870
aI3
aa(lp389
I31989
aI0
aa(lp390
I31989
aI1
aa(lp391
I32128
aI4
aa(lp392
I32241
aI0
aa(lp393
I32241
aI2
aa(lp394
I32241
aI3
aa(lp395
I32241
aI4
aa(lp396
I32265
aI4
aa(lp397
I32316
aI0
aa(lp398
I32316
aI3
aa(lp399
I32350
aI0
aa(lp400
I32420
aI0
aa(lp401
I32420
aI1
aa(lp402
I32420
aI4
aa(lp403
I32569
aI4
aa(lp404
I32685
aI2
aa(lp405
I32731
aI0
aa(lp406
I32750
aI1
aa(lp407
I32750
aI2
aa(lp408
I32795
aI4
aa(lp409
I33034
aI1
aa(lp410
I33034
aI4
aa(lp411
I33246
aI2
aa(lp412
I33790
aI3
aa(lp413
I33842
aI0
aa(lp414
I34022
aI3
aa(lp415
I34046
aI4
aa(lp416
I34203
aI2
aa(lp417
I34421
aI1
aa(lp418
I34665
aI4
aa(lp419
I34679
aI2
aa(lp420
I34679
aI4
aa(lp421
I34705
aI1
aa(lp422
I34831
aI0
aa(lp423
I34831
aI1
aa(lp424
I34831
aI2
aa(lp425
I35213
aI2
aa(lp426
I35323
aI0
aa(lp427
I35323
aI1
aa(lp428
I35323
aI2
aa(lp429
I35323
aI4
aa(lp430
I35347
aI1
aa(lp431
I35347
aI3
aa(lp432
I35478
aI1
aa(lp433
I35478
aI2
aa(lp434
I35495
aI0
aa(lp435
I35496
aI2
aa(lp436
I35496
aI3
aa(lp437
I35496
aI4
aa(lp438
I35751
aI0
aa(lp439
I35799
aI0
aa(lp440
I35799
aI1
aa(lp441
I36225
aI1
aa(lp442
I36225
aI4
aa(lp443
I36477
aI1
aa(lp444
I36477
aI3
aa(lp445
I36798
aI1
aa(lp446
I36798
aI4
aa(lp447
I36842
aI1
aa(lp448
I36842
aI3
aa(lp449
I36842
aI4
aa(lp450
I36918
aI1
aa(lp451
I36932
aI2
aa(lp452
I37007
aI3
aa(lp453
I37242
aI0
aa(lp454
I37318
aI1
aa(lp455
I37691
aI0
aa(lp456
I37764
aI0
aa(lp457
I37813
aI2
aa(lp458
I37813
aI3
aa(lp459
I37813
aI4
aa(lp460
I37857
aI0
aa(lp461
I37857
aI2
aa(lp462
I37958
aI0
aa(lp463
I38027
aI1
aa(lp464
I38109
aI0
aa(lp465
I38135
aI1
aa(lp466
I38353
aI3
aa(lp467
I38421
aI0
aa(lp468
I38421
aI1
aa(lp469
I38421
aI3
aa(lp470
I38528
aI0
aa(lp471
I38528
aI2
aa(lp472
I38528
aI4
aa(lp473
I38602
aI0
aa(lp474
I38602
aI2
aa(lp475
I38602
aI3
aa(lp476
I38624
aI0
aa(lp477
I38624
aI2
aa(lp478
I38754
aI2
aa(lp479
I38827
aI0
aa(lp480
I38827
aI1
aa(lp481
I38827
aI3
aa(lp482
I39168
aI2
aa(lp483
I39513
aI0
aa(lp484
I39621
aI4
aa(lp485
I39764
aI2
aa(lp486
I39824
aI0
aa(lp487
I39857
aI0
aa(lp488
I39964
aI3
aa(lp489
I40090
aI0
aa(lp490
I40090
aI1
aa(lp491
I40090
aI4
aa(lp492
I40134
aI4
aa(lp493
I40276
aI0
aa(lp494
I40304
aI1
aa(lp495
I40304
aI4
aa.