(lp0
(lp1
I30
aI1
aa(lp2
I30
aI2
aa(lp3
I30
aI4
aa(lp4
I61
aI3
aa(lp5
I504
aI0
aa(lp6
I504
aI3
aa(lp7
I632
aI1
aa(lp8
I656
aI0
aa(lp9
I717
aI0
aa(lp10
I717
aI1
aa(lp11
I717
aI2
aa(lp12
I722
aI1
aa(lp13
I722
aI3
aa(lp14
I760
aI0
aa(lp15
I789
aI1
aa(lp16
I839
aI0
aa(lp17
I839
aI1
aa(lp18
I839
aI4
aa(lp19
I921
aI2
aa(lp20
I948
aI1
aa(lp21
I948
aI3
aa(lp22
I1112
aI0
aa(lp23
I1158
aI0
aa(lp24
I1158
aI3
aa(lp25
I1183
aI1
aa(lp26
I1183
aI2
aa(lp27
I1319
aI0
aa(lp28
I1319
aI4
aa(lp29
I1407
aI2
aa(lp30
I1407
aI3
aa(lp31
I1526
aI0
aa(lp32
I1526
aI3
aa(lp33
I1526
aI4
aa(lp34
I1639
aI1
aa(lp35
I1639
aI2
aa(lp36
I1639
aI4
aa(lp37
I1662
aI0
aa(lp38
I1686
aI1
aa(lp39
I1686
aI3
aa(lp40
I1720
aI1
aa(lp41
I1720
aI2
aa(lp42
I1841
aI4
aa(lp43
I1956
aI3
aa(lp44
I2140
aI2
aa(lp45
I2477
aI0
aa(lp46
I2477
aI3
aa(lp47
I2530
aI0
aa(lp48
I2861
aI0
aa(lp49
I3281
aI2
aa(lp50
I3281
aI3
aa(lp51
I3418
aI3
aa(lp52
I3418
aI4
aa(lp53
I3463
aI1
aa(lp54
I3463
aI3
aa(lp55
I3463
aI4
aa(lp56
I3661
aI0
aa(lp57
I3661
aI1
aa(lp58
I3878
aI0
aa(lp59
I3878
aI1
aa(lp60
I3941
aI1
aa(lp61
I4008
aI1
aa(lp62
I4033
aI0
aa(lp63
I4102
aI0
aa(lp64
I4185
aI0
aa(lp65
I4185
aI1
aa(lp66
I4185
aI2
aa(lp67
I4192
aI0
aa(lp68
I4192
aI2
aa(lp69
I4192
aI3
aa(lp70
I4262
aI0
aa(lp71
I4262
aI2
aa(lp72
I4268
aI0
aa(lp73
I4310
aI1
aa(lp74
I4310
aI4
aa(lp75
I4375
aI4
aa(lp76
I4456
aI0
aa(lp77
I4456
aI1
aa(lp78
I4456
aI2
aa(lp79
I4457
aI1
aa(lp80
I4532
aI4
aa(lp81
I4564
aI1
aa(lp82
I4564
aI3
aa(lp83
I4594
aI0
aa(lp84
I4594
aI2
aa(lp85
I4605
aI1
aa(lp86
I4773
aI0
aa(lp87
I4773
aI2
aa(lp88
I4773
aI4
aa(lp89
I4809
aI1
aa(lp90
I4809
aI2
aa(lp91
I5024
aI0
aa(lp92
I5024
aI1
aa(lp93
I5269
aI0
aa(lp94
I5594
aI2
aa(lp95
I5594
aI3
aa(lp96
I5594
aI4
aa(lp97
I5649
aI1
aa(lp98
I5871
aI0
aa(lp99
I5871
aI1
aa(lp100
I5871
aI3
aa(lp101
I6017
aI0
aa(lp102
I6017
aI1
aa(lp103
I6017
aI2
aa(lp104
I6065
aI1
aa(lp105
I6065
aI2
aa(lp106
I6285
aI0
aa(lp107
I6285
aI1
aa(lp108
I6285
aI3
aa(lp109
I6610
aI1
aa(lp110
I6610
aI3
aa(lp111
I6610
aI4
aa(lp112
I6738
aI4
aa(lp113
I6998
aI0
aa(lp114
I7004
aI3
aa(lp115
I7061
aI2
aa(lp116
I7061
aI4
aa(lp117
I7141
aI0
aa(lp118
I7141
aI1
aa(lp119
I7141
aI2
aa(lp120
I7141
aI3
aa(lp121
I7141
aI4
aa(lp122
I7284
aI0
aa(lp123
I7286
aI1
aa(lp124
I7321
aI1
aa(lp125
I7398
aI1
aa(lp126
I7702
aI1
aa(lp127
I8074
aI0
aa(lp128
I8074
aI4
aa(lp129
I8100
aI4
aa(lp130
I8146
aI3
aa(lp131
I8180
aI1
aa(lp132
I8272
aI0
aa(lp133
I8272
aI1
aa(lp134
I8285
aI1
aa(lp135
I8332
aI0
aa(lp136
I8429
aI4
aa(lp137
I8569
aI4
aa(lp138
I8570
aI1
aa(lp139
I8627
aI0
aa(lp140
I8627
aI3
aa(lp141
I8975
aI0
aa(lp142
I9268
aI2
aa(lp143
I9361
aI0
aa(lp144
I9361
aI4
aa(lp145
I9411
aI0
aa(lp146
I9411
aI4
aa(lp147
I9543
aI2
aa(lp148
I9543
aI4
aa(lp149
I9707
aI0
aa(lp150
I10042
aI3
aa(lp151
I10042
aI4
aa(lp152
I10105
aI0
aa(lp153
I10105
aI1
aa(lp154
I10105
aI2
aa(lp155
I10105
aI4
aa(lp156
I10217
aI0
aa(lp157
I10217
aI1
aa(lp158
I10221
aI0
aa(lp159
I10221
aI1
aa(lp160
I10289
aI0
aa(lp161
I10289
aI2
aa(lp162
I10289
aI4
aa(lp163
I10386
aI0
aa(lp164
I10405
aI1
aa(lp165
I10405
aI4
aa(lp166
I10499
aI3
aa(lp167
I10718
aI1
aa(lp168
I10761
aI3
aa(lp169
I10819
aI0
aa(lp170
I10819
aI3
aa(lp171
I10862
aI0
aa(lp172
I11064
aI1
aa(lp173
I11175
aI2
aa(lp174
I11203
aI2
aa(lp175
I11240
aI0
aa(lp176
I11317
aI4
aa(lp177
I11405
aI1
aa(lp178
I11405
aI3
aa(lp179
I11533
aI4
aa(lp180
I11598
aI4
aa(lp181
I11738
aI0
aa(lp182
I11738
aI2
aa(lp183
I11810
aI2
aa(lp184
I11819
aI0
aa(lp185
I11819
aI2
aa(lp186
I11940
aI3
aa(lp187
I11942
aI2
aa(lp188
I11942
aI4
aa(lp189
I11968
aI1
aa(lp190
I11968
aI4
aa(lp191
I11984
aI1
aa(lp192
I11984
aI2
aa(lp193
I11984
aI3
aa(lp194
I11984
aI4
aa(lp195
I12024
aI2
aa(lp196
I12024
aI3
aa(lp197
I12064
aI0
aa(lp198
I12064
aI4
aa(lp199
I12113
aI2
aa(lp200
I12120
aI2
aa(lp201
I12128
aI0
aa(lp202
I12555
aI0
aa(lp203
I12694
aI0
aa(lp204
I12694
aI2
aa(lp205
I12694
aI3
aa(lp206
I12737
aI4
aa(lp207
I12961
aI0
aa(lp208
I12961
aI2
aa(lp209
I12977
aI1
aa(lp210
I13050
aI1
aa(lp211
I13050
aI2
aa(lp212
I13088
aI1
aa(lp213
I13088
aI2
aa(lp214
I13221
aI0
aa(lp215
I13221
aI1
aa(lp216
I13221
aI2
aa(lp217
I13221
aI3
aa(lp218
I13246
aI0
aa(lp219
I13463
aI2
aa(lp220
I13463
aI4
aa(lp221
I13776
aI1
aa(lp222
I13824
aI0
aa(lp223
I13918
aI0
aa(lp224
I13918
aI2
aa(lp225
I14000
aI0
aa(lp226
I14000
aI1
aa(lp227
I14000
aI2
aa(lp228
I14143
aI0
aa(lp229
I14143
aI2
aa(lp230
I14143
aI3
aa(lp231
I14230
aI2
aa(lp232
I14314
aI0
aa(lp233
I14334
aI4
aa(lp234
I14473
aI3
aa(lp235
I14516
aI0
aa(lp236
I14516
aI3
aa(lp237
I14583
aI0
aa(lp238
I14583
aI1
aa(lp239
I14583
aI3
aa(lp240
I14583
aI4
aa(lp241
I15675
aI0
aa(lp242
I15675
aI1
aa(lp243
I15675
aI2
aa(lp244
I15675
aI4
aa(lp245
I15723
aI4
aa(lp246
I15821
aI0
aa(lp247
I15892
aI2
aa(lp248
I16079
aI2
aa(lp249
I16079
aI4
aa(lp250
I16211
aI1
aa(lp251
I16396
aI0
aa(lp252
I16396
aI1
aa(lp253
I16396
aI3
aa(lp254
I16396
aI4
aa(lp255
I16412
aI0
aa(lp256
I16412
aI1
aa(lp257
I16412
aI3
aa(lp258
I16412
aI4
aa(lp259
I16503
aI0
aa(lp260
I16503
aI1
aa(lp261
I16503
aI2
aa(lp262
I16503
aI3
aa(lp263
I16609
aI2
aa(lp264
I16885
aI1
aa(lp265
I16894
aI0
aa(lp266
I16894
aI4
aa(lp267
I16917
aI0
aa(lp268
I16917
aI2
aa(lp269
I16917
aI4
aa(lp270
I16927
aI0
aa(lp271
I16944
aI1
aa(lp272
I16944
aI2
aa(lp273
I16944
aI4
aa(lp274
I17055
aI3
aa(lp275
I17119
aI2
aa(lp276
I17402
aI0
aa(lp277
I17402
aI1
aa(lp278
I17402
aI2
aa(lp279
I17402
aI4
aa(lp280
I17714
aI0
aa(lp281
I17714
aI1
aa(lp282
I17714
aI4
aa(lp283
I17871
aI1
aa(lp284
I17902
aI0
aa(lp285
I18014
aI3
aa(lp286
I18021
aI1
aa(lp287
I18484
aI0
aa(lp288
I18484
aI3
aa(lp289
I18512
aI2
aa(lp290
I18593
aI0
aa(lp291
I18593
aI3
aa(lp292
I18593
aI4
aa(lp293
I18676
aI2
aa(lp294
I18747
aI1
aa(lp295
I18833
aI1
aa(lp296
I19039
aI1
aa(lp297
I19039
aI2
aa(lp298
I19039
aI4
aa(lp299
I19107
aI0
aa(lp300
I19170
aI0
aa(lp301
I19170
aI1
aa(lp302
I19170
aI4
aa(lp303
I19174
aI2
aa(lp304
I19198
aI0
aa(lp305
I19326
aI4
aa(lp306
I19344
aI2
aa(lp307
I19344
aI3
aa(lp308
I19426
aI4
aa(lp309
I19427
aI4
aa(lp310
I19688
aI0
aa(lp311
I19688
aI1
aa(lp312
I19688
aI4
aa(lp313
I19745
aI3
aa(lp314
I19770
aI2
aa(lp315
I19863
aI0
aa(lp316
I19863
aI2
aa(lp317
I19863
aI4
aa(lp318
I19950
aI1
aa(lp319
I19950
aI4
aa(lp320
I19957
aI0
aa(lp321
I19957
aI1
aa(lp322
I19993
aI3
aa(lp323
I19993
aI4
aa(lp324
I20149
aI2
aa(lp325
I20149
aI4
aa(lp326
I20156
aI0
aa(lp327
I20156
aI1
aa(lp328
I20190
aI3
aa(lp329
I20248
aI2
aa(lp330
I20754
aI2
aa(lp331
I20878
aI3
aa(lp332
I20920
aI2
aa(lp333
I20945
aI4
aa(lp334
I21378
aI1
aa(lp335
I21490
aI1
aa(lp336
I21490
aI4
aa(lp337
I21534
aI4
aa(lp338
I21580
aI4
aa(lp339
I21739
aI1
aa(lp340
I21739
aI2
aa(lp341
I21827
aI2
aa(lp342
I21894
aI4
aa(lp343
I22049
aI3
aa(lp344
I22214
aI2
aa(lp345
I22311
aI1
aa(lp346
I22311
aI2
aa(lp347
I22311
aI3
aa(lp348
I22318
aI1
aa(lp349
I22318
aI3
aa(lp350
I22644
aI1
aa(lp351
I22651
aI2
aa(lp352
I22673
aI4
aa(lp353
I22824
aI4
aa(lp354
I22987
aI2
aa(lp355
I23156
aI4
aa(lp356
I23243
aI4
aa(lp357
I23267
aI2
aa(lp358
I23464
aI1
aa(lp359
I23464
aI3
aa(lp360
I23480
aI0
aa(lp361
I23499
aI1
aa(lp362
I23499
aI4
aa(lp363
I23676
aI2
aa(lp364
I23923
aI2
aa(lp365
I23976
aI3
aa(lp366
I24054
aI3
aa(lp367
I24204
aI1
aa(lp368
I24260
aI2
aa(lp369
I24356
aI1
aa(lp370
I24356
aI2
aa(lp371
I24368
aI1
aa(lp372
I24368
aI2
aa(lp373
I24501
aI1
aa(lp374
I24501
aI2
aa(lp375
I24501
aI4
aa(lp376
I24709
aI1
aa(lp377
I24893
aI1
aa(lp378
I25115
aI1
aa(lp379
I25115
aI4
aa(lp380
I25225
aI2
aa(lp381
I25263
aI2
aa(lp382
I25352
aI1
aa(lp383
I25357
aI0
aa(lp384
I25357
aI1
aa(lp385
I25486
aI1
aa(lp386
I25486
aI3
aa(lp387
I25729
aI0
aa(lp388
I25729
aI3
aa(lp389
I25912
aI4
aa(lp390
I25950
aI0
aa(lp391
I25950
aI4
aa(lp392
I26092
aI0
aa(lp393
I26092
aI1
aa(lp394
I26092
aI2
aa(lp395
I26092
aI4
aa(lp396
I26790
aI1
aa(lp397
I26790
aI2
aa(lp398
I26790
aI3
aa(lp399
I26806
aI4
aa(lp400
I26834
aI3
aa(lp401
I26903
aI3
aa(lp402
I27089
aI0
aa(lp403
I27407
aI2
aa(lp404
I27498
aI4
aa(lp405
I27599
aI1
aa(lp406
I27599
aI3
aa(lp407
I27599
aI4
aa(lp408
I27689
aI0
aa(lp409
I27689
aI3
aa(lp410
I27725
aI1
aa(lp411
I27728
aI1
aa(lp412
I27744
aI1
aa(lp413
I27744
aI2
aa(lp414
I27744
aI3
aa(lp415
I27828
aI1
aa(lp416
I27877
aI2
aa(lp417
I27905
aI2
aa(lp418
I27905
aI4
aa(lp419
I27962
aI0
aa(lp420
I28138
aI1
aa(lp421
I28138
aI3
aa(lp422
I28301
aI0
aa(lp423
I28301
aI1
aa(lp424
I28301
aI3
aa(lp425
I28301
aI4
aa(lp426
I28341
aI4
aa(lp427
I28402
aI0
aa(lp428
I28402
aI2
aa(lp429
I28505
aI0
aa(lp430
I28505
aI2
aa(lp431
I28505
aI3
aa(lp432
I28505
aI4
aa(lp433
I28571
aI0
aa(lp434
I28571
aI3
aa(lp435
I28659
aI4
aa(lp436
I28661
aI1
aa(lp437
I28661
aI2
aa(lp438
I28661
aI3
aa(lp439
I28745
aI1
aa(lp440
I28787
aI0
aa(lp441
I28787
aI2
aa(lp442
I28787
aI3
aa(lp443
I28787
aI4
aa(lp444
I28893
aI4
aa(lp445
I29086
aI0
aa(lp446
I29086
aI1
aa(lp447
I29086
aI3
aa(lp448
I29086
aI4
aa(lp449
I29177
aI3
aa(lp450
I29177
aI4
aa(lp451
I29201
aI0
aa(lp452
I29201
aI2
aa(lp453
I29201
aI3
aa(lp454
I29287
aI0
aa(lp455
I29287
aI1
aa(lp456
I29335
aI2
aa(lp457
I29365
aI3
aa(lp458
I29540
aI2
aa(lp459
I29540
aI3
aa(lp460
I29562
aI2
aa(lp461
I29600
aI2
aa(lp462
I29612
aI0
aa(lp463
I29612
aI3
aa(lp464
I29641
aI1
aa(lp465
I29641
aI3
aa(lp466
I29654
aI0
aa(lp467
I29960
aI0
aa(lp468
I29960
aI2
aa(lp469
I29960
aI3
aa(lp470
I30005
aI0
aa(lp471
I30005
aI1
aa(lp472
I30005
aI2
aa(lp473
I30005
aI3
aa(lp474
I30101
aI2
aa(lp475
I30136
aI3
aa(lp476
I30149
aI0
aa(lp477
I30652
aI0
aa(lp478
I30652
aI1
aa(lp479
I30697
aI3
aa(lp480
I30805
aI2
aa(lp481
I30805
aI4
aa(lp482
I31007
aI0
aa(lp483
I31007
aI1
aa(lp484
I31007
aI3
aa(lp485
I31101
aI4
aa(lp486
I31213
aI0
aa(lp487
I31492
aI2
aa(lp488
I31499
aI3
aa(lp489
I31506
aI1
aa(lp490
I31658
aI0
aa(lp491
I31736
aI3
aa(lp492
I31736
aI4
aa(lp493
I31786
aI0
aa(lp494
I31786
aI1
aa(lp495
I32251
aI2
aa(lp496
I32251
aI4
aa(lp497
I32456
aI3
aa(lp498
I32649
aI2
aa(lp499
I32649
aI3
aa(lp500
I32962
aI1
aa(lp501
I32962
aI2
aa(lp502
I32962
aI3
aa(lp503
I32962
aI4
aa(lp504
I33101
aI2
aa(lp505
I33156
aI1
aa(lp506
I33434
aI0
aa(lp507
I33434
aI2
aa(lp508
I33434
aI3
aa(lp509
I33542
aI0
aa(lp510
I33542
aI1
aa(lp511
I33555
aI1
aa(lp512
I33674
aI2
aa(lp513
I33674
aI4
aa(lp514
I33828
aI1
aa(lp515
I33830
aI0
aa(lp516
I33830
aI2
aa(lp517
I33952
aI4
aa(lp518
I34107
aI3
aa(lp519
I34160
aI2
aa(lp520
I34160
aI4
aa(lp521
I34379
aI1
aa(lp522
I34401
aI0
aa(lp523
I34401
aI3
aa(lp524
I34519
aI3
aa(lp525
I34519
aI4
aa(lp526
I34521
aI3
aa(lp527
I34521
aI5
aa(lp528
I34600
aI0
aa(lp529
I34908
aI0
aa(lp530
I34908
aI1
aa(lp531
I34908
aI2
aa(lp532
I34917
aI2
aa(lp533
I34927
aI1
aa(lp534
I34983
aI0
aa(lp535
I35006
aI0
aa(lp536
I35047
aI1
aa(lp537
I35070
aI0
aa(lp538
I35070
aI3
aa(lp539
I35070
aI4
aa(lp540
I35235
aI2
aa(lp541
I35356
aI0
aa(lp542
I35356
aI1
aa(lp543
I35356
aI4
aa(lp544
I35462
aI0
aa(lp545
I35462
aI2
aa(lp546
I35465
aI1
aa(lp547
I35465
aI2
aa(lp548
I35465
aI4
aa(lp549
I35473
aI1
aa(lp550
I35507
aI0
aa(lp551
I35507
aI1
aa(lp552
I35507
aI2
aa(lp553
I35507
aI3
aa(lp554
I35587
aI0
aa(lp555
I35593
aI2
aa(lp556
I35674
aI4
aa(lp557
I35990
aI0
aa(lp558
I35990
aI2
aa(lp559
I35990
aI3
aa(lp560
I35997
aI4
aa(lp561
I36024
aI0
aa(lp562
I36024
aI1
aa(lp563
I36024
aI4
aa(lp564
I36070
aI0
aa(lp565
I36070
aI2
aa(lp566
I36072
aI0
aa(lp567
I36072
aI4
aa(lp568
I36094
aI1
aa(lp569
I36094
aI3
aa(lp570
I36175
aI4
aa(lp571
I36187
aI0
aa(lp572
I36187
aI1
aa(lp573
I36187
aI2
aa(lp574
I36278
aI3
aa(lp575
I36410
aI0
aa(lp576
I36414
aI1
aa(lp577
I36414
aI3
aa(lp578
I36414
aI4
aa(lp579
I36437
aI0
aa(lp580
I36547
aI2
aa(lp581
I36580
aI1
aa(lp582
I36580
aI4
aa(lp583
I36583
aI0
aa(lp584
I36721
aI2
aa(lp585
I36721
aI3
aa(lp586
I36921
aI0
aa(lp587
I36921
aI2
aa(lp588
I36921
aI3
aa(lp589
I36921
aI4
aa(lp590
I36934
aI1
aa(lp591
I37205
aI0
aa(lp592
I37320
aI0
aa(lp593
I37320
aI4
aa(lp594
I37324
aI4
aa(lp595
I37363
aI4
aa(lp596
I37439
aI3
aa(lp597
I37638
aI0
aa(lp598
I37673
aI0
aa(lp599
I37673
aI2
aa(lp600
I37673
aI3
aa(lp601
I37673
aI4
aa(lp602
I37681
aI3
aa(lp603
I37681
aI4
aa(lp604
I37690
aI2
aa(lp605
I37717
aI1
aa(lp606
I37768
aI0
aa(lp607
I37768
aI4
aa(lp608
I37953
aI0
aa(lp609
I37953
aI2
aa(lp610
I37953
aI3
aa(lp611
I37978
aI3
aa(lp612
I38031
aI2
aa(lp613
I38112
aI0
aa(lp614
I38142
aI3
aa(lp615
I38449
aI2
aa(lp616
I38449
aI4
aa(lp617
I38619
aI0
aa(lp618
I38894
aI3
aa(lp619
I39116
aI2
aa(lp620
I39280
aI4
aa(lp621
I39409
aI1
aa(lp622
I39409
aI3
aa(lp623
I39531
aI1
aa(lp624
I39531
aI4
aa(lp625
I39867
aI2
aa(lp626
I39967
aI3
aa(lp627
I40064
aI1
aa(lp628
I40064
aI3
aa(lp629
I40064
aI4
aa(lp630
I40112
aI0
aa(lp631
I40112
aI2
aa(lp632
I40112
aI3
aa(lp633
I40149
aI0
aa(lp634
I40153
aI1
aa(lp635
I40153
aI3
aa(lp636
I40153
aI4
aa(lp637
I40234
aI0
aa(lp638
I40234
aI1
aa(lp639
I40234
aI2
aa(lp640
I40353
aI0
aa(lp641
I40353
aI3
aa(lp642
I40353
aI4
aa(lp643
I40440
aI0
aa(lp644
I40463
aI0
aa(lp645
I40463
aI3
aa.