(lp0
(lp1
I1846
aI0
aa(lp2
I6596
aI0
aa(lp3
I7152
aI0
aa(lp4
I7152
aI2
aa(lp5
I7152
aI3
aa(lp6
I10147
aI0
aa(lp7
I10147
aI2
aa(lp8
I10147
aI3
aa(lp9
I10147
aI4
aa(lp10
I10756
aI1
aa(lp11
I10756
aI2
aa(lp12
I10756
aI4
aa(lp13
I13520
aI3
aa(lp14
I13600
aI0
aa(lp15
I13600
aI1
aa(lp16
I13600
aI2
aa(lp17
I13600
aI3
aa(lp18
I13700
aI0
aa(lp19
I14893
aI4
aa(lp20
I18824
aI1
aa(lp21
I18824
aI3
aa(lp22
I21750
aI1
aa(lp23
I22241
aI1
aa(lp24
I23352
aI1
aa(lp25
I23352
aI2
aa(lp26
I23352
aI4
aa(lp27
I26968
aI4
aa(lp28
I33135
aI0
aa(lp29
I33602
aI1
aa(lp30
I33602
aI2
aa(lp31
I33724
aI0
aa(lp32
I33724
aI2
aa(lp33
I36204
aI1
aa(lp34
I36327
aI0
aa(lp35
I39954
aI1
aa.