(lp0
(lp1
I22
aI3
aa(lp2
I227
aI0
aa(lp3
I227
aI1
aa(lp4
I227
aI2
aa(lp5
I227
aI3
aa(lp6
I227
aI4
aa(lp7
I263
aI2
aa(lp8
I276
aI0
aa(lp9
I276
aI1
aa(lp10
I276
aI2
aa(lp11
I276
aI3
aa(lp12
I276
aI4
aa(lp13
I280
aI1
aa(lp14
I280
aI3
aa(lp15
I280
aI4
aa(lp16
I305
aI0
aa(lp17
I306
aI1
aa(lp18
I306
aI2
aa(lp19
I306
aI4
aa(lp20
I430
aI0
aa(lp21
I430
aI2
aa(lp22
I483
aI0
aa(lp23
I483
aI4
aa(lp24
I500
aI2
aa(lp25
I500
aI3
aa(lp26
I507
aI0
aa(lp27
I507
aI1
aa(lp28
I507
aI2
aa(lp29
I507
aI3
aa(lp30
I507
aI4
aa(lp31
I515
aI0
aa(lp32
I515
aI3
aa(lp33
I599
aI0
aa(lp34
I599
aI1
aa(lp35
I599
aI2
aa(lp36
I599
aI3
aa(lp37
I599
aI4
aa(lp38
I641
aI0
aa(lp39
I641
aI1
aa(lp40
I641
aI2
aa(lp41
I641
aI3
aa(lp42
I641
aI4
aa(lp43
I704
aI0
aa(lp44
I704
aI4
aa(lp45
I710
aI0
aa(lp46
I710
aI2
aa(lp47
I710
aI3
aa(lp48
I710
aI4
aa(lp49
I715
aI0
aa(lp50
I741
aI0
aa(lp51
I762
aI0
aa(lp52
I762
aI1
aa(lp53
I762
aI2
aa(lp54
I762
aI3
aa(lp55
I762
aI4
aa(lp56
I766
aI1
aa(lp57
I766
aI2
aa(lp58
I782
aI0
aa(lp59
I782
aI1
aa(lp60
I782
aI2
aa(lp61
I782
aI3
aa(lp62
I782
aI4
aa(lp63
I829
aI1
aa(lp64
I829
aI2
aa(lp65
I829
aI3
aa(lp66
I829
aI4
aa(lp67
I851
aI4
aa(lp68
I911
aI0
aa(lp69
I911
aI1
aa(lp70
I911
aI4
aa(lp71
I914
aI0
aa(lp72
I928
aI0
aa(lp73
I928
aI2
aa(lp74
I928
aI4
aa(lp75
I954
aI0
aa(lp76
I954
aI1
aa(lp77
I954
aI2
aa(lp78
I954
aI3
aa(lp79
I954
aI4
aa(lp80
I1033
aI0
aa(lp81
I1033
aI3
aa(lp82
I1036
aI1
aa(lp83
I1079
aI0
aa(lp84
I1079
aI2
aa(lp85
I1079
aI3
aa(lp86
I1079
aI4
aa(lp87
I1144
aI0
aa(lp88
I1144
aI1
aa(lp89
I1144
aI2
aa(lp90
I1144
aI3
aa(lp91
I1144
aI4
aa(lp92
I1281
aI0
aa(lp93
I1281
aI2
aa(lp94
I1281
aI3
aa(lp95
I1281
aI4
aa(lp96
I1386
aI0
aa(lp97
I1386
aI2
aa(lp98
I1386
aI3
aa(lp99
I1386
aI4
aa(lp100
I1442
aI1
aa(lp101
I1442
aI4
aa(lp102
I1523
aI1
aa(lp103
I1523
aI2
aa(lp104
I1574
aI0
aa(lp105
I1574
aI2
aa(lp106
I1574
aI3
aa(lp107
I1574
aI4
aa(lp108
I1612
aI2
aa(lp109
I1641
aI0
aa(lp110
I1641
aI3
aa(lp111
I1646
aI0
aa(lp112
I1646
aI1
aa(lp113
I1646
aI3
aa(lp114
I1646
aI4
aa(lp115
I1714
aI3
aa(lp116
I1728
aI1
aa(lp117
I1728
aI3
aa(lp118
I1756
aI0
aa(lp119
I1756
aI1
aa(lp120
I1756
aI2
aa(lp121
I1756
aI3
aa(lp122
I1756
aI4
aa(lp123
I1756
aI5
aa(lp124
I1861
aI0
aa(lp125
I1861
aI1
aa(lp126
I1861
aI2
aa(lp127
I1861
aI3
aa(lp128
I1861
aI4
aa(lp129
I1891
aI0
aa(lp130
I1891
aI1
aa(lp131
I1891
aI2
aa(lp132
I1891
aI3
aa(lp133
I1891
aI4
aa(lp134
I1898
aI0
aa(lp135
I1898
aI2
aa(lp136
I1898
aI3
aa(lp137
I1898
aI4
aa(lp138
I1899
aI0
aa(lp139
I1899
aI2
aa(lp140
I1900
aI0
aa(lp141
I1900
aI1
aa(lp142
I1900
aI3
aa(lp143
I1900
aI4
aa(lp144
I2012
aI0
aa(lp145
I2012
aI1
aa(lp146
I2012
aI3
aa(lp147
I2012
aI4
aa(lp148
I2025
aI0
aa(lp149
I2025
aI1
aa(lp150
I2025
aI2
aa(lp151
I2025
aI3
aa(lp152
I2025
aI4
aa(lp153
I2092
aI0
aa(lp154
I2092
aI1
aa(lp155
I2092
aI2
aa(lp156
I2092
aI3
aa(lp157
I2092
aI4
aa(lp158
I2096
aI0
aa(lp159
I2096
aI1
aa(lp160
I2096
aI4
aa(lp161
I2129
aI2
aa(lp162
I2177
aI0
aa(lp163
I2177
aI1
aa(lp164
I2177
aI3
aa(lp165
I2177
aI4
aa(lp166
I2237
aI0
aa(lp167
I2237
aI1
aa(lp168
I2237
aI2
aa(lp169
I2237
aI3
aa(lp170
I2237
aI4
aa(lp171
I2319
aI0
aa(lp172
I2319
aI1
aa(lp173
I2319
aI2
aa(lp174
I2319
aI3
aa(lp175
I2319
aI4
aa(lp176
I2334
aI0
aa(lp177
I2334
aI1
aa(lp178
I2334
aI2
aa(lp179
I2334
aI3
aa(lp180
I2334
aI4
aa(lp181
I2391
aI0
aa(lp182
I2391
aI2
aa(lp183
I2391
aI3
aa(lp184
I2391
aI4
aa(lp185
I2404
aI0
aa(lp186
I2404
aI1
aa(lp187
I2404
aI2
aa(lp188
I2404
aI3
aa(lp189
I2404
aI4
aa(lp190
I2411
aI0
aa(lp191
I2411
aI1
aa(lp192
I2411
aI2
aa(lp193
I2411
aI3
aa(lp194
I2411
aI4
aa(lp195
I2545
aI4
aa(lp196
I2546
aI1
aa(lp197
I2546
aI2
aa(lp198
I2546
aI3
aa(lp199
I2591
aI0
aa(lp200
I2591
aI1
aa(lp201
I2591
aI3
aa(lp202
I2591
aI4
aa(lp203
I2615
aI0
aa(lp204
I2615
aI1
aa(lp205
I2615
aI2
aa(lp206
I2615
aI4
aa(lp207
I2638
aI0
aa(lp208
I2638
aI1
aa(lp209
I2638
aI2
aa(lp210
I2638
aI3
aa(lp211
I2638
aI4
aa(lp212
I2665
aI1
aa(lp213
I2665
aI2
aa(lp214
I2665
aI3
aa(lp215
I2665
aI4
aa(lp216
I2675
aI0
aa(lp217
I2675
aI1
aa(lp218
I2675
aI2
aa(lp219
I2675
aI3
aa(lp220
I2675
aI4
aa(lp221
I2676
aI2
aa(lp222
I2733
aI0
aa(lp223
I2733
aI1
aa(lp224
I2733
aI2
aa(lp225
I2733
aI3
aa(lp226
I2733
aI4
aa(lp227
I2751
aI0
aa(lp228
I2751
aI1
aa(lp229
I2751
aI2
aa(lp230
I2751
aI3
aa(lp231
I2751
aI4
aa(lp232
I2774
aI0
aa(lp233
I2774
aI1
aa(lp234
I2774
aI2
aa(lp235
I2774
aI3
aa(lp236
I2774
aI4
aa(lp237
I2778
aI0
aa(lp238
I2778
aI1
aa(lp239
I2778
aI2
aa(lp240
I2778
aI3
aa(lp241
I2778
aI4
aa(lp242
I2820
aI0
aa(lp243
I2820
aI3
aa(lp244
I2879
aI0
aa(lp245
I2879
aI1
aa(lp246
I2879
aI2
aa(lp247
I2879
aI3
aa(lp248
I2879
aI4
aa(lp249
I2919
aI0
aa(lp250
I2919
aI1
aa(lp251
I2919
aI2
aa(lp252
I2919
aI3
aa(lp253
I2919
aI4
aa(lp254
I2975
aI2
aa(lp255
I2994
aI0
aa(lp256
I2994
aI1
aa(lp257
I2994
aI3
aa(lp258
I2994
aI4
aa(lp259
I3028
aI2
aa(lp260
I3059
aI0
aa(lp261
I3059
aI2
aa(lp262
I3059
aI4
aa(lp263
I3167
aI0
aa(lp264
I3189
aI0
aa(lp265
I3189
aI2
aa(lp266
I3263
aI0
aa(lp267
I3263
aI1
aa(lp268
I3263
aI2
aa(lp269
I3263
aI3
aa(lp270
I3263
aI4
aa(lp271
I3276
aI0
aa(lp272
I3276
aI1
aa(lp273
I3276
aI2
aa(lp274
I3276
aI3
aa(lp275
I3276
aI4
aa(lp276
I3277
aI0
aa(lp277
I3277
aI2
aa(lp278
I3277
aI3
aa(lp279
I3277
aI4
aa(lp280
I3315
aI0
aa(lp281
I3315
aI1
aa(lp282
I3315
aI2
aa(lp283
I3315
aI3
aa(lp284
I3322
aI0
aa(lp285
I3322
aI2
aa(lp286
I3328
aI0
aa(lp287
I3328
aI1
aa(lp288
I3328
aI2
aa(lp289
I3328
aI3
aa(lp290
I3328
aI4
aa(lp291
I3367
aI0
aa(lp292
I3367
aI1
aa(lp293
I3367
aI3
aa(lp294
I3367
aI4
aa(lp295
I3470
aI0
aa(lp296
I3470
aI2
aa(lp297
I3470
aI4
aa(lp298
I3524
aI0
aa(lp299
I3524
aI2
aa(lp300
I3524
aI3
aa(lp301
I3524
aI4
aa(lp302
I3580
aI0
aa(lp303
I3580
aI1
aa(lp304
I3580
aI3
aa(lp305
I3580
aI4
aa(lp306
I3603
aI0
aa(lp307
I3603
aI1
aa(lp308
I3603
aI3
aa(lp309
I3603
aI4
aa(lp310
I3612
aI0
aa(lp311
I3612
aI1
aa(lp312
I3612
aI2
aa(lp313
I3612
aI3
aa(lp314
I3612
aI4
aa(lp315
I3637
aI0
aa(lp316
I3637
aI3
aa(lp317
I3637
aI4
aa(lp318
I3661
aI3
aa(lp319
I3684
aI4
aa(lp320
I3709
aI0
aa(lp321
I3709
aI1
aa(lp322
I3709
aI2
aa(lp323
I3709
aI4
aa(lp324
I3726
aI3
aa(lp325
I3726
aI4
aa(lp326
I3804
aI1
aa(lp327
I3804
aI2
aa(lp328
I3804
aI3
aa(lp329
I3804
aI4
aa(lp330
I3808
aI0
aa(lp331
I3808
aI1
aa(lp332
I3808
aI2
aa(lp333
I3808
aI3
aa(lp334
I3808
aI4
aa(lp335
I3893
aI1
aa(lp336
I3893
aI2
aa(lp337
I3894
aI0
aa(lp338
I3894
aI1
aa(lp339
I3894
aI2
aa(lp340
I3894
aI3
aa(lp341
I3894
aI4
aa(lp342
I4024
aI3
aa(lp343
I4024
aI4
aa(lp344
I4058
aI0
aa(lp345
I4063
aI2
aa(lp346
I4063
aI3
aa(lp347
I4145
aI0
aa(lp348
I4145
aI2
aa(lp349
I4145
aI3
aa(lp350
I4145
aI4
aa(lp351
I4237
aI1
aa(lp352
I4237
aI2
aa(lp353
I4237
aI4
aa(lp354
I4295
aI0
aa(lp355
I4295
aI1
aa(lp356
I4295
aI2
aa(lp357
I4295
aI3
aa(lp358
I4295
aI4
aa(lp359
I4325
aI0
aa(lp360
I4325
aI2
aa(lp361
I4325
aI3
aa(lp362
I4325
aI4
aa(lp363
I4326
aI2
aa(lp364
I4326
aI3
aa(lp365
I4326
aI4
aa(lp366
I4331
aI1
aa(lp367
I4331
aI2
aa(lp368
I4331
aI4
aa(lp369
I4365
aI2
aa(lp370
I4365
aI3
aa(lp371
I4382
aI1
aa(lp372
I4382
aI2
aa(lp373
I4382
aI4
aa(lp374
I4384
aI0
aa(lp375
I4384
aI1
aa(lp376
I4384
aI2
aa(lp377
I4384
aI3
aa(lp378
I4384
aI4
aa(lp379
I4408
aI0
aa(lp380
I4408
aI1
aa(lp381
I4408
aI2
aa(lp382
I4408
aI3
aa(lp383
I4408
aI4
aa(lp384
I4431
aI3
aa(lp385
I4431
aI4
aa(lp386
I4442
aI0
aa(lp387
I4442
aI1
aa(lp388
I4442
aI2
aa(lp389
I4442
aI3
aa(lp390
I4442
aI4
aa(lp391
I4465
aI1
aa(lp392
I4465
aI2
aa(lp393
I4510
aI0
aa(lp394
I4510
aI1
aa(lp395
I4510
aI3
aa(lp396
I4510
aI4
aa(lp397
I4541
aI0
aa(lp398
I4541
aI1
aa(lp399
I4541
aI2
aa(lp400
I4541
aI3
aa(lp401
I4541
aI4
aa(lp402
I4548
aI0
aa(lp403
I4548
aI1
aa(lp404
I4548
aI2
aa(lp405
I4548
aI3
aa(lp406
I4548
aI4
aa(lp407
I4561
aI0
aa(lp408
I4561
aI1
aa(lp409
I4561
aI2
aa(lp410
I4561
aI3
aa(lp411
I4561
aI4
aa(lp412
I4598
aI2
aa(lp413
I4622
aI4
aa(lp414
I4631
aI0
aa(lp415
I4631
aI3
aa(lp416
I4633
aI0
aa(lp417
I4633
aI1
aa(lp418
I4633
aI2
aa(lp419
I4633
aI3
aa(lp420
I4633
aI4
aa(lp421
I4665
aI0
aa(lp422
I4665
aI1
aa(lp423
I4665
aI2
aa(lp424
I4665
aI3
aa(lp425
I4665
aI4
aa(lp426
I4675
aI0
aa(lp427
I4675
aI1
aa(lp428
I4675
aI2
aa(lp429
I4675
aI3
aa(lp430
I4675
aI4
aa(lp431
I4720
aI1
aa(lp432
I4720
aI3
aa(lp433
I4720
aI4
aa(lp434
I4722
aI0
aa(lp435
I4722
aI1
aa(lp436
I4722
aI3
aa(lp437
I4722
aI4
aa(lp438
I4742
aI1
aa(lp439
I4742
aI3
aa(lp440
I4742
aI4
aa(lp441
I4760
aI0
aa(lp442
I4760
aI1
aa(lp443
I4760
aI2
aa(lp444
I4760
aI3
aa(lp445
I4760
aI4
aa(lp446
I4790
aI0
aa(lp447
I4790
aI1
aa(lp448
I4790
aI2
aa(lp449
I4790
aI3
aa(lp450
I4790
aI4
aa(lp451
I4821
aI0
aa(lp452
I4821
aI1
aa(lp453
I4821
aI2
aa(lp454
I4821
aI4
aa(lp455
I4890
aI0
aa(lp456
I4890
aI1
aa(lp457
I4890
aI2
aa(lp458
I4890
aI3
aa(lp459
I4890
aI4
aa(lp460
I4895
aI1
aa(lp461
I4895
aI2
aa(lp462
I4989
aI0
aa(lp463
I4989
aI1
aa(lp464
I4989
aI2
aa(lp465
I4989
aI3
aa(lp466
I4989
aI4
aa(lp467
I5063
aI0
aa(lp468
I5063
aI1
aa(lp469
I5063
aI2
aa(lp470
I5063
aI3
aa(lp471
I5063
aI4
aa(lp472
I5072
aI0
aa(lp473
I5072
aI1
aa(lp474
I5072
aI2
aa(lp475
I5072
aI3
aa(lp476
I5072
aI4
aa(lp477
I5116
aI3
aa(lp478
I5116
aI4
aa(lp479
I5158
aI0
aa(lp480
I5158
aI1
aa(lp481
I5158
aI2
aa(lp482
I5158
aI3
aa(lp483
I5241
aI0
aa(lp484
I5241
aI1
aa(lp485
I5241
aI2
aa(lp486
I5241
aI3
aa(lp487
I5241
aI4
aa(lp488
I5301
aI0
aa(lp489
I5301
aI2
aa(lp490
I5301
aI3
aa(lp491
I5301
aI4
aa(lp492
I5319
aI0
aa(lp493
I5319
aI1
aa(lp494
I5319
aI2
aa(lp495
I5319
aI3
aa(lp496
I5319
aI4
aa(lp497
I5353
aI1
aa(lp498
I5353
aI2
aa(lp499
I5353
aI3
aa(lp500
I5353
aI4
aa(lp501
I5369
aI0
aa(lp502
I5369
aI2
aa(lp503
I5369
aI3
aa(lp504
I5369
aI4
aa(lp505
I5376
aI0
aa(lp506
I5376
aI1
aa(lp507
I5376
aI2
aa(lp508
I5376
aI3
aa(lp509
I5376
aI4
aa(lp510
I5407
aI1
aa(lp511
I5407
aI2
aa(lp512
I5407
aI4
aa(lp513
I5420
aI0
aa(lp514
I5420
aI1
aa(lp515
I5420
aI2
aa(lp516
I5420
aI3
aa(lp517
I5420
aI4
aa(lp518
I5430
aI1
aa(lp519
I5430
aI3
aa(lp520
I5430
aI4
aa(lp521
I5523
aI0
aa(lp522
I5523
aI1
aa(lp523
I5523
aI2
aa(lp524
I5523
aI3
aa(lp525
I5523
aI4
aa(lp526
I5537
aI0
aa(lp527
I5556
aI0
aa(lp528
I5556
aI1
aa(lp529
I5556
aI2
aa(lp530
I5556
aI3
aa(lp531
I5556
aI4
aa(lp532
I5592
aI0
aa(lp533
I5592
aI1
aa(lp534
I5592
aI2
aa(lp535
I5592
aI3
aa(lp536
I5592
aI4
aa(lp537
I5620
aI2
aa(lp538
I5620
aI3
aa(lp539
I5620
aI4
aa(lp540
I5642
aI0
aa(lp541
I5642
aI1
aa(lp542
I5642
aI2
aa(lp543
I5642
aI4
aa(lp544
I5659
aI0
aa(lp545
I5659
aI1
aa(lp546
I5659
aI2
aa(lp547
I5659
aI3
aa(lp548
I5659
aI4
aa(lp549
I5679
aI0
aa(lp550
I5679
aI1
aa(lp551
I5679
aI2
aa(lp552
I5679
aI3
aa(lp553
I5679
aI4
aa(lp554
I5745
aI0
aa(lp555
I5745
aI1
aa(lp556
I5745
aI2
aa(lp557
I5745
aI3
aa(lp558
I5745
aI4
aa(lp559
I5800
aI0
aa(lp560
I5800
aI2
aa(lp561
I5800
aI3
aa(lp562
I5800
aI4
aa(lp563
I5807
aI0
aa(lp564
I5807
aI2
aa(lp565
I5807
aI3
aa(lp566
I5873
aI3
aa(lp567
I5873
aI4
aa(lp568
I5903
aI0
aa(lp569
I5903
aI1
aa(lp570
I5903
aI4
aa(lp571
I5912
aI0
aa(lp572
I5912
aI1
aa(lp573
I5912
aI2
aa(lp574
I5912
aI3
aa(lp575
I5912
aI4
aa(lp576
I5929
aI0
aa(lp577
I5959
aI0
aa(lp578
I5959
aI1
aa(lp579
I5959
aI2
aa(lp580
I5959
aI3
aa(lp581
I5959
aI4
aa(lp582
I5963
aI0
aa(lp583
I5963
aI1
aa(lp584
I5963
aI2
aa(lp585
I5963
aI3
aa(lp586
I5963
aI4
aa(lp587
I5965
aI4
aa(lp588
I5979
aI0
aa(lp589
I5979
aI1
aa(lp590
I5979
aI2
aa(lp591
I5979
aI3
aa(lp592
I5979
aI4
aa(lp593
I6079
aI0
aa(lp594
I6079
aI1
aa(lp595
I6079
aI2
aa(lp596
I6079
aI3
aa(lp597
I6079
aI4
aa(lp598
I6126
aI0
aa(lp599
I6126
aI1
aa(lp600
I6126
aI2
aa(lp601
I6126
aI3
aa(lp602
I6133
aI2
aa(lp603
I6133
aI3
aa(lp604
I6235
aI1
aa(lp605
I6235
aI2
aa(lp606
I6237
aI0
aa(lp607
I6237
aI1
aa(lp608
I6237
aI2
aa(lp609
I6237
aI3
aa(lp610
I6237
aI4
aa(lp611
I6242
aI0
aa(lp612
I6242
aI1
aa(lp613
I6242
aI2
aa(lp614
I6242
aI4
aa(lp615
I6256
aI0
aa(lp616
I6256
aI1
aa(lp617
I6256
aI2
aa(lp618
I6256
aI3
aa(lp619
I6256
aI4
aa(lp620
I6363
aI0
aa(lp621
I6363
aI4
aa(lp622
I6386
aI0
aa(lp623
I6386
aI1
aa(lp624
I6386
aI2
aa(lp625
I6386
aI3
aa(lp626
I6386
aI4
aa(lp627
I6395
aI0
aa(lp628
I6395
aI1
aa(lp629
I6395
aI2
aa(lp630
I6395
aI3
aa(lp631
I6395
aI4
aa(lp632
I6414
aI0
aa(lp633
I6414
aI1
aa(lp634
I6414
aI2
aa(lp635
I6414
aI3
aa(lp636
I6414
aI4
aa(lp637
I6429
aI3
aa(lp638
I6429
aI4
aa(lp639
I6430
aI0
aa(lp640
I6430
aI1
aa(lp641
I6430
aI3
aa(lp642
I6430
aI4
aa(lp643
I6451
aI3
aa(lp644
I6540
aI1
aa(lp645
I6540
aI2
aa(lp646
I6540
aI4
aa(lp647
I6541
aI0
aa(lp648
I6541
aI1
aa(lp649
I6541
aI2
aa(lp650
I6541
aI3
aa(lp651
I6541
aI4
aa(lp652
I6574
aI0
aa(lp653
I6629
aI0
aa(lp654
I6629
aI1
aa(lp655
I6629
aI2
aa(lp656
I6629
aI3
aa(lp657
I6629
aI4
aa(lp658
I6679
aI0
aa(lp659
I6679
aI1
aa(lp660
I6679
aI3
aa(lp661
I6679
aI4
aa(lp662
I6687
aI0
aa(lp663
I6687
aI1
aa(lp664
I6687
aI2
aa(lp665
I6687
aI3
aa(lp666
I6690
aI0
aa(lp667
I6690
aI1
aa(lp668
I6690
aI2
aa(lp669
I6690
aI3
aa(lp670
I6707
aI0
aa(lp671
I6707
aI1
aa(lp672
I6707
aI2
aa(lp673
I6707
aI3
aa(lp674
I6707
aI4
aa(lp675
I6730
aI0
aa(lp676
I6730
aI1
aa(lp677
I6730
aI2
aa(lp678
I6730
aI3
aa(lp679
I6730
aI4
aa(lp680
I6782
aI0
aa(lp681
I6782
aI1
aa(lp682
I6782
aI4
aa(lp683
I6787
aI0
aa(lp684
I6787
aI1
aa(lp685
I6787
aI2
aa(lp686
I6787
aI3
aa(lp687
I6787
aI4
aa(lp688
I6822
aI2
aa(lp689
I6822
aI4
aa(lp690
I6895
aI0
aa(lp691
I6895
aI1
aa(lp692
I6895
aI2
aa(lp693
I6895
aI3
aa(lp694
I6895
aI4
aa(lp695
I6902
aI1
aa(lp696
I6902
aI2
aa(lp697
I6902
aI4
aa(lp698
I6962
aI0
aa(lp699
I6962
aI1
aa(lp700
I6962
aI2
aa(lp701
I6962
aI3
aa(lp702
I6990
aI0
aa(lp703
I6990
aI1
aa(lp704
I6990
aI2
aa(lp705
I6990
aI3
aa(lp706
I6990
aI4
aa(lp707
I6993
aI0
aa(lp708
I6993
aI1
aa(lp709
I6993
aI2
aa(lp710
I6993
aI3
aa(lp711
I6993
aI4
aa(lp712
I7094
aI0
aa(lp713
I7118
aI0
aa(lp714
I7118
aI1
aa(lp715
I7118
aI2
aa(lp716
I7118
aI3
aa(lp717
I7118
aI4
aa(lp718
I7147
aI1
aa(lp719
I7147
aI3
aa(lp720
I7158
aI0
aa(lp721
I7158
aI1
aa(lp722
I7158
aI2
aa(lp723
I7158
aI3
aa(lp724
I7158
aI4
aa(lp725
I7168
aI0
aa(lp726
I7168
aI1
aa(lp727
I7168
aI3
aa(lp728
I7176
aI0
aa(lp729
I7176
aI1
aa(lp730
I7176
aI2
aa(lp731
I7176
aI3
aa(lp732
I7176
aI4
aa(lp733
I7182
aI0
aa(lp734
I7182
aI1
aa(lp735
I7182
aI2
aa(lp736
I7182
aI3
aa(lp737
I7182
aI4
aa(lp738
I7218
aI4
aa(lp739
I7224
aI2
aa(lp740
I7224
aI3
aa(lp741
I7281
aI0
aa(lp742
I7281
aI1
aa(lp743
I7281
aI2
aa(lp744
I7281
aI3
aa(lp745
I7281
aI4
aa(lp746
I7300
aI0
aa(lp747
I7300
aI2
aa(lp748
I7300
aI3
aa(lp749
I7300
aI4
aa(lp750
I7331
aI0
aa(lp751
I7331
aI1
aa(lp752
I7331
aI2
aa(lp753
I7331
aI3
aa(lp754
I7331
aI4
aa(lp755
I7451
aI0
aa(lp756
I7451
aI1
aa(lp757
I7451
aI2
aa(lp758
I7451
aI3
aa(lp759
I7451
aI4
aa(lp760
I7510
aI0
aa(lp761
I7510
aI1
aa(lp762
I7510
aI2
aa(lp763
I7510
aI3
aa(lp764
I7510
aI4
aa(lp765
I7511
aI0
aa(lp766
I7511
aI2
aa(lp767
I7515
aI0
aa(lp768
I7515
aI1
aa(lp769
I7515
aI2
aa(lp770
I7515
aI3
aa(lp771
I7515
aI4
aa(lp772
I7541
aI2
aa(lp773
I7541
aI3
aa(lp774
I7546
aI0
aa(lp775
I7546
aI1
aa(lp776
I7546
aI3
aa(lp777
I7553
aI0
aa(lp778
I7554
aI0
aa(lp779
I7554
aI1
aa(lp780
I7554
aI2
aa(lp781
I7554
aI3
aa(lp782
I7554
aI4
aa(lp783
I7563
aI0
aa(lp784
I7563
aI1
aa(lp785
I7563
aI2
aa(lp786
I7563
aI3
aa(lp787
I7565
aI0
aa(lp788
I7565
aI1
aa(lp789
I7565
aI2
aa(lp790
I7565
aI3
aa(lp791
I7565
aI4
aa(lp792
I7566
aI0
aa(lp793
I7566
aI2
aa(lp794
I7566
aI3
aa(lp795
I7566
aI4
aa(lp796
I7641
aI0
aa(lp797
I7641
aI1
aa(lp798
I7641
aI2
aa(lp799
I7641
aI3
aa(lp800
I7651
aI4
aa(lp801
I7673
aI1
aa(lp802
I7673
aI2
aa(lp803
I7673
aI3
aa(lp804
I7673
aI4
aa(lp805
I7714
aI1
aa(lp806
I7714
aI2
aa(lp807
I7714
aI3
aa(lp808
I7714
aI4
aa(lp809
I7727
aI0
aa(lp810
I7727
aI1
aa(lp811
I7727
aI2
aa(lp812
I7727
aI3
aa(lp813
I7727
aI4
aa(lp814
I7740
aI0
aa(lp815
I7740
aI1
aa(lp816
I7740
aI2
aa(lp817
I7740
aI4
aa(lp818
I7761
aI0
aa(lp819
I7761
aI1
aa(lp820
I7761
aI2
aa(lp821
I7761
aI3
aa(lp822
I7761
aI4
aa(lp823
I7783
aI0
aa(lp824
I7783
aI4
aa(lp825
I7788
aI0
aa(lp826
I7788
aI1
aa(lp827
I7788
aI2
aa(lp828
I7788
aI3
aa(lp829
I7788
aI4
aa(lp830
I7825
aI0
aa(lp831
I7825
aI2
aa(lp832
I7825
aI4
aa(lp833
I7826
aI0
aa(lp834
I7826
aI1
aa(lp835
I7826
aI2
aa(lp836
I7826
aI3
aa(lp837
I7826
aI4
aa(lp838
I7841
aI0
aa(lp839
I7841
aI1
aa(lp840
I7841
aI2
aa(lp841
I7841
aI4
aa(lp842
I7864
aI0
aa(lp843
I7864
aI2
aa(lp844
I7864
aI3
aa(lp845
I7864
aI4
aa(lp846
I7898
aI0
aa(lp847
I7898
aI1
aa(lp848
I7898
aI2
aa(lp849
I7898
aI3
aa(lp850
I7898
aI4
aa(lp851
I7901
aI0
aa(lp852
I7901
aI1
aa(lp853
I7901
aI2
aa(lp854
I7901
aI3
aa(lp855
I7901
aI4
aa(lp856
I7995
aI0
aa(lp857
I7995
aI1
aa(lp858
I7995
aI2
aa(lp859
I7995
aI4
aa(lp860
I8081
aI0
aa(lp861
I8081
aI1
aa(lp862
I8081
aI2
aa(lp863
I8081
aI3
aa(lp864
I8081
aI4
aa(lp865
I8096
aI0
aa(lp866
I8096
aI1
aa(lp867
I8096
aI2
aa(lp868
I8096
aI3
aa(lp869
I8096
aI4
aa(lp870
I8104
aI1
aa(lp871
I8104
aI2
aa(lp872
I8104
aI3
aa(lp873
I8106
aI4
aa(lp874
I8168
aI4
aa(lp875
I8180
aI0
aa(lp876
I8180
aI2
aa(lp877
I8180
aI3
aa(lp878
I8180
aI4
aa(lp879
I8186
aI0
aa(lp880
I8186
aI1
aa(lp881
I8186
aI2
aa(lp882
I8186
aI3
aa(lp883
I8186
aI4
aa(lp884
I8229
aI0
aa(lp885
I8229
aI1
aa(lp886
I8229
aI2
aa(lp887
I8229
aI3
aa(lp888
I8229
aI4
aa(lp889
I8268
aI0
aa(lp890
I8268
aI1
aa(lp891
I8268
aI2
aa(lp892
I8268
aI3
aa(lp893
I8268
aI4
aa(lp894
I8279
aI1
aa(lp895
I8313
aI0
aa(lp896
I8313
aI1
aa(lp897
I8313
aI2
aa(lp898
I8313
aI3
aa(lp899
I8326
aI0
aa(lp900
I8326
aI1
aa(lp901
I8326
aI4
aa(lp902
I8347
aI0
aa(lp903
I8347
aI1
aa(lp904
I8347
aI2
aa(lp905
I8347
aI3
aa(lp906
I8410
aI0
aa(lp907
I8410
aI1
aa(lp908
I8410
aI2
aa(lp909
I8410
aI3
aa(lp910
I8410
aI4
aa(lp911
I8439
aI3
aa(lp912
I8524
aI0
aa(lp913
I8524
aI1
aa(lp914
I8524
aI2
aa(lp915
I8524
aI3
aa(lp916
I8524
aI4
aa(lp917
I8539
aI0
aa(lp918
I8539
aI2
aa(lp919
I8566
aI0
aa(lp920
I8566
aI1
aa(lp921
I8566
aI3
aa(lp922
I8566
aI4
aa(lp923
I8686
aI0
aa(lp924
I8686
aI1
aa(lp925
I8686
aI2
aa(lp926
I8686
aI4
aa(lp927
I8693
aI0
aa(lp928
I8693
aI1
aa(lp929
I8693
aI2
aa(lp930
I8775
aI1
aa(lp931
I8775
aI2
aa(lp932
I8775
aI3
aa(lp933
I8775
aI4
aa(lp934
I8776
aI0
aa(lp935
I8776
aI1
aa(lp936
I8776
aI2
aa(lp937
I8776
aI3
aa(lp938
I8776
aI4
aa(lp939
I8780
aI4
aa(lp940
I8800
aI2
aa(lp941
I8800
aI3
aa(lp942
I8800
aI4
aa(lp943
I8847
aI0
aa(lp944
I8847
aI1
aa(lp945
I8847
aI2
aa(lp946
I8847
aI4
aa(lp947
I8867
aI0
aa(lp948
I8867
aI1
aa(lp949
I8867
aI2
aa(lp950
I8867
aI3
aa(lp951
I8867
aI4
aa(lp952
I8904
aI0
aa(lp953
I8904
aI1
aa(lp954
I8904
aI2
aa(lp955
I8904
aI3
aa(lp956
I8904
aI4
aa(lp957
I8916
aI3
aa(lp958
I9036
aI2
aa(lp959
I9036
aI3
aa(lp960
I9036
aI4
aa(lp961
I9075
aI0
aa(lp962
I9075
aI1
aa(lp963
I9075
aI2
aa(lp964
I9075
aI4
aa(lp965
I9103
aI0
aa(lp966
I9103
aI1
aa(lp967
I9103
aI2
aa(lp968
I9103
aI3
aa(lp969
I9103
aI4
aa(lp970
I9119
aI0
aa(lp971
I9119
aI1
aa(lp972
I9119
aI2
aa(lp973
I9119
aI3
aa(lp974
I9119
aI4
aa(lp975
I9128
aI0
aa(lp976
I9128
aI1
aa(lp977
I9128
aI2
aa(lp978
I9128
aI3
aa(lp979
I9128
aI4
aa(lp980
I9202
aI0
aa(lp981
I9202
aI1
aa(lp982
I9202
aI2
aa(lp983
I9202
aI3
aa(lp984
I9202
aI4
aa(lp985
I9212
aI0
aa(lp986
I9212
aI3
aa(lp987
I9225
aI0
aa(lp988
I9225
aI1
aa(lp989
I9225
aI2
aa(lp990
I9225
aI3
aa(lp991
I9225
aI4
aa(lp992
I9311
aI0
aa(lp993
I9311
aI1
aa(lp994
I9311
aI2
aa(lp995
I9311
aI3
aa(lp996
I9323
aI0
aa(lp997
I9323
aI2
aa(lp998
I9323
aI3
aa(lp999
I9323
aI4
aa(lp1000
I9403
aI0
aa(lp1001
I9403
aI1
aa(lp1002
I9403
aI2
aa(lp1003
I9403
aI3
aa(lp1004
I9407
aI0
aa(lp1005
I9407
aI1
aa(lp1006
I9407
aI2
aa(lp1007
I9407
aI4
aa(lp1008
I9419
aI0
aa(lp1009
I9419
aI1
aa(lp1010
I9419
aI2
aa(lp1011
I9419
aI3
aa(lp1012
I9481
aI0
aa(lp1013
I9481
aI1
aa(lp1014
I9481
aI2
aa(lp1015
I9481
aI3
aa(lp1016
I9481
aI4
aa(lp1017
I9552
aI0
aa(lp1018
I9552
aI1
aa(lp1019
I9552
aI2
aa(lp1020
I9552
aI3
aa(lp1021
I9552
aI4
aa(lp1022
I9574
aI0
aa(lp1023
I9574
aI1
aa(lp1024
I9574
aI2
aa(lp1025
I9574
aI3
aa(lp1026
I9574
aI4
aa(lp1027
I9635
aI0
aa(lp1028
I9635
aI1
aa(lp1029
I9635
aI2
aa(lp1030
I9635
aI4
aa(lp1031
I9646
aI0
aa(lp1032
I9646
aI1
aa(lp1033
I9646
aI2
aa(lp1034
I9646
aI3
aa(lp1035
I9646
aI4
aa(lp1036
I9741
aI0
aa(lp1037
I9741
aI1
aa(lp1038
I9741
aI2
aa(lp1039
I9741
aI3
aa(lp1040
I9741
aI4
aa(lp1041
I9765
aI0
aa(lp1042
I9765
aI1
aa(lp1043
I9765
aI2
aa(lp1044
I9765
aI3
aa(lp1045
I9765
aI4
aa(lp1046
I9889
aI0
aa(lp1047
I9889
aI1
aa(lp1048
I9889
aI4
aa(lp1049
I9947
aI0
aa(lp1050
I9947
aI1
aa(lp1051
I9947
aI2
aa(lp1052
I9947
aI3
aa(lp1053
I9947
aI4
aa(lp1054
I9985
aI0
aa(lp1055
I9985
aI1
aa(lp1056
I9985
aI2
aa(lp1057
I9985
aI4
aa(lp1058
I10168
aI3
aa(lp1059
I10168
aI4
aa(lp1060
I10278
aI0
aa(lp1061
I10278
aI1
aa(lp1062
I10278
aI3
aa(lp1063
I10278
aI4
aa(lp1064
I10372
aI0
aa(lp1065
I10372
aI1
aa(lp1066
I10372
aI2
aa(lp1067
I10372
aI3
aa(lp1068
I10372
aI4
aa(lp1069
I10426
aI0
aa(lp1070
I10426
aI1
aa(lp1071
I10426
aI2
aa(lp1072
I10426
aI3
aa(lp1073
I10426
aI4
aa(lp1074
I10441
aI0
aa(lp1075
I10441
aI1
aa(lp1076
I10441
aI3
aa(lp1077
I10441
aI4
aa(lp1078
I10620
aI0
aa(lp1079
I10620
aI2
aa(lp1080
I10620
aI3
aa(lp1081
I10620
aI4
aa(lp1082
I10680
aI3
aa(lp1083
I10680
aI4
aa(lp1084
I10706
aI1
aa(lp1085
I10706
aI2
aa(lp1086
I10706
aI3
aa(lp1087
I10706
aI4
aa(lp1088
I10710
aI1
aa(lp1089
I10710
aI2
aa(lp1090
I10710
aI3
aa(lp1091
I10777
aI0
aa(lp1092
I10777
aI1
aa(lp1093
I10777
aI2
aa(lp1094
I10777
aI3
aa(lp1095
I10777
aI4
aa(lp1096
I10801
aI0
aa(lp1097
I10801
aI1
aa(lp1098
I10801
aI3
aa(lp1099
I10801
aI4
aa(lp1100
I10826
aI0
aa(lp1101
I10826
aI1
aa(lp1102
I10826
aI2
aa(lp1103
I10826
aI3
aa(lp1104
I10826
aI4
aa(lp1105
I10847
aI0
aa(lp1106
I10847
aI1
aa(lp1107
I10847
aI2
aa(lp1108
I10847
aI3
aa(lp1109
I10847
aI4
aa(lp1110
I10856
aI0
aa(lp1111
I10856
aI2
aa(lp1112
I10856
aI3
aa(lp1113
I10856
aI4
aa(lp1114
I10875
aI0
aa(lp1115
I10875
aI1
aa(lp1116
I10875
aI2
aa(lp1117
I10875
aI3
aa(lp1118
I10875
aI4
aa(lp1119
I10898
aI0
aa(lp1120
I10898
aI1
aa(lp1121
I10898
aI4
aa(lp1122
I10921
aI0
aa(lp1123
I10921
aI1
aa(lp1124
I10921
aI2
aa(lp1125
I10921
aI3
aa(lp1126
I10921
aI4
aa(lp1127
I10935
aI0
aa(lp1128
I10935
aI2
aa(lp1129
I10935
aI3
aa(lp1130
I10937
aI0
aa(lp1131
I10937
aI1
aa(lp1132
I10937
aI2
aa(lp1133
I10937
aI3
aa(lp1134
I10937
aI4
aa(lp1135
I10942
aI0
aa(lp1136
I10942
aI1
aa(lp1137
I10942
aI2
aa(lp1138
I10942
aI4
aa(lp1139
I11047
aI0
aa(lp1140
I11047
aI1
aa(lp1141
I11047
aI2
aa(lp1142
I11047
aI3
aa(lp1143
I11047
aI4
aa(lp1144
I11051
aI1
aa(lp1145
I11065
aI2
aa(lp1146
I11065
aI3
aa(lp1147
I11065
aI4
aa(lp1148
I11081
aI0
aa(lp1149
I11081
aI1
aa(lp1150
I11081
aI2
aa(lp1151
I11081
aI4
aa(lp1152
I11214
aI0
aa(lp1153
I11214
aI1
aa(lp1154
I11214
aI2
aa(lp1155
I11214
aI4
aa(lp1156
I11226
aI0
aa(lp1157
I11226
aI2
aa(lp1158
I11226
aI4
aa(lp1159
I11227
aI0
aa(lp1160
I11227
aI1
aa(lp1161
I11227
aI2
aa(lp1162
I11227
aI4
aa(lp1163
I11231
aI0
aa(lp1164
I11231
aI1
aa(lp1165
I11231
aI2
aa(lp1166
I11231
aI3
aa(lp1167
I11231
aI4
aa(lp1168
I11239
aI0
aa(lp1169
I11239
aI4
aa(lp1170
I11255
aI4
aa(lp1171
I11341
aI0
aa(lp1172
I11341
aI1
aa(lp1173
I11341
aI2
aa(lp1174
I11341
aI3
aa(lp1175
I11341
aI4
aa(lp1176
I11458
aI0
aa(lp1177
I11458
aI4
aa(lp1178
I11515
aI0
aa(lp1179
I11515
aI2
aa(lp1180
I11515
aI3
aa(lp1181
I11515
aI4
aa(lp1182
I11517
aI0
aa(lp1183
I11517
aI1
aa(lp1184
I11517
aI3
aa(lp1185
I11517
aI4
aa(lp1186
I11536
aI0
aa(lp1187
I11536
aI1
aa(lp1188
I11536
aI2
aa(lp1189
I11536
aI3
aa(lp1190
I11539
aI4
aa(lp1191
I11554
aI2
aa(lp1192
I11554
aI4
aa(lp1193
I11560
aI0
aa(lp1194
I11560
aI1
aa(lp1195
I11560
aI3
aa(lp1196
I11560
aI4
aa(lp1197
I11592
aI0
aa(lp1198
I11592
aI1
aa(lp1199
I11632
aI0
aa(lp1200
I11632
aI1
aa(lp1201
I11632
aI2
aa(lp1202
I11632
aI3
aa(lp1203
I11632
aI4
aa(lp1204
I11648
aI2
aa(lp1205
I11677
aI0
aa(lp1206
I11677
aI2
aa(lp1207
I11677
aI3
aa(lp1208
I11677
aI4
aa(lp1209
I11689
aI0
aa(lp1210
I11689
aI4
aa(lp1211
I11759
aI0
aa(lp1212
I11759
aI1
aa(lp1213
I11759
aI2
aa(lp1214
I11759
aI3
aa(lp1215
I11759
aI4
aa(lp1216
I11783
aI1
aa(lp1217
I11783
aI2
aa(lp1218
I11783
aI3
aa(lp1219
I11827
aI0
aa(lp1220
I11827
aI1
aa(lp1221
I11827
aI2
aa(lp1222
I11827
aI3
aa(lp1223
I11827
aI4
aa(lp1224
I11840
aI0
aa(lp1225
I11882
aI0
aa(lp1226
I11882
aI1
aa(lp1227
I11882
aI2
aa(lp1228
I11882
aI4
aa(lp1229
I11906
aI0
aa(lp1230
I11946
aI0
aa(lp1231
I11946
aI3
aa(lp1232
I11946
aI4
aa(lp1233
I11959
aI0
aa(lp1234
I11959
aI1
aa(lp1235
I11959
aI2
aa(lp1236
I11959
aI3
aa(lp1237
I11959
aI4
aa(lp1238
I12063
aI0
aa(lp1239
I12063
aI1
aa(lp1240
I12063
aI2
aa(lp1241
I12063
aI3
aa(lp1242
I12063
aI4
aa(lp1243
I12079
aI0
aa(lp1244
I12079
aI1
aa(lp1245
I12079
aI2
aa(lp1246
I12079
aI3
aa(lp1247
I12079
aI4
aa(lp1248
I12317
aI0
aa(lp1249
I12317
aI1
aa(lp1250
I12317
aI2
aa(lp1251
I12317
aI3
aa(lp1252
I12317
aI4
aa(lp1253
I12318
aI0
aa(lp1254
I12318
aI2
aa(lp1255
I12318
aI3
aa(lp1256
I12318
aI4
aa(lp1257
I12327
aI0
aa(lp1258
I12327
aI1
aa(lp1259
I12327
aI2
aa(lp1260
I12327
aI3
aa(lp1261
I12327
aI4
aa(lp1262
I12347
aI0
aa(lp1263
I12347
aI1
aa(lp1264
I12347
aI2
aa(lp1265
I12347
aI3
aa(lp1266
I12347
aI4
aa(lp1267
I12357
aI0
aa(lp1268
I12357
aI1
aa(lp1269
I12357
aI2
aa(lp1270
I12357
aI3
aa(lp1271
I12357
aI4
aa(lp1272
I12368
aI0
aa(lp1273
I12368
aI1
aa(lp1274
I12368
aI2
aa(lp1275
I12368
aI3
aa(lp1276
I12368
aI4
aa(lp1277
I12400
aI1
aa(lp1278
I12400
aI2
aa(lp1279
I12400
aI3
aa(lp1280
I12400
aI4
aa(lp1281
I12436
aI0
aa(lp1282
I12436
aI1
aa(lp1283
I12436
aI2
aa(lp1284
I12436
aI3
aa(lp1285
I12436
aI4
aa(lp1286
I12527
aI1
aa(lp1287
I12527
aI2
aa(lp1288
I12527
aI4
aa(lp1289
I12608
aI1
aa(lp1290
I12611
aI0
aa(lp1291
I12611
aI1
aa(lp1292
I12611
aI2
aa(lp1293
I12611
aI3
aa(lp1294
I12611
aI4
aa(lp1295
I12625
aI0
aa(lp1296
I12625
aI1
aa(lp1297
I12625
aI2
aa(lp1298
I12625
aI4
aa(lp1299
I12628
aI0
aa(lp1300
I12637
aI0
aa(lp1301
I12637
aI1
aa(lp1302
I12637
aI2
aa(lp1303
I12637
aI3
aa(lp1304
I12637
aI4
aa(lp1305
I12749
aI0
aa(lp1306
I12749
aI1
aa(lp1307
I12749
aI2
aa(lp1308
I12749
aI3
aa(lp1309
I12749
aI4
aa(lp1310
I12844
aI0
aa(lp1311
I12844
aI2
aa(lp1312
I12844
aI3
aa(lp1313
I12844
aI4
aa(lp1314
I12857
aI0
aa(lp1315
I12857
aI1
aa(lp1316
I12857
aI2
aa(lp1317
I12857
aI4
aa(lp1318
I12877
aI0
aa(lp1319
I12877
aI1
aa(lp1320
I12877
aI2
aa(lp1321
I12877
aI3
aa(lp1322
I12877
aI4
aa(lp1323
I12887
aI0
aa(lp1324
I12887
aI1
aa(lp1325
I12887
aI2
aa(lp1326
I12887
aI3
aa(lp1327
I12887
aI4
aa(lp1328
I12920
aI0
aa(lp1329
I12920
aI3
aa(lp1330
I12936
aI0
aa(lp1331
I12936
aI1
aa(lp1332
I12936
aI2
aa(lp1333
I12936
aI3
aa(lp1334
I12936
aI4
aa(lp1335
I12951
aI0
aa(lp1336
I12951
aI1
aa(lp1337
I12951
aI2
aa(lp1338
I12951
aI3
aa(lp1339
I12951
aI4
aa(lp1340
I13062
aI1
aa(lp1341
I13062
aI2
aa(lp1342
I13062
aI4
aa(lp1343
I13070
aI0
aa(lp1344
I13070
aI1
aa(lp1345
I13070
aI2
aa(lp1346
I13070
aI3
aa(lp1347
I13142
aI0
aa(lp1348
I13142
aI1
aa(lp1349
I13142
aI2
aa(lp1350
I13142
aI3
aa(lp1351
I13142
aI4
aa(lp1352
I13234
aI0
aa(lp1353
I13234
aI1
aa(lp1354
I13234
aI2
aa(lp1355
I13234
aI3
aa(lp1356
I13234
aI4
aa(lp1357
I13266
aI0
aa(lp1358
I13266
aI1
aa(lp1359
I13266
aI2
aa(lp1360
I13266
aI3
aa(lp1361
I13266
aI4
aa(lp1362
I13270
aI0
aa(lp1363
I13270
aI1
aa(lp1364
I13270
aI3
aa(lp1365
I13270
aI4
aa(lp1366
I13274
aI0
aa(lp1367
I13274
aI1
aa(lp1368
I13274
aI2
aa(lp1369
I13274
aI3
aa(lp1370
I13284
aI0
aa(lp1371
I13284
aI1
aa(lp1372
I13284
aI2
aa(lp1373
I13284
aI3
aa(lp1374
I13284
aI4
aa(lp1375
I13326
aI0
aa(lp1376
I13326
aI1
aa(lp1377
I13326
aI3
aa(lp1378
I13360
aI0
aa(lp1379
I13360
aI1
aa(lp1380
I13360
aI2
aa(lp1381
I13360
aI3
aa(lp1382
I13360
aI4
aa(lp1383
I13445
aI0
aa(lp1384
I13445
aI1
aa(lp1385
I13445
aI2
aa(lp1386
I13445
aI3
aa(lp1387
I13445
aI4
aa(lp1388
I13458
aI0
aa(lp1389
I13458
aI1
aa(lp1390
I13458
aI2
aa(lp1391
I13458
aI3
aa(lp1392
I13458
aI4
aa(lp1393
I13485
aI0
aa(lp1394
I13485
aI1
aa(lp1395
I13485
aI2
aa(lp1396
I13485
aI3
aa(lp1397
I13485
aI4
aa(lp1398
I13499
aI2
aa(lp1399
I13499
aI3
aa(lp1400
I13499
aI4
aa(lp1401
I13540
aI0
aa(lp1402
I13540
aI3
aa(lp1403
I13540
aI4
aa(lp1404
I13606
aI0
aa(lp1405
I13606
aI1
aa(lp1406
I13606
aI2
aa(lp1407
I13606
aI3
aa(lp1408
I13606
aI4
aa(lp1409
I13611
aI0
aa(lp1410
I13611
aI1
aa(lp1411
I13611
aI2
aa(lp1412
I13611
aI4
aa(lp1413
I13648
aI0
aa(lp1414
I13648
aI1
aa(lp1415
I13648
aI2
aa(lp1416
I13648
aI3
aa(lp1417
I13648
aI4
aa(lp1418
I13652
aI2
aa(lp1419
I13652
aI3
aa(lp1420
I13652
aI4
aa(lp1421
I13675
aI0
aa(lp1422
I13675
aI2
aa(lp1423
I13675
aI3
aa(lp1424
I13675
aI4
aa(lp1425
I13703
aI0
aa(lp1426
I13703
aI1
aa(lp1427
I13703
aI2
aa(lp1428
I13703
aI3
aa(lp1429
I13703
aI4
aa(lp1430
I13710
aI0
aa(lp1431
I13710
aI1
aa(lp1432
I13710
aI2
aa(lp1433
I13710
aI3
aa(lp1434
I13710
aI4
aa(lp1435
I13740
aI1
aa(lp1436
I13740
aI2
aa(lp1437
I13740
aI3
aa(lp1438
I13740
aI4
aa(lp1439
I13761
aI2
aa(lp1440
I13761
aI4
aa(lp1441
I13797
aI1
aa(lp1442
I13797
aI3
aa(lp1443
I13833
aI0
aa(lp1444
I13833
aI2
aa(lp1445
I13863
aI0
aa(lp1446
I13863
aI1
aa(lp1447
I13863
aI2
aa(lp1448
I13863
aI3
aa(lp1449
I13863
aI4
aa(lp1450
I13908
aI0
aa(lp1451
I13908
aI1
aa(lp1452
I13908
aI2
aa(lp1453
I13908
aI3
aa(lp1454
I13908
aI4
aa(lp1455
I13991
aI0
aa(lp1456
I13991
aI1
aa(lp1457
I13991
aI2
aa(lp1458
I13991
aI4
aa(lp1459
I13997
aI0
aa(lp1460
I13997
aI1
aa(lp1461
I13997
aI2
aa(lp1462
I13997
aI3
aa(lp1463
I13997
aI4
aa(lp1464
I14009
aI0
aa(lp1465
I14009
aI1
aa(lp1466
I14009
aI2
aa(lp1467
I14009
aI3
aa(lp1468
I14009
aI4
aa(lp1469
I14045
aI0
aa(lp1470
I14045
aI3
aa(lp1471
I14103
aI1
aa(lp1472
I14103
aI2
aa(lp1473
I14103
aI3
aa(lp1474
I14103
aI4
aa(lp1475
I14253
aI0
aa(lp1476
I14253
aI1
aa(lp1477
I14253
aI3
aa(lp1478
I14253
aI4
aa(lp1479
I14266
aI0
aa(lp1480
I14266
aI1
aa(lp1481
I14266
aI2
aa(lp1482
I14266
aI3
aa(lp1483
I14266
aI4
aa(lp1484
I14285
aI0
aa(lp1485
I14285
aI1
aa(lp1486
I14285
aI2
aa(lp1487
I14285
aI3
aa(lp1488
I14285
aI4
aa(lp1489
I14298
aI0
aa(lp1490
I14298
aI1
aa(lp1491
I14298
aI2
aa(lp1492
I14298
aI3
aa(lp1493
I14298
aI4
aa(lp1494
I14303
aI1
aa(lp1495
I14303
aI2
aa(lp1496
I14303
aI4
aa(lp1497
I14385
aI3
aa(lp1498
I14433
aI0
aa(lp1499
I14433
aI1
aa(lp1500
I14433
aI2
aa(lp1501
I14433
aI3
aa(lp1502
I14433
aI4
aa(lp1503
I14443
aI0
aa(lp1504
I14443
aI1
aa(lp1505
I14443
aI2
aa(lp1506
I14443
aI3
aa(lp1507
I14443
aI4
aa(lp1508
I14476
aI0
aa(lp1509
I14476
aI1
aa(lp1510
I14476
aI2
aa(lp1511
I14476
aI3
aa(lp1512
I14476
aI4
aa(lp1513
I14493
aI1
aa(lp1514
I14493
aI2
aa(lp1515
I14493
aI3
aa(lp1516
I14493
aI4
aa(lp1517
I14523
aI0
aa(lp1518
I14523
aI3
aa(lp1519
I14523
aI4
aa(lp1520
I14528
aI0
aa(lp1521
I14528
aI1
aa(lp1522
I14528
aI2
aa(lp1523
I14530
aI0
aa(lp1524
I14530
aI1
aa(lp1525
I14530
aI2
aa(lp1526
I14530
aI3
aa(lp1527
I14530
aI4
aa(lp1528
I14531
aI0
aa(lp1529
I14531
aI1
aa(lp1530
I14531
aI2
aa(lp1531
I14531
aI3
aa(lp1532
I14531
aI4
aa(lp1533
I14612
aI0
aa(lp1534
I14612
aI1
aa(lp1535
I14612
aI2
aa(lp1536
I14612
aI3
aa(lp1537
I14612
aI4
aa(lp1538
I14669
aI0
aa(lp1539
I14669
aI1
aa(lp1540
I14669
aI2
aa(lp1541
I14669
aI3
aa(lp1542
I14681
aI0
aa(lp1543
I14681
aI1
aa(lp1544
I14681
aI2
aa(lp1545
I14681
aI4
aa(lp1546
I14713
aI2
aa(lp1547
I14713
aI3
aa(lp1548
I14713
aI4
aa(lp1549
I14715
aI0
aa(lp1550
I14715
aI1
aa(lp1551
I14715
aI2
aa(lp1552
I14715
aI3
aa(lp1553
I14715
aI4
aa(lp1554
I14721
aI0
aa(lp1555
I14721
aI1
aa(lp1556
I14721
aI2
aa(lp1557
I14721
aI3
aa(lp1558
I14721
aI4
aa(lp1559
I14727
aI0
aa(lp1560
I14727
aI2
aa(lp1561
I14727
aI3
aa(lp1562
I14827
aI0
aa(lp1563
I14827
aI1
aa(lp1564
I14827
aI2
aa(lp1565
I14827
aI3
aa(lp1566
I14827
aI4
aa(lp1567
I14910
aI0
aa(lp1568
I14910
aI2
aa(lp1569
I14910
aI3
aa(lp1570
I14910
aI4
aa(lp1571
I14977
aI0
aa(lp1572
I14977
aI1
aa(lp1573
I14977
aI2
aa(lp1574
I14977
aI3
aa(lp1575
I14977
aI4
aa(lp1576
I15001
aI0
aa(lp1577
I15001
aI1
aa(lp1578
I15001
aI2
aa(lp1579
I15001
aI3
aa(lp1580
I15001
aI4
aa(lp1581
I15035
aI0
aa(lp1582
I15035
aI1
aa(lp1583
I15035
aI2
aa(lp1584
I15035
aI3
aa(lp1585
I15035
aI4
aa(lp1586
I15036
aI1
aa(lp1587
I15036
aI2
aa(lp1588
I15036
aI4
aa(lp1589
I15052
aI0
aa(lp1590
I15062
aI1
aa(lp1591
I15062
aI3
aa(lp1592
I15062
aI4
aa(lp1593
I15147
aI0
aa(lp1594
I15147
aI1
aa(lp1595
I15147
aI2
aa(lp1596
I15147
aI3
aa(lp1597
I15178
aI0
aa(lp1598
I15178
aI1
aa(lp1599
I15178
aI2
aa(lp1600
I15178
aI3
aa(lp1601
I15178
aI4
aa(lp1602
I15213
aI0
aa(lp1603
I15213
aI1
aa(lp1604
I15213
aI2
aa(lp1605
I15213
aI3
aa(lp1606
I15213
aI4
aa(lp1607
I15283
aI1
aa(lp1608
I15283
aI2
aa(lp1609
I15283
aI3
aa(lp1610
I15283
aI4
aa(lp1611
I15462
aI0
aa(lp1612
I15462
aI1
aa(lp1613
I15462
aI2
aa(lp1614
I15462
aI3
aa(lp1615
I15462
aI4
aa(lp1616
I15565
aI0
aa(lp1617
I15565
aI1
aa(lp1618
I15565
aI2
aa(lp1619
I15565
aI3
aa(lp1620
I15565
aI4
aa(lp1621
I15622
aI0
aa(lp1622
I15622
aI1
aa(lp1623
I15622
aI2
aa(lp1624
I15622
aI3
aa(lp1625
I15622
aI4
aa(lp1626
I15638
aI0
aa(lp1627
I15638
aI1
aa(lp1628
I15638
aI2
aa(lp1629
I15638
aI3
aa(lp1630
I15638
aI4
aa(lp1631
I15642
aI1
aa(lp1632
I15642
aI3
aa(lp1633
I15642
aI4
aa(lp1634
I15647
aI4
aa(lp1635
I15652
aI0
aa(lp1636
I15652
aI1
aa(lp1637
I15652
aI2
aa(lp1638
I15652
aI3
aa(lp1639
I15652
aI4
aa(lp1640
I15750
aI0
aa(lp1641
I15750
aI1
aa(lp1642
I15750
aI2
aa(lp1643
I15750
aI3
aa(lp1644
I15750
aI4
aa(lp1645
I15793
aI1
aa(lp1646
I15793
aI2
aa(lp1647
I15793
aI3
aa(lp1648
I15831
aI0
aa(lp1649
I15831
aI2
aa(lp1650
I15831
aI3
aa(lp1651
I15863
aI2
aa(lp1652
I15863
aI4
aa(lp1653
I15874
aI4
aa(lp1654
I15916
aI0
aa(lp1655
I15916
aI1
aa(lp1656
I15916
aI2
aa(lp1657
I15916
aI3
aa(lp1658
I15916
aI4
aa(lp1659
I15981
aI0
aa(lp1660
I15981
aI1
aa(lp1661
I15981
aI2
aa(lp1662
I15981
aI3
aa(lp1663
I15981
aI4
aa(lp1664
I16007
aI1
aa(lp1665
I16007
aI2
aa(lp1666
I16017
aI0
aa(lp1667
I16017
aI1
aa(lp1668
I16017
aI2
aa(lp1669
I16017
aI3
aa(lp1670
I16017
aI4
aa(lp1671
I16021
aI0
aa(lp1672
I16021
aI1
aa(lp1673
I16044
aI0
aa(lp1674
I16044
aI1
aa(lp1675
I16044
aI2
aa(lp1676
I16044
aI3
aa(lp1677
I16044
aI4
aa(lp1678
I16144
aI0
aa(lp1679
I16144
aI1
aa(lp1680
I16144
aI2
aa(lp1681
I16144
aI3
aa(lp1682
I16144
aI4
aa(lp1683
I16223
aI1
aa(lp1684
I16223
aI2
aa(lp1685
I16223
aI3
aa(lp1686
I16265
aI0
aa(lp1687
I16265
aI2
aa(lp1688
I16265
aI3
aa(lp1689
I16265
aI4
aa(lp1690
I16358
aI0
aa(lp1691
I16358
aI4
aa(lp1692
I16382
aI0
aa(lp1693
I16382
aI1
aa(lp1694
I16382
aI2
aa(lp1695
I16382
aI3
aa(lp1696
I16428
aI0
aa(lp1697
I16428
aI2
aa(lp1698
I16428
aI4
aa(lp1699
I16449
aI0
aa(lp1700
I16449
aI1
aa(lp1701
I16449
aI2
aa(lp1702
I16449
aI3
aa(lp1703
I16449
aI4
aa(lp1704
I16466
aI0
aa(lp1705
I16466
aI1
aa(lp1706
I16466
aI2
aa(lp1707
I16466
aI3
aa(lp1708
I16466
aI4
aa(lp1709
I16480
aI0
aa(lp1710
I16480
aI1
aa(lp1711
I16480
aI2
aa(lp1712
I16480
aI3
aa(lp1713
I16480
aI4
aa(lp1714
I16490
aI0
aa(lp1715
I16490
aI1
aa(lp1716
I16490
aI2
aa(lp1717
I16490
aI3
aa(lp1718
I16490
aI4
aa(lp1719
I16551
aI2
aa(lp1720
I16551
aI3
aa(lp1721
I16579
aI0
aa(lp1722
I16579
aI2
aa(lp1723
I16779
aI0
aa(lp1724
I16779
aI3
aa(lp1725
I16791
aI0
aa(lp1726
I16811
aI0
aa(lp1727
I16811
aI1
aa(lp1728
I16811
aI2
aa(lp1729
I16811
aI3
aa(lp1730
I16929
aI0
aa(lp1731
I16929
aI1
aa(lp1732
I16929
aI2
aa(lp1733
I16929
aI3
aa(lp1734
I16929
aI4
aa(lp1735
I16982
aI0
aa(lp1736
I16982
aI1
aa(lp1737
I16982
aI2
aa(lp1738
I16982
aI3
aa(lp1739
I16982
aI4
aa(lp1740
I16995
aI1
aa(lp1741
I16995
aI2
aa(lp1742
I16995
aI3
aa(lp1743
I17011
aI0
aa(lp1744
I17011
aI1
aa(lp1745
I17011
aI2
aa(lp1746
I17011
aI3
aa(lp1747
I17011
aI4
aa(lp1748
I17042
aI0
aa(lp1749
I17042
aI1
aa(lp1750
I17042
aI2
aa(lp1751
I17042
aI3
aa(lp1752
I17042
aI4
aa(lp1753
I17057
aI0
aa(lp1754
I17057
aI1
aa(lp1755
I17057
aI2
aa(lp1756
I17057
aI3
aa(lp1757
I17057
aI4
aa(lp1758
I17110
aI0
aa(lp1759
I17110
aI1
aa(lp1760
I17110
aI2
aa(lp1761
I17110
aI3
aa(lp1762
I17110
aI4
aa(lp1763
I17112
aI0
aa(lp1764
I17112
aI1
aa(lp1765
I17112
aI3
aa(lp1766
I17112
aI4
aa(lp1767
I17131
aI0
aa(lp1768
I17131
aI1
aa(lp1769
I17131
aI2
aa(lp1770
I17131
aI3
aa(lp1771
I17155
aI0
aa(lp1772
I17155
aI4
aa(lp1773
I17168
aI2
aa(lp1774
I17168
aI4
aa(lp1775
I17251
aI0
aa(lp1776
I17251
aI1
aa(lp1777
I17251
aI2
aa(lp1778
I17251
aI3
aa(lp1779
I17251
aI4
aa(lp1780
I17291
aI1
aa(lp1781
I17291
aI2
aa(lp1782
I17369
aI0
aa(lp1783
I17369
aI1
aa(lp1784
I17369
aI2
aa(lp1785
I17369
aI3
aa(lp1786
I17369
aI4
aa(lp1787
I17481
aI0
aa(lp1788
I17481
aI1
aa(lp1789
I17481
aI2
aa(lp1790
I17481
aI3
aa(lp1791
I17481
aI4
aa(lp1792
I17496
aI0
aa(lp1793
I17496
aI1
aa(lp1794
I17496
aI3
aa(lp1795
I17496
aI4
aa(lp1796
I17516
aI0
aa(lp1797
I17516
aI2
aa(lp1798
I17559
aI0
aa(lp1799
I17559
aI1
aa(lp1800
I17559
aI2
aa(lp1801
I17559
aI3
aa(lp1802
I17586
aI2
aa(lp1803
I17586
aI3
aa(lp1804
I17604
aI0
aa(lp1805
I17604
aI1
aa(lp1806
I17604
aI2
aa(lp1807
I17604
aI3
aa(lp1808
I17604
aI4
aa(lp1809
I17694
aI0
aa(lp1810
I17694
aI1
aa(lp1811
I17694
aI2
aa(lp1812
I17842
aI0
aa(lp1813
I17842
aI1
aa(lp1814
I17842
aI2
aa(lp1815
I17842
aI3
aa(lp1816
I17842
aI4
aa(lp1817
I17871
aI1
aa(lp1818
I17909
aI1
aa(lp1819
I17909
aI2
aa(lp1820
I17909
aI3
aa(lp1821
I17909
aI4
aa(lp1822
I17912
aI0
aa(lp1823
I17912
aI1
aa(lp1824
I17912
aI2
aa(lp1825
I17912
aI3
aa(lp1826
I17912
aI4
aa(lp1827
I17980
aI4
aa(lp1828
I18035
aI0
aa(lp1829
I18035
aI1
aa(lp1830
I18035
aI2
aa(lp1831
I18035
aI3
aa(lp1832
I18035
aI4
aa(lp1833
I18072
aI4
aa(lp1834
I18110
aI0
aa(lp1835
I18110
aI1
aa(lp1836
I18110
aI2
aa(lp1837
I18110
aI3
aa(lp1838
I18110
aI4
aa(lp1839
I18253
aI0
aa(lp1840
I18285
aI0
aa(lp1841
I18285
aI1
aa(lp1842
I18285
aI2
aa(lp1843
I18285
aI3
aa(lp1844
I18285
aI4
aa(lp1845
I18308
aI0
aa(lp1846
I18308
aI1
aa(lp1847
I18308
aI2
aa(lp1848
I18308
aI3
aa(lp1849
I18308
aI4
aa(lp1850
I18312
aI2
aa(lp1851
I18312
aI3
aa(lp1852
I18312
aI4
aa(lp1853
I18358
aI0
aa(lp1854
I18358
aI1
aa(lp1855
I18358
aI2
aa(lp1856
I18358
aI3
aa(lp1857
I18358
aI4
aa(lp1858
I18411
aI1
aa(lp1859
I18411
aI2
aa(lp1860
I18411
aI3
aa(lp1861
I18411
aI4
aa(lp1862
I18499
aI0
aa(lp1863
I18499
aI1
aa(lp1864
I18499
aI2
aa(lp1865
I18499
aI3
aa(lp1866
I18499
aI4
aa(lp1867
I18564
aI0
aa(lp1868
I18564
aI1
aa(lp1869
I18564
aI2
aa(lp1870
I18564
aI3
aa(lp1871
I18564
aI4
aa(lp1872
I18621
aI0
aa(lp1873
I18621
aI1
aa(lp1874
I18621
aI2
aa(lp1875
I18621
aI3
aa(lp1876
I18621
aI4
aa(lp1877
I18623
aI0
aa(lp1878
I18623
aI1
aa(lp1879
I18623
aI2
aa(lp1880
I18623
aI3
aa(lp1881
I18623
aI4
aa(lp1882
I18623
aI5
aa(lp1883
I18660
aI0
aa(lp1884
I18660
aI1
aa(lp1885
I18660
aI2
aa(lp1886
I18660
aI3
aa(lp1887
I18660
aI4
aa(lp1888
I18705
aI0
aa(lp1889
I18705
aI1
aa(lp1890
I18705
aI3
aa(lp1891
I18705
aI4
aa(lp1892
I18735
aI0
aa(lp1893
I18735
aI1
aa(lp1894
I18735
aI2
aa(lp1895
I18735
aI3
aa(lp1896
I18735
aI4
aa(lp1897
I18754
aI0
aa(lp1898
I18754
aI1
aa(lp1899
I18754
aI3
aa(lp1900
I18754
aI4
aa(lp1901
I18786
aI1
aa(lp1902
I18786
aI2
aa(lp1903
I18786
aI3
aa(lp1904
I18786
aI4
aa(lp1905
I18804
aI1
aa(lp1906
I18804
aI2
aa(lp1907
I18843
aI0
aa(lp1908
I18843
aI1
aa(lp1909
I18843
aI2
aa(lp1910
I18843
aI3
aa(lp1911
I18843
aI4
aa(lp1912
I18891
aI0
aa(lp1913
I18891
aI1
aa(lp1914
I18891
aI2
aa(lp1915
I18891
aI3
aa(lp1916
I18891
aI4
aa(lp1917
I18949
aI0
aa(lp1918
I18949
aI1
aa(lp1919
I18949
aI2
aa(lp1920
I18949
aI3
aa(lp1921
I18949
aI4
aa(lp1922
I18975
aI0
aa(lp1923
I18975
aI1
aa(lp1924
I18975
aI2
aa(lp1925
I18975
aI3
aa(lp1926
I18975
aI4
aa(lp1927
I18977
aI0
aa(lp1928
I18977
aI1
aa(lp1929
I18977
aI3
aa(lp1930
I18977
aI4
aa(lp1931
I18980
aI0
aa(lp1932
I18980
aI1
aa(lp1933
I18980
aI2
aa(lp1934
I18980
aI3
aa(lp1935
I18980
aI4
aa(lp1936
I19004
aI0
aa(lp1937
I19004
aI4
aa(lp1938
I19033
aI0
aa(lp1939
I19059
aI0
aa(lp1940
I19059
aI1
aa(lp1941
I19059
aI2
aa(lp1942
I19059
aI3
aa(lp1943
I19094
aI0
aa(lp1944
I19094
aI2
aa(lp1945
I19126
aI0
aa(lp1946
I19126
aI1
aa(lp1947
I19126
aI2
aa(lp1948
I19126
aI3
aa(lp1949
I19126
aI4
aa(lp1950
I19132
aI4
aa(lp1951
I19174
aI1
aa(lp1952
I19197
aI4
aa(lp1953
I19261
aI0
aa(lp1954
I19261
aI1
aa(lp1955
I19261
aI3
aa(lp1956
I19261
aI4
aa(lp1957
I19263
aI0
aa(lp1958
I19263
aI1
aa(lp1959
I19263
aI2
aa(lp1960
I19263
aI3
aa(lp1961
I19263
aI4
aa(lp1962
I19265
aI0
aa(lp1963
I19265
aI1
aa(lp1964
I19265
aI3
aa(lp1965
I19265
aI4
aa(lp1966
I19293
aI0
aa(lp1967
I19293
aI1
aa(lp1968
I19293
aI2
aa(lp1969
I19293
aI3
aa(lp1970
I19293
aI4
aa(lp1971
I19296
aI0
aa(lp1972
I19296
aI1
aa(lp1973
I19296
aI2
aa(lp1974
I19336
aI0
aa(lp1975
I19336
aI1
aa(lp1976
I19336
aI2
aa(lp1977
I19336
aI3
aa(lp1978
I19336
aI4
aa(lp1979
I19339
aI1
aa(lp1980
I19339
aI2
aa(lp1981
I19339
aI3
aa(lp1982
I19339
aI4
aa(lp1983
I19353
aI0
aa(lp1984
I19353
aI1
aa(lp1985
I19353
aI3
aa(lp1986
I19353
aI4
aa(lp1987
I19410
aI3
aa(lp1988
I19424
aI0
aa(lp1989
I19424
aI1
aa(lp1990
I19424
aI3
aa(lp1991
I19424
aI4
aa(lp1992
I19491
aI0
aa(lp1993
I19491
aI2
aa(lp1994
I19491
aI4
aa(lp1995
I19499
aI0
aa(lp1996
I19499
aI1
aa(lp1997
I19499
aI2
aa(lp1998
I19499
aI3
aa(lp1999
I19499
aI4
aa(lp2000
I19511
aI0
aa(lp2001
I19511
aI2
aa(lp2002
I19511
aI3
aa(lp2003
I19511
aI4
aa(lp2004
I19515
aI0
aa(lp2005
I19515
aI1
aa(lp2006
I19515
aI2
aa(lp2007
I19515
aI3
aa(lp2008
I19515
aI4
aa(lp2009
I19532
aI0
aa(lp2010
I19532
aI1
aa(lp2011
I19532
aI2
aa(lp2012
I19532
aI3
aa(lp2013
I19532
aI4
aa(lp2014
I19541
aI0
aa(lp2015
I19541
aI1
aa(lp2016
I19541
aI2
aa(lp2017
I19541
aI3
aa(lp2018
I19541
aI4
aa(lp2019
I19550
aI0
aa(lp2020
I19550
aI1
aa(lp2021
I19550
aI2
aa(lp2022
I19550
aI3
aa(lp2023
I19550
aI4
aa(lp2024
I19616
aI1
aa(lp2025
I19616
aI2
aa(lp2026
I19637
aI1
aa(lp2027
I19637
aI2
aa(lp2028
I19673
aI0
aa(lp2029
I19673
aI1
aa(lp2030
I19673
aI2
aa(lp2031
I19673
aI3
aa(lp2032
I19673
aI4
aa(lp2033
I19690
aI0
aa(lp2034
I19690
aI2
aa(lp2035
I19690
aI3
aa(lp2036
I19690
aI4
aa(lp2037
I19749
aI1
aa(lp2038
I19749
aI2
aa(lp2039
I19756
aI0
aa(lp2040
I19756
aI1
aa(lp2041
I19756
aI2
aa(lp2042
I19756
aI3
aa(lp2043
I19756
aI4
aa(lp2044
I19759
aI0
aa(lp2045
I19759
aI1
aa(lp2046
I19759
aI2
aa(lp2047
I19759
aI3
aa(lp2048
I19759
aI4
aa(lp2049
I19771
aI0
aa(lp2050
I19771
aI1
aa(lp2051
I19771
aI2
aa(lp2052
I19771
aI3
aa(lp2053
I19780
aI0
aa(lp2054
I19861
aI0
aa(lp2055
I19861
aI1
aa(lp2056
I19861
aI2
aa(lp2057
I19861
aI3
aa(lp2058
I19861
aI4
aa(lp2059
I19939
aI0
aa(lp2060
I19939
aI1
aa(lp2061
I19939
aI2
aa(lp2062
I19939
aI3
aa(lp2063
I19939
aI4
aa(lp2064
I19956
aI1
aa(lp2065
I19956
aI2
aa(lp2066
I19956
aI3
aa(lp2067
I20003
aI0
aa(lp2068
I20003
aI2
aa(lp2069
I20003
aI3
aa(lp2070
I20003
aI4
aa(lp2071
I20029
aI1
aa(lp2072
I20029
aI2
aa(lp2073
I20029
aI3
aa(lp2074
I20082
aI0
aa(lp2075
I20082
aI1
aa(lp2076
I20082
aI2
aa(lp2077
I20082
aI3
aa(lp2078
I20082
aI4
aa(lp2079
I20098
aI0
aa(lp2080
I20098
aI1
aa(lp2081
I20098
aI2
aa(lp2082
I20098
aI3
aa(lp2083
I20098
aI4
aa(lp2084
I20160
aI0
aa(lp2085
I20160
aI1
aa(lp2086
I20160
aI2
aa(lp2087
I20160
aI3
aa(lp2088
I20160
aI4
aa(lp2089
I20170
aI0
aa(lp2090
I20170
aI1
aa(lp2091
I20170
aI2
aa(lp2092
I20261
aI0
aa(lp2093
I20261
aI1
aa(lp2094
I20261
aI2
aa(lp2095
I20261
aI3
aa(lp2096
I20261
aI4
aa(lp2097
I20301
aI1
aa(lp2098
I20301
aI4
aa(lp2099
I20310
aI0
aa(lp2100
I20334
aI0
aa(lp2101
I20334
aI1
aa(lp2102
I20334
aI2
aa(lp2103
I20334
aI3
aa(lp2104
I20334
aI4
aa(lp2105
I20337
aI0
aa(lp2106
I20337
aI1
aa(lp2107
I20337
aI2
aa(lp2108
I20337
aI3
aa(lp2109
I20337
aI4
aa(lp2110
I20358
aI0
aa(lp2111
I20358
aI1
aa(lp2112
I20358
aI2
aa(lp2113
I20358
aI3
aa(lp2114
I20358
aI4
aa(lp2115
I20365
aI0
aa(lp2116
I20365
aI1
aa(lp2117
I20365
aI2
aa(lp2118
I20367
aI2
aa(lp2119
I20406
aI0
aa(lp2120
I20406
aI1
aa(lp2121
I20406
aI2
aa(lp2122
I20406
aI3
aa(lp2123
I20406
aI4
aa(lp2124
I20426
aI0
aa(lp2125
I20426
aI1
aa(lp2126
I20426
aI2
aa(lp2127
I20426
aI3
aa(lp2128
I20426
aI4
aa(lp2129
I20552
aI0
aa(lp2130
I20552
aI1
aa(lp2131
I20552
aI2
aa(lp2132
I20552
aI3
aa(lp2133
I20552
aI4
aa(lp2134
I20598
aI0
aa(lp2135
I20598
aI2
aa(lp2136
I20598
aI3
aa(lp2137
I20598
aI4
aa(lp2138
I20640
aI0
aa(lp2139
I20640
aI1
aa(lp2140
I20640
aI3
aa(lp2141
I20640
aI4
aa(lp2142
I20873
aI0
aa(lp2143
I20873
aI1
aa(lp2144
I20873
aI2
aa(lp2145
I20873
aI3
aa(lp2146
I20873
aI4
aa(lp2147
I20934
aI1
aa(lp2148
I20934
aI3
aa(lp2149
I20934
aI4
aa(lp2150
I20964
aI0
aa(lp2151
I20964
aI1
aa(lp2152
I20964
aI3
aa(lp2153
I20964
aI4
aa(lp2154
I20990
aI0
aa(lp2155
I20990
aI1
aa(lp2156
I20990
aI2
aa(lp2157
I20990
aI3
aa(lp2158
I20990
aI4
aa(lp2159
I20993
aI0
aa(lp2160
I20993
aI1
aa(lp2161
I20993
aI2
aa(lp2162
I20993
aI3
aa(lp2163
I20993
aI4
aa(lp2164
I21102
aI1
aa(lp2165
I21102
aI2
aa(lp2166
I21102
aI3
aa(lp2167
I21102
aI4
aa(lp2168
I21296
aI0
aa(lp2169
I21296
aI3
aa(lp2170
I21296
aI4
aa(lp2171
I21358
aI1
aa(lp2172
I21358
aI2
aa(lp2173
I21358
aI4
aa(lp2174
I21364
aI0
aa(lp2175
I21364
aI2
aa(lp2176
I21364
aI3
aa(lp2177
I21432
aI0
aa(lp2178
I21432
aI1
aa(lp2179
I21432
aI2
aa(lp2180
I21432
aI4
aa(lp2181
I21433
aI3
aa(lp2182
I21433
aI4
aa(lp2183
I21443
aI0
aa(lp2184
I21443
aI1
aa(lp2185
I21443
aI2
aa(lp2186
I21443
aI4
aa(lp2187
I21451
aI2
aa(lp2188
I21560
aI1
aa(lp2189
I21560
aI2
aa(lp2190
I21560
aI3
aa(lp2191
I21602
aI0
aa(lp2192
I21602
aI1
aa(lp2193
I21602
aI2
aa(lp2194
I21602
aI3
aa(lp2195
I21602
aI4
aa(lp2196
I21611
aI0
aa(lp2197
I21611
aI1
aa(lp2198
I21611
aI2
aa(lp2199
I21611
aI3
aa(lp2200
I21611
aI4
aa(lp2201
I21646
aI1
aa(lp2202
I21657
aI0
aa(lp2203
I21657
aI1
aa(lp2204
I21657
aI2
aa(lp2205
I21657
aI3
aa(lp2206
I21657
aI4
aa(lp2207
I21778
aI0
aa(lp2208
I21778
aI1
aa(lp2209
I21778
aI2
aa(lp2210
I21778
aI3
aa(lp2211
I21778
aI4
aa(lp2212
I21841
aI0
aa(lp2213
I21841
aI1
aa(lp2214
I21841
aI2
aa(lp2215
I21841
aI3
aa(lp2216
I21841
aI4
aa(lp2217
I21897
aI0
aa(lp2218
I21897
aI1
aa(lp2219
I21897
aI2
aa(lp2220
I21897
aI3
aa(lp2221
I21897
aI4
aa(lp2222
I21928
aI0
aa(lp2223
I21928
aI1
aa(lp2224
I21928
aI2
aa(lp2225
I21928
aI3
aa(lp2226
I21928
aI4
aa(lp2227
I21954
aI0
aa(lp2228
I21954
aI1
aa(lp2229
I21954
aI2
aa(lp2230
I21954
aI3
aa(lp2231
I21959
aI0
aa(lp2232
I21959
aI2
aa(lp2233
I21959
aI4
aa(lp2234
I21963
aI2
aa(lp2235
I21963
aI3
aa(lp2236
I22056
aI0
aa(lp2237
I22056
aI1
aa(lp2238
I22056
aI2
aa(lp2239
I22056
aI3
aa(lp2240
I22056
aI4
aa(lp2241
I22065
aI0
aa(lp2242
I22065
aI1
aa(lp2243
I22065
aI2
aa(lp2244
I22065
aI3
aa(lp2245
I22065
aI4
aa(lp2246
I22116
aI0
aa(lp2247
I22116
aI1
aa(lp2248
I22116
aI2
aa(lp2249
I22116
aI3
aa(lp2250
I22116
aI4
aa(lp2251
I22155
aI0
aa(lp2252
I22155
aI1
aa(lp2253
I22155
aI2
aa(lp2254
I22155
aI3
aa(lp2255
I22155
aI4
aa(lp2256
I22216
aI0
aa(lp2257
I22216
aI1
aa(lp2258
I22216
aI2
aa(lp2259
I22216
aI4
aa(lp2260
I22258
aI1
aa(lp2261
I22258
aI2
aa(lp2262
I22258
aI3
aa(lp2263
I22258
aI4
aa(lp2264
I22320
aI0
aa(lp2265
I22320
aI1
aa(lp2266
I22320
aI2
aa(lp2267
I22320
aI4
aa(lp2268
I22335
aI1
aa(lp2269
I22335
aI2
aa(lp2270
I22335
aI3
aa(lp2271
I22335
aI4
aa(lp2272
I22517
aI0
aa(lp2273
I22517
aI1
aa(lp2274
I22517
aI4
aa(lp2275
I22563
aI2
aa(lp2276
I22609
aI0
aa(lp2277
I22609
aI1
aa(lp2278
I22609
aI2
aa(lp2279
I22609
aI3
aa(lp2280
I22609
aI4
aa(lp2281
I22729
aI0
aa(lp2282
I22729
aI1
aa(lp2283
I22729
aI2
aa(lp2284
I22729
aI3
aa(lp2285
I22729
aI4
aa(lp2286
I22779
aI0
aa(lp2287
I22779
aI2
aa(lp2288
I22779
aI3
aa(lp2289
I22779
aI4
aa(lp2290
I22784
aI0
aa(lp2291
I22784
aI1
aa(lp2292
I22784
aI3
aa(lp2293
I22904
aI0
aa(lp2294
I22904
aI2
aa(lp2295
I22904
aI3
aa(lp2296
I22904
aI4
aa(lp2297
I23028
aI0
aa(lp2298
I23028
aI1
aa(lp2299
I23028
aI2
aa(lp2300
I23028
aI3
aa(lp2301
I23028
aI4
aa(lp2302
I23048
aI0
aa(lp2303
I23048
aI2
aa(lp2304
I23048
aI3
aa(lp2305
I23048
aI4
aa(lp2306
I23132
aI2
aa(lp2307
I23146
aI0
aa(lp2308
I23146
aI1
aa(lp2309
I23146
aI2
aa(lp2310
I23146
aI3
aa(lp2311
I23146
aI4
aa(lp2312
I23233
aI0
aa(lp2313
I23233
aI1
aa(lp2314
I23233
aI2
aa(lp2315
I23233
aI3
aa(lp2316
I23233
aI4
aa(lp2317
I23272
aI0
aa(lp2318
I23272
aI3
aa(lp2319
I23295
aI0
aa(lp2320
I23295
aI1
aa(lp2321
I23295
aI2
aa(lp2322
I23295
aI3
aa(lp2323
I23295
aI4
aa(lp2324
I23304
aI0
aa(lp2325
I23304
aI1
aa(lp2326
I23304
aI2
aa(lp2327
I23304
aI3
aa(lp2328
I23304
aI4
aa(lp2329
I23343
aI0
aa(lp2330
I23343
aI1
aa(lp2331
I23343
aI2
aa(lp2332
I23343
aI3
aa(lp2333
I23343
aI4
aa(lp2334
I23376
aI0
aa(lp2335
I23376
aI1
aa(lp2336
I23376
aI2
aa(lp2337
I23376
aI3
aa(lp2338
I23376
aI4
aa(lp2339
I23425
aI0
aa(lp2340
I23425
aI1
aa(lp2341
I23425
aI2
aa(lp2342
I23425
aI3
aa(lp2343
I23425
aI4
aa(lp2344
I23440
aI2
aa(lp2345
I23440
aI4
aa(lp2346
I23516
aI1
aa(lp2347
I23516
aI3
aa(lp2348
I23516
aI4
aa(lp2349
I23655
aI0
aa(lp2350
I23655
aI1
aa(lp2351
I23655
aI3
aa(lp2352
I23655
aI4
aa(lp2353
I23785
aI0
aa(lp2354
I23824
aI0
aa(lp2355
I23824
aI1
aa(lp2356
I23824
aI3
aa(lp2357
I23848
aI0
aa(lp2358
I23848
aI1
aa(lp2359
I23848
aI3
aa(lp2360
I23848
aI4
aa(lp2361
I23934
aI0
aa(lp2362
I23934
aI1
aa(lp2363
I23934
aI2
aa(lp2364
I23934
aI3
aa(lp2365
I23934
aI4
aa(lp2366
I23957
aI1
aa(lp2367
I23957
aI3
aa(lp2368
I23957
aI4
aa(lp2369
I24112
aI1
aa(lp2370
I24123
aI0
aa(lp2371
I24123
aI3
aa(lp2372
I24123
aI4
aa(lp2373
I24203
aI0
aa(lp2374
I24203
aI1
aa(lp2375
I24219
aI0
aa(lp2376
I24219
aI1
aa(lp2377
I24219
aI2
aa(lp2378
I24219
aI3
aa(lp2379
I24219
aI4
aa(lp2380
I24250
aI0
aa(lp2381
I24272
aI0
aa(lp2382
I24272
aI2
aa(lp2383
I24272
aI3
aa(lp2384
I24307
aI1
aa(lp2385
I24307
aI2
aa(lp2386
I24325
aI3
aa(lp2387
I24325
aI4
aa(lp2388
I24366
aI0
aa(lp2389
I24366
aI1
aa(lp2390
I24366
aI3
aa(lp2391
I24366
aI4
aa(lp2392
I24536
aI0
aa(lp2393
I24536
aI2
aa(lp2394
I24536
aI4
aa(lp2395
I24551
aI0
aa(lp2396
I24551
aI1
aa(lp2397
I24551
aI3
aa(lp2398
I24551
aI4
aa(lp2399
I24570
aI0
aa(lp2400
I24570
aI1
aa(lp2401
I24570
aI2
aa(lp2402
I24570
aI3
aa(lp2403
I24570
aI4
aa(lp2404
I24636
aI0
aa(lp2405
I24636
aI1
aa(lp2406
I24636
aI2
aa(lp2407
I24636
aI3
aa(lp2408
I24636
aI4
aa(lp2409
I24713
aI0
aa(lp2410
I24713
aI1
aa(lp2411
I24713
aI2
aa(lp2412
I24713
aI3
aa(lp2413
I24713
aI4
aa(lp2414
I24749
aI0
aa(lp2415
I24749
aI1
aa(lp2416
I24749
aI2
aa(lp2417
I24749
aI3
aa(lp2418
I24749
aI4
aa(lp2419
I24771
aI0
aa(lp2420
I24771
aI1
aa(lp2421
I24771
aI2
aa(lp2422
I24771
aI3
aa(lp2423
I24771
aI4
aa(lp2424
I24802
aI0
aa(lp2425
I24802
aI1
aa(lp2426
I24802
aI2
aa(lp2427
I24802
aI3
aa(lp2428
I24802
aI4
aa(lp2429
I24890
aI0
aa(lp2430
I24890
aI1
aa(lp2431
I24890
aI2
aa(lp2432
I24890
aI4
aa(lp2433
I24972
aI0
aa(lp2434
I24972
aI4
aa(lp2435
I24975
aI1
aa(lp2436
I24975
aI3
aa(lp2437
I24975
aI4
aa(lp2438
I24982
aI0
aa(lp2439
I24982
aI1
aa(lp2440
I24982
aI3
aa(lp2441
I24982
aI4
aa(lp2442
I25037
aI0
aa(lp2443
I25037
aI1
aa(lp2444
I25037
aI2
aa(lp2445
I25037
aI3
aa(lp2446
I25037
aI4
aa(lp2447
I25126
aI1
aa(lp2448
I25126
aI4
aa(lp2449
I25184
aI3
aa(lp2450
I25199
aI0
aa(lp2451
I25199
aI1
aa(lp2452
I25199
aI2
aa(lp2453
I25199
aI3
aa(lp2454
I25199
aI4
aa(lp2455
I25202
aI0
aa(lp2456
I25202
aI1
aa(lp2457
I25202
aI3
aa(lp2458
I25202
aI4
aa(lp2459
I25234
aI0
aa(lp2460
I25234
aI1
aa(lp2461
I25234
aI2
aa(lp2462
I25234
aI3
aa(lp2463
I25308
aI1
aa(lp2464
I25308
aI3
aa(lp2465
I25308
aI4
aa(lp2466
I25318
aI0
aa(lp2467
I25318
aI1
aa(lp2468
I25318
aI2
aa(lp2469
I25318
aI3
aa(lp2470
I25318
aI4
aa(lp2471
I25324
aI0
aa(lp2472
I25324
aI1
aa(lp2473
I25324
aI2
aa(lp2474
I25324
aI3
aa(lp2475
I25324
aI4
aa(lp2476
I25328
aI0
aa(lp2477
I25328
aI2
aa(lp2478
I25328
aI3
aa(lp2479
I25335
aI0
aa(lp2480
I25335
aI1
aa(lp2481
I25335
aI3
aa(lp2482
I25335
aI4
aa(lp2483
I25391
aI0
aa(lp2484
I25391
aI1
aa(lp2485
I25391
aI2
aa(lp2486
I25391
aI3
aa(lp2487
I25391
aI4
aa(lp2488
I25447
aI1
aa(lp2489
I25447
aI2
aa(lp2490
I25457
aI0
aa(lp2491
I25457
aI2
aa(lp2492
I25457
aI4
aa(lp2493
I25484
aI0
aa(lp2494
I25484
aI1
aa(lp2495
I25484
aI2
aa(lp2496
I25484
aI3
aa(lp2497
I25484
aI4
aa(lp2498
I25527
aI0
aa(lp2499
I25527
aI1
aa(lp2500
I25527
aI2
aa(lp2501
I25527
aI3
aa(lp2502
I25527
aI4
aa(lp2503
I25557
aI0
aa(lp2504
I25557
aI1
aa(lp2505
I25557
aI2
aa(lp2506
I25557
aI3
aa(lp2507
I25557
aI4
aa(lp2508
I25580
aI0
aa(lp2509
I25580
aI1
aa(lp2510
I25580
aI2
aa(lp2511
I25580
aI3
aa(lp2512
I25580
aI4
aa(lp2513
I25676
aI0
aa(lp2514
I25676
aI2
aa(lp2515
I25676
aI3
aa(lp2516
I25676
aI4
aa(lp2517
I25711
aI0
aa(lp2518
I25711
aI1
aa(lp2519
I25711
aI2
aa(lp2520
I25711
aI3
aa(lp2521
I25711
aI4
aa(lp2522
I25732
aI0
aa(lp2523
I25732
aI1
aa(lp2524
I25732
aI2
aa(lp2525
I25732
aI3
aa(lp2526
I25732
aI4
aa(lp2527
I25774
aI1
aa(lp2528
I25774
aI3
aa(lp2529
I25774
aI4
aa(lp2530
I25803
aI2
aa(lp2531
I25803
aI4
aa(lp2532
I25857
aI0
aa(lp2533
I25857
aI1
aa(lp2534
I25857
aI2
aa(lp2535
I25857
aI3
aa(lp2536
I25857
aI4
aa(lp2537
I25901
aI3
aa(lp2538
I25904
aI0
aa(lp2539
I25904
aI1
aa(lp2540
I25904
aI2
aa(lp2541
I25904
aI3
aa(lp2542
I25904
aI4
aa(lp2543
I25909
aI0
aa(lp2544
I25909
aI1
aa(lp2545
I25909
aI2
aa(lp2546
I25909
aI3
aa(lp2547
I25909
aI4
aa(lp2548
I25933
aI0
aa(lp2549
I25933
aI1
aa(lp2550
I25933
aI2
aa(lp2551
I25933
aI3
aa(lp2552
I25933
aI4
aa(lp2553
I25943
aI0
aa(lp2554
I25943
aI1
aa(lp2555
I25943
aI2
aa(lp2556
I25943
aI4
aa(lp2557
I26112
aI0
aa(lp2558
I26112
aI3
aa(lp2559
I26167
aI0
aa(lp2560
I26167
aI4
aa(lp2561
I26207
aI3
aa(lp2562
I26270
aI0
aa(lp2563
I26270
aI1
aa(lp2564
I26270
aI2
aa(lp2565
I26270
aI3
aa(lp2566
I26270
aI4
aa(lp2567
I26349
aI0
aa(lp2568
I26349
aI2
aa(lp2569
I26370
aI0
aa(lp2570
I26370
aI1
aa(lp2571
I26370
aI2
aa(lp2572
I26370
aI3
aa(lp2573
I26370
aI4
aa(lp2574
I26481
aI1
aa(lp2575
I26481
aI2
aa(lp2576
I26481
aI3
aa(lp2577
I26481
aI4
aa(lp2578
I26508
aI0
aa(lp2579
I26508
aI1
aa(lp2580
I26508
aI2
aa(lp2581
I26508
aI3
aa(lp2582
I26508
aI4
aa(lp2583
I26555
aI0
aa(lp2584
I26555
aI2
aa(lp2585
I26555
aI3
aa(lp2586
I26561
aI1
aa(lp2587
I26561
aI2
aa(lp2588
I26561
aI3
aa(lp2589
I26570
aI0
aa(lp2590
I26570
aI1
aa(lp2591
I26570
aI2
aa(lp2592
I26570
aI3
aa(lp2593
I26570
aI4
aa(lp2594
I26622
aI0
aa(lp2595
I26622
aI1
aa(lp2596
I26622
aI2
aa(lp2597
I26650
aI0
aa(lp2598
I26654
aI0
aa(lp2599
I26654
aI1
aa(lp2600
I26654
aI2
aa(lp2601
I26654
aI3
aa(lp2602
I26673
aI1
aa(lp2603
I26673
aI2
aa(lp2604
I26674
aI0
aa(lp2605
I26674
aI1
aa(lp2606
I26674
aI2
aa(lp2607
I26674
aI3
aa(lp2608
I26674
aI4
aa(lp2609
I26701
aI1
aa(lp2610
I26701
aI3
aa(lp2611
I26701
aI4
aa(lp2612
I26814
aI0
aa(lp2613
I26814
aI1
aa(lp2614
I26814
aI2
aa(lp2615
I26814
aI3
aa(lp2616
I26814
aI5
aa(lp2617
I26845
aI0
aa(lp2618
I26845
aI1
aa(lp2619
I26845
aI2
aa(lp2620
I26845
aI3
aa(lp2621
I26845
aI4
aa(lp2622
I26885
aI0
aa(lp2623
I26885
aI3
aa(lp2624
I26964
aI0
aa(lp2625
I26964
aI1
aa(lp2626
I26964
aI2
aa(lp2627
I26964
aI3
aa(lp2628
I26964
aI4
aa(lp2629
I26999
aI1
aa(lp2630
I26999
aI3
aa(lp2631
I27022
aI0
aa(lp2632
I27022
aI1
aa(lp2633
I27022
aI2
aa(lp2634
I27022
aI3
aa(lp2635
I27043
aI0
aa(lp2636
I27043
aI1
aa(lp2637
I27043
aI2
aa(lp2638
I27043
aI3
aa(lp2639
I27043
aI4
aa(lp2640
I27084
aI0
aa(lp2641
I27084
aI4
aa(lp2642
I27094
aI0
aa(lp2643
I27094
aI2
aa(lp2644
I27106
aI1
aa(lp2645
I27106
aI2
aa(lp2646
I27106
aI3
aa(lp2647
I27195
aI3
aa(lp2648
I27195
aI4
aa(lp2649
I27210
aI0
aa(lp2650
I27210
aI1
aa(lp2651
I27210
aI2
aa(lp2652
I27210
aI3
aa(lp2653
I27210
aI4
aa(lp2654
I27220
aI0
aa(lp2655
I27220
aI2
aa(lp2656
I27220
aI3
aa(lp2657
I27220
aI4
aa(lp2658
I27247
aI0
aa(lp2659
I27247
aI1
aa(lp2660
I27247
aI2
aa(lp2661
I27247
aI3
aa(lp2662
I27261
aI0
aa(lp2663
I27261
aI1
aa(lp2664
I27261
aI2
aa(lp2665
I27261
aI3
aa(lp2666
I27261
aI4
aa(lp2667
I27274
aI0
aa(lp2668
I27274
aI2
aa(lp2669
I27274
aI3
aa(lp2670
I27274
aI4
aa(lp2671
I27295
aI0
aa(lp2672
I27295
aI1
aa(lp2673
I27295
aI3
aa(lp2674
I27295
aI4
aa(lp2675
I27300
aI0
aa(lp2676
I27300
aI1
aa(lp2677
I27300
aI2
aa(lp2678
I27300
aI3
aa(lp2679
I27300
aI4
aa(lp2680
I27309
aI0
aa(lp2681
I27309
aI1
aa(lp2682
I27309
aI2
aa(lp2683
I27309
aI3
aa(lp2684
I27309
aI4
aa(lp2685
I27348
aI0
aa(lp2686
I27348
aI1
aa(lp2687
I27348
aI2
aa(lp2688
I27348
aI3
aa(lp2689
I27348
aI4
aa(lp2690
I27483
aI0
aa(lp2691
I27483
aI4
aa(lp2692
I27532
aI1
aa(lp2693
I27532
aI2
aa(lp2694
I27532
aI4
aa(lp2695
I27543
aI0
aa(lp2696
I27543
aI1
aa(lp2697
I27543
aI4
aa(lp2698
I27553
aI0
aa(lp2699
I27553
aI2
aa(lp2700
I27553
aI3
aa(lp2701
I27553
aI4
aa(lp2702
I27600
aI0
aa(lp2703
I27600
aI1
aa(lp2704
I27600
aI2
aa(lp2705
I27600
aI3
aa(lp2706
I27600
aI4
aa(lp2707
I27774
aI3
aa(lp2708
I27774
aI4
aa(lp2709
I27783
aI0
aa(lp2710
I27783
aI1
aa(lp2711
I27783
aI2
aa(lp2712
I27783
aI3
aa(lp2713
I27783
aI4
aa(lp2714
I27820
aI0
aa(lp2715
I27820
aI1
aa(lp2716
I27820
aI2
aa(lp2717
I27820
aI3
aa(lp2718
I27847
aI0
aa(lp2719
I27847
aI1
aa(lp2720
I27847
aI2
aa(lp2721
I27847
aI3
aa(lp2722
I27847
aI4
aa(lp2723
I27881
aI0
aa(lp2724
I27881
aI1
aa(lp2725
I27881
aI3
aa(lp2726
I27937
aI0
aa(lp2727
I27937
aI2
aa(lp2728
I27940
aI0
aa(lp2729
I27940
aI1
aa(lp2730
I27940
aI4
aa(lp2731
I27980
aI0
aa(lp2732
I27980
aI1
aa(lp2733
I27980
aI2
aa(lp2734
I27980
aI3
aa(lp2735
I27980
aI4
aa(lp2736
I28066
aI0
aa(lp2737
I28066
aI1
aa(lp2738
I28066
aI2
aa(lp2739
I28066
aI3
aa(lp2740
I28066
aI4
aa(lp2741
I28115
aI0
aa(lp2742
I28115
aI1
aa(lp2743
I28115
aI2
aa(lp2744
I28115
aI3
aa(lp2745
I28115
aI4
aa(lp2746
I28156
aI1
aa(lp2747
I28187
aI0
aa(lp2748
I28187
aI1
aa(lp2749
I28187
aI2
aa(lp2750
I28187
aI3
aa(lp2751
I28187
aI4
aa(lp2752
I28248
aI0
aa(lp2753
I28315
aI0
aa(lp2754
I28315
aI1
aa(lp2755
I28315
aI2
aa(lp2756
I28315
aI3
aa(lp2757
I28315
aI4
aa(lp2758
I28324
aI1
aa(lp2759
I28324
aI4
aa(lp2760
I28326
aI0
aa(lp2761
I28326
aI3
aa(lp2762
I28326
aI4
aa(lp2763
I28373
aI0
aa(lp2764
I28373
aI3
aa(lp2765
I28405
aI1
aa(lp2766
I28405
aI2
aa(lp2767
I28405
aI4
aa(lp2768
I28444
aI0
aa(lp2769
I28444
aI1
aa(lp2770
I28444
aI2
aa(lp2771
I28444
aI4
aa(lp2772
I28508
aI0
aa(lp2773
I28508
aI2
aa(lp2774
I28508
aI3
aa(lp2775
I28508
aI4
aa(lp2776
I28573
aI0
aa(lp2777
I28573
aI2
aa(lp2778
I28573
aI4
aa(lp2779
I28589
aI0
aa(lp2780
I28589
aI2
aa(lp2781
I28589
aI3
aa(lp2782
I28589
aI4
aa(lp2783
I28604
aI2
aa(lp2784
I28632
aI1
aa(lp2785
I28632
aI3
aa(lp2786
I28632
aI4
aa(lp2787
I28688
aI0
aa(lp2788
I28688
aI1
aa(lp2789
I28688
aI2
aa(lp2790
I28688
aI3
aa(lp2791
I28688
aI4
aa(lp2792
I28715
aI0
aa(lp2793
I28715
aI1
aa(lp2794
I28715
aI2
aa(lp2795
I28715
aI4
aa(lp2796
I28753
aI0
aa(lp2797
I28753
aI1
aa(lp2798
I28753
aI2
aa(lp2799
I28753
aI3
aa(lp2800
I28753
aI4
aa(lp2801
I28854
aI0
aa(lp2802
I28854
aI1
aa(lp2803
I28854
aI2
aa(lp2804
I28854
aI3
aa(lp2805
I28854
aI4
aa(lp2806
I28885
aI1
aa(lp2807
I28885
aI2
aa(lp2808
I28885
aI4
aa(lp2809
I28889
aI0
aa(lp2810
I28889
aI1
aa(lp2811
I28889
aI2
aa(lp2812
I28889
aI3
aa(lp2813
I28889
aI4
aa(lp2814
I28904
aI0
aa(lp2815
I28904
aI1
aa(lp2816
I28904
aI2
aa(lp2817
I28904
aI3
aa(lp2818
I28904
aI4
aa(lp2819
I28948
aI4
aa(lp2820
I28954
aI0
aa(lp2821
I28954
aI1
aa(lp2822
I28954
aI2
aa(lp2823
I28954
aI3
aa(lp2824
I28954
aI4
aa(lp2825
I28961
aI0
aa(lp2826
I28961
aI4
aa(lp2827
I28993
aI1
aa(lp2828
I28993
aI3
aa(lp2829
I29042
aI1
aa(lp2830
I29042
aI2
aa(lp2831
I29042
aI3
aa(lp2832
I29042
aI4
aa(lp2833
I29183
aI0
aa(lp2834
I29183
aI1
aa(lp2835
I29183
aI2
aa(lp2836
I29183
aI3
aa(lp2837
I29183
aI4
aa(lp2838
I29188
aI0
aa(lp2839
I29188
aI1
aa(lp2840
I29188
aI2
aa(lp2841
I29188
aI3
aa(lp2842
I29192
aI0
aa(lp2843
I29192
aI1
aa(lp2844
I29192
aI2
aa(lp2845
I29192
aI3
aa(lp2846
I29192
aI4
aa(lp2847
I29257
aI0
aa(lp2848
I29257
aI2
aa(lp2849
I29257
aI3
aa(lp2850
I29257
aI4
aa(lp2851
I29366
aI0
aa(lp2852
I29489
aI2
aa(lp2853
I29489
aI4
aa(lp2854
I29559
aI0
aa(lp2855
I29559
aI4
aa(lp2856
I29622
aI0
aa(lp2857
I29622
aI1
aa(lp2858
I29622
aI2
aa(lp2859
I29622
aI3
aa(lp2860
I29622
aI4
aa(lp2861
I29643
aI0
aa(lp2862
I29643
aI1
aa(lp2863
I29643
aI2
aa(lp2864
I29643
aI3
aa(lp2865
I29643
aI4
aa(lp2866
I29668
aI0
aa(lp2867
I29668
aI1
aa(lp2868
I29668
aI3
aa(lp2869
I29668
aI4
aa(lp2870
I29732
aI0
aa(lp2871
I29732
aI1
aa(lp2872
I29732
aI2
aa(lp2873
I29732
aI3
aa(lp2874
I29732
aI4
aa(lp2875
I29734
aI0
aa(lp2876
I29734
aI3
aa(lp2877
I29734
aI4
aa(lp2878
I29772
aI3
aa(lp2879
I29822
aI0
aa(lp2880
I29822
aI1
aa(lp2881
I29822
aI2
aa(lp2882
I29822
aI3
aa(lp2883
I29822
aI4
aa(lp2884
I29827
aI3
aa(lp2885
I29831
aI0
aa(lp2886
I29831
aI1
aa(lp2887
I29831
aI2
aa(lp2888
I29831
aI3
aa(lp2889
I29831
aI4
aa(lp2890
I29835
aI0
aa(lp2891
I29835
aI1
aa(lp2892
I29835
aI2
aa(lp2893
I29835
aI3
aa(lp2894
I29835
aI4
aa(lp2895
I29864
aI0
aa(lp2896
I29864
aI1
aa(lp2897
I29864
aI3
aa(lp2898
I29864
aI4
aa(lp2899
I29907
aI1
aa(lp2900
I29907
aI2
aa(lp2901
I29907
aI4
aa(lp2902
I30058
aI0
aa(lp2903
I30058
aI2
aa(lp2904
I30058
aI4
aa(lp2905
I30067
aI0
aa(lp2906
I30067
aI1
aa(lp2907
I30067
aI2
aa(lp2908
I30067
aI3
aa(lp2909
I30067
aI4
aa(lp2910
I30068
aI1
aa(lp2911
I30068
aI3
aa(lp2912
I30129
aI0
aa(lp2913
I30129
aI1
aa(lp2914
I30129
aI2
aa(lp2915
I30129
aI3
aa(lp2916
I30129
aI4
aa(lp2917
I30141
aI0
aa(lp2918
I30141
aI1
aa(lp2919
I30141
aI2
aa(lp2920
I30141
aI3
aa(lp2921
I30158
aI0
aa(lp2922
I30158
aI1
aa(lp2923
I30158
aI2
aa(lp2924
I30158
aI3
aa(lp2925
I30201
aI3
aa(lp2926
I30223
aI0
aa(lp2927
I30223
aI1
aa(lp2928
I30223
aI2
aa(lp2929
I30223
aI3
aa(lp2930
I30223
aI4
aa(lp2931
I30307
aI0
aa(lp2932
I30307
aI1
aa(lp2933
I30307
aI2
aa(lp2934
I30307
aI3
aa(lp2935
I30307
aI4
aa(lp2936
I30347
aI4
aa(lp2937
I30348
aI0
aa(lp2938
I30348
aI1
aa(lp2939
I30348
aI2
aa(lp2940
I30348
aI3
aa(lp2941
I30348
aI4
aa(lp2942
I30462
aI1
aa(lp2943
I30541
aI1
aa(lp2944
I30541
aI2
aa(lp2945
I30541
aI3
aa(lp2946
I30541
aI4
aa(lp2947
I30586
aI0
aa(lp2948
I30586
aI1
aa(lp2949
I30586
aI3
aa(lp2950
I30586
aI4
aa(lp2951
I30602
aI0
aa(lp2952
I30602
aI1
aa(lp2953
I30602
aI2
aa(lp2954
I30602
aI3
aa(lp2955
I30629
aI0
aa(lp2956
I30629
aI1
aa(lp2957
I30629
aI2
aa(lp2958
I30629
aI3
aa(lp2959
I30629
aI4
aa(lp2960
I30636
aI1
aa(lp2961
I30636
aI3
aa(lp2962
I30636
aI4
aa(lp2963
I30659
aI3
aa(lp2964
I30776
aI0
aa(lp2965
I30776
aI1
aa(lp2966
I30776
aI2
aa(lp2967
I30776
aI3
aa(lp2968
I30776
aI4
aa(lp2969
I30780
aI0
aa(lp2970
I30780
aI1
aa(lp2971
I30780
aI2
aa(lp2972
I30780
aI3
aa(lp2973
I30780
aI4
aa(lp2974
I30780
aI5
aa(lp2975
I30822
aI2
aa(lp2976
I30825
aI2
aa(lp2977
I30825
aI4
aa(lp2978
I30834
aI0
aa(lp2979
I30834
aI1
aa(lp2980
I30834
aI2
aa(lp2981
I30834
aI3
aa(lp2982
I30834
aI4
aa(lp2983
I30844
aI0
aa(lp2984
I30844
aI3
aa(lp2985
I30859
aI1
aa(lp2986
I30883
aI0
aa(lp2987
I30883
aI1
aa(lp2988
I30883
aI2
aa(lp2989
I30883
aI3
aa(lp2990
I30883
aI4
aa(lp2991
I30892
aI0
aa(lp2992
I30892
aI1
aa(lp2993
I30892
aI2
aa(lp2994
I30892
aI3
aa(lp2995
I30892
aI4
aa(lp2996
I30893
aI0
aa(lp2997
I30893
aI2
aa(lp2998
I30893
aI3
aa(lp2999
I30900
aI0
aa(lp3000
I30900
aI1
aa(lp3001
I30900
aI2
aa(lp3002
I30900
aI3
aa(lp3003
I30900
aI4
aa(lp3004
I30929
aI4
aa(lp3005
I30942
aI2
aa(lp3006
I30942
aI3
aa(lp3007
I30948
aI3
aa(lp3008
I30994
aI0
aa(lp3009
I31025
aI0
aa(lp3010
I31025
aI1
aa(lp3011
I31025
aI4
aa(lp3012
I31047
aI0
aa(lp3013
I31047
aI1
aa(lp3014
I31047
aI2
aa(lp3015
I31047
aI3
aa(lp3016
I31047
aI4
aa(lp3017
I31092
aI4
aa(lp3018
I31137
aI0
aa(lp3019
I31137
aI1
aa(lp3020
I31137
aI2
aa(lp3021
I31137
aI3
aa(lp3022
I31137
aI4
aa(lp3023
I31173
aI0
aa(lp3024
I31173
aI1
aa(lp3025
I31173
aI2
aa(lp3026
I31173
aI3
aa(lp3027
I31173
aI4
aa(lp3028
I31244
aI0
aa(lp3029
I31244
aI1
aa(lp3030
I31244
aI2
aa(lp3031
I31244
aI3
aa(lp3032
I31244
aI4
aa(lp3033
I31267
aI0
aa(lp3034
I31267
aI1
aa(lp3035
I31283
aI0
aa(lp3036
I31283
aI3
aa(lp3037
I31294
aI0
aa(lp3038
I31294
aI1
aa(lp3039
I31294
aI2
aa(lp3040
I31294
aI3
aa(lp3041
I31294
aI4
aa(lp3042
I31325
aI0
aa(lp3043
I31325
aI1
aa(lp3044
I31325
aI2
aa(lp3045
I31325
aI3
aa(lp3046
I31325
aI4
aa(lp3047
I31451
aI0
aa(lp3048
I31451
aI1
aa(lp3049
I31451
aI2
aa(lp3050
I31451
aI3
aa(lp3051
I31451
aI4
aa(lp3052
I31475
aI0
aa(lp3053
I31475
aI1
aa(lp3054
I31475
aI2
aa(lp3055
I31475
aI3
aa(lp3056
I31475
aI4
aa(lp3057
I31498
aI2
aa(lp3058
I31498
aI3
aa(lp3059
I31498
aI4
aa(lp3060
I31507
aI0
aa(lp3061
I31507
aI1
aa(lp3062
I31507
aI2
aa(lp3063
I31507
aI3
aa(lp3064
I31507
aI4
aa(lp3065
I31617
aI2
aa(lp3066
I31617
aI4
aa(lp3067
I31659
aI0
aa(lp3068
I31659
aI1
aa(lp3069
I31659
aI2
aa(lp3070
I31659
aI3
aa(lp3071
I31659
aI4
aa(lp3072
I31705
aI1
aa(lp3073
I31705
aI2
aa(lp3074
I31705
aI3
aa(lp3075
I31705
aI4
aa(lp3076
I31707
aI0
aa(lp3077
I31707
aI1
aa(lp3078
I31707
aI2
aa(lp3079
I31707
aI3
aa(lp3080
I31707
aI4
aa(lp3081
I31716
aI4
aa(lp3082
I31725
aI1
aa(lp3083
I31725
aI2
aa(lp3084
I31725
aI3
aa(lp3085
I31725
aI4
aa(lp3086
I31842
aI1
aa(lp3087
I31842
aI3
aa(lp3088
I31842
aI4
aa(lp3089
I31864
aI4
aa(lp3090
I31882
aI0
aa(lp3091
I31882
aI1
aa(lp3092
I31882
aI2
aa(lp3093
I31882
aI3
aa(lp3094
I31882
aI4
aa(lp3095
I31908
aI0
aa(lp3096
I31911
aI0
aa(lp3097
I31911
aI1
aa(lp3098
I31911
aI2
aa(lp3099
I31911
aI3
aa(lp3100
I31919
aI0
aa(lp3101
I31919
aI2
aa(lp3102
I31919
aI4
aa(lp3103
I31965
aI0
aa(lp3104
I31965
aI1
aa(lp3105
I31965
aI3
aa(lp3106
I31965
aI4
aa(lp3107
I31988
aI0
aa(lp3108
I31988
aI1
aa(lp3109
I31988
aI2
aa(lp3110
I31988
aI3
aa(lp3111
I32030
aI0
aa(lp3112
I32030
aI1
aa(lp3113
I32030
aI2
aa(lp3114
I32030
aI4
aa(lp3115
I32047
aI0
aa(lp3116
I32047
aI1
aa(lp3117
I32047
aI2
aa(lp3118
I32047
aI3
aa(lp3119
I32047
aI4
aa(lp3120
I32049
aI0
aa(lp3121
I32049
aI1
aa(lp3122
I32049
aI2
aa(lp3123
I32049
aI3
aa(lp3124
I32049
aI4
aa(lp3125
I32072
aI0
aa(lp3126
I32072
aI1
aa(lp3127
I32072
aI2
aa(lp3128
I32072
aI3
aa(lp3129
I32072
aI4
aa(lp3130
I32078
aI4
aa(lp3131
I32153
aI0
aa(lp3132
I32153
aI2
aa(lp3133
I32153
aI3
aa(lp3134
I32153
aI4
aa(lp3135
I32166
aI4
aa(lp3136
I32233
aI0
aa(lp3137
I32233
aI1
aa(lp3138
I32233
aI2
aa(lp3139
I32233
aI3
aa(lp3140
I32233
aI4
aa(lp3141
I32237
aI0
aa(lp3142
I32237
aI1
aa(lp3143
I32237
aI2
aa(lp3144
I32237
aI4
aa(lp3145
I32245
aI2
aa(lp3146
I32245
aI4
aa(lp3147
I32254
aI1
aa(lp3148
I32254
aI2
aa(lp3149
I32274
aI2
aa(lp3150
I32274
aI3
aa(lp3151
I32295
aI0
aa(lp3152
I32295
aI1
aa(lp3153
I32295
aI2
aa(lp3154
I32295
aI3
aa(lp3155
I32295
aI4
aa(lp3156
I32298
aI1
aa(lp3157
I32301
aI0
aa(lp3158
I32301
aI1
aa(lp3159
I32301
aI2
aa(lp3160
I32301
aI3
aa(lp3161
I32301
aI4
aa(lp3162
I32344
aI0
aa(lp3163
I32344
aI1
aa(lp3164
I32344
aI2
aa(lp3165
I32344
aI3
aa(lp3166
I32344
aI4
aa(lp3167
I32365
aI0
aa(lp3168
I32365
aI1
aa(lp3169
I32365
aI2
aa(lp3170
I32365
aI3
aa(lp3171
I32365
aI4
aa(lp3172
I32414
aI0
aa(lp3173
I32414
aI1
aa(lp3174
I32414
aI2
aa(lp3175
I32414
aI3
aa(lp3176
I32414
aI4
aa(lp3177
I32417
aI0
aa(lp3178
I32417
aI1
aa(lp3179
I32417
aI2
aa(lp3180
I32417
aI4
aa(lp3181
I32512
aI0
aa(lp3182
I32512
aI1
aa(lp3183
I32512
aI2
aa(lp3184
I32512
aI3
aa(lp3185
I32512
aI4
aa(lp3186
I32661
aI3
aa(lp3187
I32661
aI4
aa(lp3188
I32836
aI0
aa(lp3189
I32836
aI1
aa(lp3190
I32836
aI2
aa(lp3191
I32836
aI3
aa(lp3192
I32836
aI4
aa(lp3193
I32866
aI1
aa(lp3194
I32866
aI2
aa(lp3195
I32866
aI4
aa(lp3196
I33092
aI0
aa(lp3197
I33092
aI1
aa(lp3198
I33092
aI3
aa(lp3199
I33092
aI4
aa(lp3200
I33124
aI0
aa(lp3201
I33124
aI2
aa(lp3202
I33124
aI3
aa(lp3203
I33124
aI4
aa(lp3204
I33126
aI0
aa(lp3205
I33126
aI2
aa(lp3206
I33126
aI3
aa(lp3207
I33133
aI0
aa(lp3208
I33133
aI1
aa(lp3209
I33133
aI2
aa(lp3210
I33133
aI4
aa(lp3211
I33218
aI0
aa(lp3212
I33218
aI2
aa(lp3213
I33218
aI3
aa(lp3214
I33218
aI4
aa(lp3215
I33343
aI2
aa(lp3216
I33343
aI3
aa(lp3217
I33352
aI0
aa(lp3218
I33352
aI1
aa(lp3219
I33352
aI2
aa(lp3220
I33352
aI3
aa(lp3221
I33352
aI4
aa(lp3222
I33398
aI0
aa(lp3223
I33398
aI1
aa(lp3224
I33398
aI2
aa(lp3225
I33398
aI4
aa(lp3226
I33450
aI0
aa(lp3227
I33450
aI1
aa(lp3228
I33450
aI2
aa(lp3229
I33450
aI3
aa(lp3230
I33450
aI4
aa(lp3231
I33473
aI0
aa(lp3232
I33473
aI1
aa(lp3233
I33473
aI3
aa(lp3234
I33473
aI4
aa(lp3235
I33531
aI1
aa(lp3236
I33568
aI0
aa(lp3237
I33568
aI1
aa(lp3238
I33568
aI2
aa(lp3239
I33568
aI4
aa(lp3240
I33649
aI0
aa(lp3241
I33649
aI1
aa(lp3242
I33649
aI3
aa(lp3243
I33837
aI0
aa(lp3244
I33837
aI3
aa(lp3245
I33841
aI0
aa(lp3246
I33841
aI1
aa(lp3247
I33841
aI2
aa(lp3248
I33841
aI3
aa(lp3249
I33841
aI4
aa(lp3250
I33938
aI0
aa(lp3251
I33938
aI3
aa(lp3252
I33942
aI0
aa(lp3253
I33942
aI1
aa(lp3254
I33942
aI2
aa(lp3255
I33942
aI4
aa(lp3256
I33961
aI0
aa(lp3257
I33961
aI1
aa(lp3258
I33961
aI2
aa(lp3259
I33961
aI3
aa(lp3260
I33961
aI4
aa(lp3261
I34001
aI0
aa(lp3262
I34001
aI1
aa(lp3263
I34001
aI2
aa(lp3264
I34001
aI3
aa(lp3265
I34038
aI1
aa(lp3266
I34038
aI2
aa(lp3267
I34038
aI3
aa(lp3268
I34038
aI4
aa(lp3269
I34109
aI0
aa(lp3270
I34109
aI1
aa(lp3271
I34109
aI2
aa(lp3272
I34109
aI3
aa(lp3273
I34109
aI4
aa(lp3274
I34197
aI0
aa(lp3275
I34197
aI1
aa(lp3276
I34197
aI2
aa(lp3277
I34197
aI3
aa(lp3278
I34197
aI4
aa(lp3279
I34242
aI0
aa(lp3280
I34277
aI0
aa(lp3281
I34277
aI2
aa(lp3282
I34277
aI3
aa(lp3283
I34277
aI4
aa(lp3284
I34293
aI3
aa(lp3285
I34305
aI0
aa(lp3286
I34305
aI2
aa(lp3287
I34338
aI0
aa(lp3288
I34338
aI3
aa(lp3289
I34338
aI4
aa(lp3290
I34380
aI0
aa(lp3291
I34380
aI1
aa(lp3292
I34380
aI3
aa(lp3293
I34380
aI4
aa(lp3294
I34487
aI4
aa(lp3295
I34509
aI0
aa(lp3296
I34509
aI1
aa(lp3297
I34509
aI2
aa(lp3298
I34509
aI3
aa(lp3299
I34509
aI4
aa(lp3300
I34560
aI1
aa(lp3301
I34560
aI2
aa(lp3302
I34560
aI3
aa(lp3303
I34560
aI4
aa(lp3304
I34613
aI1
aa(lp3305
I34613
aI2
aa(lp3306
I34741
aI1
aa(lp3307
I34741
aI2
aa(lp3308
I34741
aI3
aa(lp3309
I34741
aI4
aa(lp3310
I34764
aI0
aa(lp3311
I34764
aI1
aa(lp3312
I34764
aI2
aa(lp3313
I34764
aI3
aa(lp3314
I34764
aI4
aa(lp3315
I34777
aI2
aa(lp3316
I34777
aI3
aa(lp3317
I34802
aI0
aa(lp3318
I34802
aI1
aa(lp3319
I34802
aI2
aa(lp3320
I34802
aI3
aa(lp3321
I34802
aI4
aa(lp3322
I34813
aI3
aa(lp3323
I34887
aI1
aa(lp3324
I34887
aI2
aa(lp3325
I34915
aI0
aa(lp3326
I34915
aI1
aa(lp3327
I34915
aI2
aa(lp3328
I34915
aI3
aa(lp3329
I34915
aI4
aa(lp3330
I34941
aI0
aa(lp3331
I34941
aI2
aa(lp3332
I34941
aI3
aa(lp3333
I34941
aI4
aa(lp3334
I34952
aI1
aa(lp3335
I34952
aI2
aa(lp3336
I34952
aI3
aa(lp3337
I34980
aI0
aa(lp3338
I34980
aI1
aa(lp3339
I34980
aI4
aa(lp3340
I35066
aI1
aa(lp3341
I35093
aI1
aa(lp3342
I35099
aI0
aa(lp3343
I35099
aI1
aa(lp3344
I35099
aI3
aa(lp3345
I35099
aI4
aa(lp3346
I35141
aI0
aa(lp3347
I35141
aI1
aa(lp3348
I35141
aI2
aa(lp3349
I35141
aI3
aa(lp3350
I35141
aI4
aa(lp3351
I35187
aI0
aa(lp3352
I35187
aI2
aa(lp3353
I35187
aI3
aa(lp3354
I35187
aI4
aa(lp3355
I35200
aI1
aa(lp3356
I35200
aI2
aa(lp3357
I35200
aI4
aa(lp3358
I35206
aI0
aa(lp3359
I35206
aI1
aa(lp3360
I35206
aI2
aa(lp3361
I35339
aI0
aa(lp3362
I35339
aI1
aa(lp3363
I35339
aI3
aa(lp3364
I35345
aI0
aa(lp3365
I35345
aI1
aa(lp3366
I35345
aI2
aa(lp3367
I35345
aI3
aa(lp3368
I35345
aI4
aa(lp3369
I35372
aI0
aa(lp3370
I35372
aI2
aa(lp3371
I35372
aI4
aa(lp3372
I35445
aI1
aa(lp3373
I35445
aI2
aa(lp3374
I35445
aI3
aa(lp3375
I35445
aI4
aa(lp3376
I35516
aI2
aa(lp3377
I35516
aI3
aa(lp3378
I35535
aI1
aa(lp3379
I35535
aI3
aa(lp3380
I35547
aI0
aa(lp3381
I35547
aI1
aa(lp3382
I35547
aI2
aa(lp3383
I35547
aI3
aa(lp3384
I35547
aI4
aa(lp3385
I35571
aI0
aa(lp3386
I35571
aI1
aa(lp3387
I35571
aI2
aa(lp3388
I35571
aI3
aa(lp3389
I35571
aI4
aa(lp3390
I35572
aI0
aa(lp3391
I35572
aI2
aa(lp3392
I35572
aI3
aa(lp3393
I35572
aI4
aa(lp3394
I35581
aI0
aa(lp3395
I35581
aI1
aa(lp3396
I35581
aI2
aa(lp3397
I35581
aI3
aa(lp3398
I35581
aI4
aa(lp3399
I35597
aI0
aa(lp3400
I35843
aI0
aa(lp3401
I35843
aI1
aa(lp3402
I35843
aI2
aa(lp3403
I35843
aI3
aa(lp3404
I35843
aI4
aa(lp3405
I35911
aI1
aa(lp3406
I35911
aI2
aa(lp3407
I35911
aI3
aa(lp3408
I35911
aI4
aa(lp3409
I36092
aI0
aa(lp3410
I36092
aI2
aa(lp3411
I36092
aI3
aa(lp3412
I36092
aI4
aa(lp3413
I36143
aI1
aa(lp3414
I36143
aI2
aa(lp3415
I36143
aI3
aa(lp3416
I36143
aI4
aa(lp3417
I36173
aI2
aa(lp3418
I36173
aI3
aa(lp3419
I36173
aI4
aa(lp3420
I36184
aI0
aa(lp3421
I36184
aI1
aa(lp3422
I36184
aI2
aa(lp3423
I36184
aI3
aa(lp3424
I36184
aI4
aa(lp3425
I36199
aI1
aa(lp3426
I36199
aI2
aa(lp3427
I36199
aI3
aa(lp3428
I36199
aI4
aa(lp3429
I36215
aI0
aa(lp3430
I36215
aI2
aa(lp3431
I36215
aI3
aa(lp3432
I36223
aI0
aa(lp3433
I36223
aI1
aa(lp3434
I36223
aI2
aa(lp3435
I36223
aI3
aa(lp3436
I36223
aI4
aa(lp3437
I36228
aI0
aa(lp3438
I36234
aI0
aa(lp3439
I36234
aI1
aa(lp3440
I36234
aI2
aa(lp3441
I36234
aI3
aa(lp3442
I36234
aI4
aa(lp3443
I36241
aI0
aa(lp3444
I36241
aI1
aa(lp3445
I36241
aI2
aa(lp3446
I36241
aI3
aa(lp3447
I36241
aI4
aa(lp3448
I36297
aI1
aa(lp3449
I36297
aI2
aa(lp3450
I36297
aI3
aa(lp3451
I36297
aI4
aa(lp3452
I36301
aI0
aa(lp3453
I36301
aI1
aa(lp3454
I36301
aI2
aa(lp3455
I36301
aI3
aa(lp3456
I36301
aI4
aa(lp3457
I36335
aI0
aa(lp3458
I36335
aI1
aa(lp3459
I36335
aI2
aa(lp3460
I36335
aI3
aa(lp3461
I36335
aI4
aa(lp3462
I36350
aI0
aa(lp3463
I36350
aI3
aa(lp3464
I36350
aI4
aa(lp3465
I36352
aI2
aa(lp3466
I36352
aI3
aa(lp3467
I36516
aI0
aa(lp3468
I36516
aI1
aa(lp3469
I36516
aI2
aa(lp3470
I36516
aI4
aa(lp3471
I36590
aI0
aa(lp3472
I36590
aI1
aa(lp3473
I36590
aI3
aa(lp3474
I36590
aI4
aa(lp3475
I36614
aI0
aa(lp3476
I36614
aI1
aa(lp3477
I36614
aI2
aa(lp3478
I36614
aI3
aa(lp3479
I36614
aI4
aa(lp3480
I36723
aI0
aa(lp3481
I36723
aI1
aa(lp3482
I36723
aI2
aa(lp3483
I36723
aI3
aa(lp3484
I36723
aI4
aa(lp3485
I36739
aI0
aa(lp3486
I36739
aI1
aa(lp3487
I36739
aI2
aa(lp3488
I36739
aI3
aa(lp3489
I36739
aI4
aa(lp3490
I36803
aI0
aa(lp3491
I36803
aI1
aa(lp3492
I36803
aI2
aa(lp3493
I36803
aI3
aa(lp3494
I36803
aI4
aa(lp3495
I36835
aI0
aa(lp3496
I36835
aI1
aa(lp3497
I36835
aI2
aa(lp3498
I36835
aI4
aa(lp3499
I36896
aI1
aa(lp3500
I36896
aI2
aa(lp3501
I36896
aI3
aa(lp3502
I36896
aI4
aa(lp3503
I36909
aI0
aa(lp3504
I36909
aI1
aa(lp3505
I36909
aI2
aa(lp3506
I36909
aI3
aa(lp3507
I36909
aI4
aa(lp3508
I36916
aI0
aa(lp3509
I36916
aI1
aa(lp3510
I36916
aI2
aa(lp3511
I36916
aI3
aa(lp3512
I36916
aI4
aa(lp3513
I36928
aI2
aa(lp3514
I36935
aI1
aa(lp3515
I36935
aI2
aa(lp3516
I36935
aI3
aa(lp3517
I36935
aI4
aa(lp3518
I37103
aI2
aa(lp3519
I37103
aI4
aa(lp3520
I37105
aI0
aa(lp3521
I37105
aI1
aa(lp3522
I37105
aI2
aa(lp3523
I37105
aI3
aa(lp3524
I37105
aI4
aa(lp3525
I37113
aI0
aa(lp3526
I37113
aI1
aa(lp3527
I37113
aI2
aa(lp3528
I37113
aI3
aa(lp3529
I37113
aI4
aa(lp3530
I37204
aI0
aa(lp3531
I37204
aI1
aa(lp3532
I37204
aI2
aa(lp3533
I37204
aI3
aa(lp3534
I37204
aI4
aa(lp3535
I37231
aI1
aa(lp3536
I37231
aI2
aa(lp3537
I37231
aI3
aa(lp3538
I37231
aI4
aa(lp3539
I37254
aI0
aa(lp3540
I37254
aI1
aa(lp3541
I37254
aI2
aa(lp3542
I37254
aI3
aa(lp3543
I37254
aI4
aa(lp3544
I37263
aI0
aa(lp3545
I37263
aI1
aa(lp3546
I37263
aI3
aa(lp3547
I37263
aI4
aa(lp3548
I37374
aI0
aa(lp3549
I37374
aI1
aa(lp3550
I37374
aI2
aa(lp3551
I37384
aI0
aa(lp3552
I37384
aI2
aa(lp3553
I37384
aI3
aa(lp3554
I37384
aI4
aa(lp3555
I37388
aI1
aa(lp3556
I37388
aI2
aa(lp3557
I37388
aI3
aa(lp3558
I37388
aI4
aa(lp3559
I37433
aI0
aa(lp3560
I37433
aI1
aa(lp3561
I37433
aI2
aa(lp3562
I37433
aI3
aa(lp3563
I37433
aI4
aa(lp3564
I37520
aI0
aa(lp3565
I37520
aI1
aa(lp3566
I37520
aI2
aa(lp3567
I37520
aI3
aa(lp3568
I37520
aI4
aa(lp3569
I37553
aI0
aa(lp3570
I37553
aI1
aa(lp3571
I37553
aI2
aa(lp3572
I37553
aI3
aa(lp3573
I37553
aI4
aa(lp3574
I37560
aI1
aa(lp3575
I37560
aI2
aa(lp3576
I37637
aI0
aa(lp3577
I37637
aI1
aa(lp3578
I37637
aI2
aa(lp3579
I37637
aI3
aa(lp3580
I37637
aI4
aa(lp3581
I37702
aI1
aa(lp3582
I37702
aI2
aa(lp3583
I37702
aI4
aa(lp3584
I37784
aI0
aa(lp3585
I37784
aI1
aa(lp3586
I37784
aI2
aa(lp3587
I37784
aI3
aa(lp3588
I37784
aI4
aa(lp3589
I37842
aI0
aa(lp3590
I37842
aI1
aa(lp3591
I37842
aI2
aa(lp3592
I37842
aI3
aa(lp3593
I37842
aI4
aa(lp3594
I37859
aI3
aa(lp3595
I37877
aI0
aa(lp3596
I37877
aI1
aa(lp3597
I37877
aI2
aa(lp3598
I37877
aI3
aa(lp3599
I37877
aI4
aa(lp3600
I37897
aI0
aa(lp3601
I37897
aI1
aa(lp3602
I37897
aI2
aa(lp3603
I37897
aI3
aa(lp3604
I37914
aI1
aa(lp3605
I37936
aI0
aa(lp3606
I37936
aI1
aa(lp3607
I37936
aI2
aa(lp3608
I37936
aI3
aa(lp3609
I37936
aI4
aa(lp3610
I37937
aI0
aa(lp3611
I37937
aI1
aa(lp3612
I37937
aI2
aa(lp3613
I37937
aI3
aa(lp3614
I37937
aI4
aa(lp3615
I37948
aI0
aa(lp3616
I37948
aI1
aa(lp3617
I37948
aI2
aa(lp3618
I37948
aI3
aa(lp3619
I37948
aI4
aa(lp3620
I37950
aI0
aa(lp3621
I37950
aI1
aa(lp3622
I37950
aI2
aa(lp3623
I37950
aI3
aa(lp3624
I37950
aI4
aa(lp3625
I37963
aI1
aa(lp3626
I37981
aI4
aa(lp3627
I37984
aI0
aa(lp3628
I37984
aI1
aa(lp3629
I37984
aI2
aa(lp3630
I37984
aI3
aa(lp3631
I37997
aI1
aa(lp3632
I37997
aI2
aa(lp3633
I37997
aI3
aa(lp3634
I37997
aI4
aa(lp3635
I37999
aI0
aa(lp3636
I37999
aI1
aa(lp3637
I37999
aI2
aa(lp3638
I37999
aI3
aa(lp3639
I37999
aI4
aa(lp3640
I38005
aI0
aa(lp3641
I38005
aI3
aa(lp3642
I38005
aI4
aa(lp3643
I38057
aI0
aa(lp3644
I38057
aI1
aa(lp3645
I38057
aI2
aa(lp3646
I38057
aI3
aa(lp3647
I38098
aI0
aa(lp3648
I38098
aI1
aa(lp3649
I38100
aI0
aa(lp3650
I38100
aI1
aa(lp3651
I38100
aI2
aa(lp3652
I38100
aI3
aa(lp3653
I38100
aI4
aa(lp3654
I38129
aI0
aa(lp3655
I38129
aI1
aa(lp3656
I38129
aI2
aa(lp3657
I38129
aI3
aa(lp3658
I38129
aI4
aa(lp3659
I38150
aI0
aa(lp3660
I38150
aI1
aa(lp3661
I38150
aI2
aa(lp3662
I38150
aI3
aa(lp3663
I38150
aI4
aa(lp3664
I38175
aI1
aa(lp3665
I38175
aI2
aa(lp3666
I38175
aI3
aa(lp3667
I38175
aI4
aa(lp3668
I38210
aI0
aa(lp3669
I38210
aI1
aa(lp3670
I38210
aI2
aa(lp3671
I38210
aI4
aa(lp3672
I38301
aI0
aa(lp3673
I38301
aI4
aa(lp3674
I38304
aI0
aa(lp3675
I38304
aI1
aa(lp3676
I38304
aI2
aa(lp3677
I38304
aI3
aa(lp3678
I38334
aI0
aa(lp3679
I38334
aI2
aa(lp3680
I38334
aI4
aa(lp3681
I38354
aI0
aa(lp3682
I38354
aI1
aa(lp3683
I38354
aI2
aa(lp3684
I38354
aI3
aa(lp3685
I38354
aI4
aa(lp3686
I38362
aI0
aa(lp3687
I38362
aI2
aa(lp3688
I38362
aI3
aa(lp3689
I38362
aI4
aa(lp3690
I38369
aI0
aa(lp3691
I38369
aI1
aa(lp3692
I38369
aI2
aa(lp3693
I38369
aI3
aa(lp3694
I38369
aI4
aa(lp3695
I38374
aI0
aa(lp3696
I38374
aI2
aa(lp3697
I38374
aI3
aa(lp3698
I38374
aI4
aa(lp3699
I38540
aI0
aa(lp3700
I38540
aI1
aa(lp3701
I38540
aI4
aa(lp3702
I38595
aI0
aa(lp3703
I38595
aI2
aa(lp3704
I38595
aI3
aa(lp3705
I38595
aI4
aa(lp3706
I38678
aI1
aa(lp3707
I38685
aI0
aa(lp3708
I38685
aI1
aa(lp3709
I38685
aI3
aa(lp3710
I38710
aI0
aa(lp3711
I38710
aI2
aa(lp3712
I38710
aI4
aa(lp3713
I38745
aI0
aa(lp3714
I38745
aI1
aa(lp3715
I38745
aI2
aa(lp3716
I38745
aI3
aa(lp3717
I38745
aI4
aa(lp3718
I38774
aI3
aa(lp3719
I38785
aI0
aa(lp3720
I38785
aI1
aa(lp3721
I38785
aI4
aa(lp3722
I38835
aI0
aa(lp3723
I38835
aI1
aa(lp3724
I38835
aI2
aa(lp3725
I38835
aI3
aa(lp3726
I38835
aI4
aa(lp3727
I38854
aI0
aa(lp3728
I38854
aI1
aa(lp3729
I38854
aI2
aa(lp3730
I38854
aI3
aa(lp3731
I38854
aI4
aa(lp3732
I38871
aI0
aa(lp3733
I38871
aI1
aa(lp3734
I38871
aI2
aa(lp3735
I38871
aI3
aa(lp3736
I38871
aI4
aa(lp3737
I38891
aI0
aa(lp3738
I38891
aI1
aa(lp3739
I38891
aI3
aa(lp3740
I38891
aI4
aa(lp3741
I38918
aI2
aa(lp3742
I38979
aI0
aa(lp3743
I38979
aI1
aa(lp3744
I38979
aI2
aa(lp3745
I38979
aI3
aa(lp3746
I38979
aI4
aa(lp3747
I39075
aI2
aa(lp3748
I39094
aI0
aa(lp3749
I39094
aI2
aa(lp3750
I39094
aI3
aa(lp3751
I39094
aI4
aa(lp3752
I39133
aI2
aa(lp3753
I39133
aI3
aa(lp3754
I39133
aI4
aa(lp3755
I39198
aI0
aa(lp3756
I39198
aI1
aa(lp3757
I39198
aI2
aa(lp3758
I39198
aI4
aa(lp3759
I39229
aI1
aa(lp3760
I39229
aI2
aa(lp3761
I39248
aI0
aa(lp3762
I39248
aI1
aa(lp3763
I39248
aI2
aa(lp3764
I39248
aI3
aa(lp3765
I39248
aI4
aa(lp3766
I39274
aI0
aa(lp3767
I39274
aI3
aa(lp3768
I39274
aI4
aa(lp3769
I39341
aI3
aa(lp3770
I39379
aI0
aa(lp3771
I39379
aI1
aa(lp3772
I39379
aI2
aa(lp3773
I39379
aI3
aa(lp3774
I39379
aI4
aa(lp3775
I39391
aI0
aa(lp3776
I39391
aI1
aa(lp3777
I39391
aI2
aa(lp3778
I39391
aI3
aa(lp3779
I39391
aI4
aa(lp3780
I39405
aI0
aa(lp3781
I39405
aI1
aa(lp3782
I39405
aI2
aa(lp3783
I39405
aI3
aa(lp3784
I39405
aI4
aa(lp3785
I39433
aI1
aa(lp3786
I39433
aI2
aa(lp3787
I39452
aI0
aa(lp3788
I39452
aI1
aa(lp3789
I39452
aI2
aa(lp3790
I39452
aI3
aa(lp3791
I39452
aI4
aa(lp3792
I39454
aI0
aa(lp3793
I39454
aI1
aa(lp3794
I39454
aI2
aa(lp3795
I39454
aI3
aa(lp3796
I39454
aI4
aa(lp3797
I39531
aI0
aa(lp3798
I39549
aI0
aa(lp3799
I39549
aI1
aa(lp3800
I39549
aI4
aa(lp3801
I39553
aI2
aa(lp3802
I39553
aI3
aa(lp3803
I39553
aI4
aa(lp3804
I39564
aI0
aa(lp3805
I39564
aI1
aa(lp3806
I39564
aI2
aa(lp3807
I39564
aI3
aa(lp3808
I39564
aI4
aa(lp3809
I39632
aI2
aa(lp3810
I39632
aI4
aa(lp3811
I39639
aI0
aa(lp3812
I39639
aI2
aa(lp3813
I39639
aI3
aa(lp3814
I39800
aI0
aa(lp3815
I39800
aI1
aa(lp3816
I39800
aI2
aa(lp3817
I39800
aI4
aa(lp3818
I39815
aI0
aa(lp3819
I39815
aI1
aa(lp3820
I39815
aI2
aa(lp3821
I39815
aI3
aa(lp3822
I39815
aI4
aa(lp3823
I39883
aI0
aa(lp3824
I39883
aI1
aa(lp3825
I39883
aI2
aa(lp3826
I39883
aI3
aa(lp3827
I39883
aI4
aa(lp3828
I39919
aI0
aa(lp3829
I39919
aI1
aa(lp3830
I39919
aI2
aa(lp3831
I39919
aI3
aa(lp3832
I39919
aI4
aa(lp3833
I39949
aI0
aa(lp3834
I39949
aI1
aa(lp3835
I39949
aI2
aa(lp3836
I39949
aI3
aa(lp3837
I39949
aI4
aa(lp3838
I39972
aI0
aa(lp3839
I39972
aI1
aa(lp3840
I39972
aI2
aa(lp3841
I39972
aI3
aa(lp3842
I39972
aI4
aa(lp3843
I40028
aI0
aa(lp3844
I40028
aI1
aa(lp3845
I40028
aI2
aa(lp3846
I40028
aI3
aa(lp3847
I40028
aI4
aa(lp3848
I40110
aI2
aa(lp3849
I40110
aI3
aa(lp3850
I40177
aI0
aa(lp3851
I40177
aI1
aa(lp3852
I40177
aI2
aa(lp3853
I40177
aI3
aa(lp3854
I40177
aI4
aa(lp3855
I40276
aI0
aa(lp3856
I40321
aI1
aa(lp3857
I40321
aI4
aa(lp3858
I40357
aI0
aa(lp3859
I40357
aI1
aa(lp3860
I40357
aI2
aa(lp3861
I40357
aI3
aa(lp3862
I40357
aI4
aa(lp3863
I40421
aI0
aa(lp3864
I40421
aI1
aa(lp3865
I40421
aI3
aa(lp3866
I40421
aI4
aa(lp3867
I40449
aI0
aa(lp3868
I40449
aI1
aa(lp3869
I40449
aI2
aa(lp3870
I40449
aI4
aa.