(lp0
(lp1
I10
aI1
aa(lp2
I60
aI0
aa(lp3
I60
aI1
aa(lp4
I60
aI2
aa(lp5
I60
aI3
aa(lp6
I60
aI4
aa(lp7
I155
aI0
aa(lp8
I178
aI0
aa(lp9
I258
aI0
aa(lp10
I258
aI1
aa(lp11
I258
aI3
aa(lp12
I392
aI4
aa(lp13
I471
aI4
aa(lp14
I611
aI1
aa(lp15
I611
aI3
aa(lp16
I611
aI4
aa(lp17
I674
aI3
aa(lp18
I674
aI4
aa(lp19
I708
aI2
aa(lp20
I708
aI4
aa(lp21
I746
aI0
aa(lp22
I746
aI1
aa(lp23
I746
aI2
aa(lp24
I746
aI3
aa(lp25
I746
aI4
aa(lp26
I763
aI0
aa(lp27
I797
aI2
aa(lp28
I979
aI0
aa(lp29
I979
aI1
aa(lp30
I979
aI2
aa(lp31
I979
aI4
aa(lp32
I1032
aI1
aa(lp33
I1032
aI2
aa(lp34
I1032
aI3
aa(lp35
I1032
aI4
aa(lp36
I1156
aI2
aa(lp37
I1156
aI3
aa(lp38
I1287
aI1
aa(lp39
I1287
aI3
aa(lp40
I1287
aI4
aa(lp41
I1476
aI0
aa(lp42
I1476
aI1
aa(lp43
I1476
aI2
aa(lp44
I1476
aI3
aa(lp45
I1476
aI4
aa(lp46
I1528
aI3
aa(lp47
I1603
aI4
aa(lp48
I1674
aI4
aa(lp49
I1698
aI3
aa(lp50
I1827
aI0
aa(lp51
I1827
aI3
aa(lp52
I1858
aI1
aa(lp53
I1858
aI2
aa(lp54
I1858
aI3
aa(lp55
I1858
aI4
aa(lp56
I1924
aI2
aa(lp57
I1924
aI3
aa(lp58
I1930
aI1
aa(lp59
I1930
aI2
aa(lp60
I2052
aI1
aa(lp61
I2052
aI3
aa(lp62
I2056
aI3
aa(lp63
I2056
aI4
aa(lp64
I2148
aI1
aa(lp65
I2267
aI1
aa(lp66
I2327
aI0
aa(lp67
I2327
aI1
aa(lp68
I2327
aI2
aa(lp69
I2327
aI3
aa(lp70
I2327
aI4
aa(lp71
I2355
aI3
aa(lp72
I2601
aI1
aa(lp73
I2607
aI4
aa(lp74
I2633
aI3
aa(lp75
I2640
aI0
aa(lp76
I2640
aI4
aa(lp77
I2686
aI0
aa(lp78
I2686
aI1
aa(lp79
I2726
aI1
aa(lp80
I2726
aI2
aa(lp81
I2726
aI3
aa(lp82
I2726
aI4
aa(lp83
I2754
aI1
aa(lp84
I2754
aI3
aa(lp85
I2955
aI0
aa(lp86
I2989
aI3
aa(lp87
I3039
aI0
aa(lp88
I3039
aI1
aa(lp89
I3039
aI2
aa(lp90
I3039
aI3
aa(lp91
I3039
aI4
aa(lp92
I3114
aI3
aa(lp93
I3239
aI0
aa(lp94
I3355
aI0
aa(lp95
I3355
aI1
aa(lp96
I3355
aI2
aa(lp97
I3355
aI4
aa(lp98
I3361
aI0
aa(lp99
I3361
aI1
aa(lp100
I3563
aI1
aa(lp101
I3588
aI2
aa(lp102
I3650
aI0
aa(lp103
I3650
aI1
aa(lp104
I3650
aI2
aa(lp105
I3650
aI3
aa(lp106
I3690
aI2
aa(lp107
I3690
aI3
aa(lp108
I4073
aI2
aa(lp109
I4197
aI4
aa(lp110
I4206
aI0
aa(lp111
I4206
aI1
aa(lp112
I4206
aI2
aa(lp113
I4206
aI3
aa(lp114
I4206
aI4
aa(lp115
I4263
aI0
aa(lp116
I4263
aI3
aa(lp117
I4263
aI4
aa(lp118
I4265
aI2
aa(lp119
I4303
aI3
aa(lp120
I4459
aI4
aa(lp121
I4517
aI1
aa(lp122
I4517
aI3
aa(lp123
I4540
aI1
aa(lp124
I4540
aI3
aa(lp125
I5050
aI0
aa(lp126
I5050
aI1
aa(lp127
I5050
aI2
aa(lp128
I5050
aI3
aa(lp129
I5050
aI4
aa(lp130
I5285
aI3
aa(lp131
I5473
aI0
aa(lp132
I5473
aI1
aa(lp133
I5473
aI2
aa(lp134
I5473
aI3
aa(lp135
I5473
aI4
aa(lp136
I5510
aI2
aa(lp137
I5551
aI2
aa(lp138
I5551
aI4
aa(lp139
I5555
aI1
aa(lp140
I5580
aI2
aa(lp141
I5619
aI0
aa(lp142
I5619
aI1
aa(lp143
I5668
aI0
aa(lp144
I5668
aI2
aa(lp145
I5668
aI3
aa(lp146
I5668
aI4
aa(lp147
I5736
aI0
aa(lp148
I5736
aI1
aa(lp149
I5907
aI0
aa(lp150
I5907
aI1
aa(lp151
I5907
aI3
aa(lp152
I5907
aI4
aa(lp153
I5909
aI0
aa(lp154
I5909
aI2
aa(lp155
I5909
aI4
aa(lp156
I6065
aI3
aa(lp157
I6142
aI0
aa(lp158
I6142
aI1
aa(lp159
I6142
aI3
aa(lp160
I6142
aI4
aa(lp161
I6170
aI0
aa(lp162
I6170
aI1
aa(lp163
I6170
aI2
aa(lp164
I6170
aI3
aa(lp165
I6170
aI4
aa(lp166
I6203
aI1
aa(lp167
I6333
aI0
aa(lp168
I6333
aI1
aa(lp169
I6333
aI2
aa(lp170
I6333
aI3
aa(lp171
I6333
aI4
aa(lp172
I6480
aI1
aa(lp173
I6525
aI0
aa(lp174
I6525
aI1
aa(lp175
I6525
aI3
aa(lp176
I6525
aI4
aa(lp177
I6604
aI1
aa(lp178
I6604
aI2
aa(lp179
I6604
aI3
aa(lp180
I6604
aI4
aa(lp181
I6648
aI0
aa(lp182
I6648
aI1
aa(lp183
I6648
aI4
aa(lp184
I6699
aI0
aa(lp185
I6699
aI1
aa(lp186
I6699
aI2
aa(lp187
I6699
aI3
aa(lp188
I6699
aI4
aa(lp189
I6760
aI1
aa(lp190
I6770
aI1
aa(lp191
I6770
aI2
aa(lp192
I6770
aI3
aa(lp193
I6770
aI4
aa(lp194
I6914
aI0
aa(lp195
I6914
aI1
aa(lp196
I6940
aI1
aa(lp197
I7024
aI4
aa(lp198
I7039
aI2
aa(lp199
I7039
aI4
aa(lp200
I7125
aI1
aa(lp201
I7125
aI2
aa(lp202
I7125
aI3
aa(lp203
I7198
aI0
aa(lp204
I7198
aI1
aa(lp205
I7198
aI2
aa(lp206
I7198
aI3
aa(lp207
I7198
aI4
aa(lp208
I7330
aI0
aa(lp209
I7330
aI1
aa(lp210
I7330
aI2
aa(lp211
I7330
aI3
aa(lp212
I7330
aI4
aa(lp213
I7363
aI0
aa(lp214
I7363
aI1
aa(lp215
I7363
aI2
aa(lp216
I7363
aI3
aa(lp217
I7363
aI4
aa(lp218
I7476
aI0
aa(lp219
I7476
aI1
aa(lp220
I7638
aI3
aa(lp221
I7650
aI0
aa(lp222
I7672
aI1
aa(lp223
I7742
aI2
aa(lp224
I7745
aI2
aa(lp225
I7969
aI4
aa(lp226
I8086
aI1
aa(lp227
I8149
aI0
aa(lp228
I8149
aI1
aa(lp229
I8149
aI2
aa(lp230
I8149
aI3
aa(lp231
I8149
aI4
aa(lp232
I8160
aI2
aa(lp233
I8160
aI4
aa(lp234
I8276
aI0
aa(lp235
I8276
aI1
aa(lp236
I8492
aI0
aa(lp237
I8492
aI2
aa(lp238
I8492
aI3
aa(lp239
I8500
aI1
aa(lp240
I8512
aI2
aa(lp241
I8512
aI3
aa(lp242
I8930
aI0
aa(lp243
I8930
aI1
aa(lp244
I9062
aI1
aa(lp245
I9092
aI0
aa(lp246
I9092
aI1
aa(lp247
I9092
aI3
aa(lp248
I9113
aI3
aa(lp249
I9289
aI2
aa(lp250
I9309
aI0
aa(lp251
I9316
aI1
aa(lp252
I9335
aI2
aa(lp253
I9337
aI1
aa(lp254
I9339
aI3
aa(lp255
I9339
aI4
aa(lp256
I9343
aI1
aa(lp257
I9343
aI2
aa(lp258
I9343
aI3
aa(lp259
I9343
aI4
aa(lp260
I9556
aI3
aa(lp261
I9660
aI0
aa(lp262
I9660
aI1
aa(lp263
I9660
aI2
aa(lp264
I9660
aI3
aa(lp265
I9660
aI4
aa(lp266
I9695
aI1
aa(lp267
I9695
aI2
aa(lp268
I9735
aI0
aa(lp269
I9735
aI1
aa(lp270
I9735
aI2
aa(lp271
I9735
aI3
aa(lp272
I9760
aI0
aa(lp273
I9760
aI1
aa(lp274
I9760
aI2
aa(lp275
I9760
aI3
aa(lp276
I9760
aI4
aa(lp277
I9856
aI0
aa(lp278
I9856
aI1
aa(lp279
I9856
aI3
aa(lp280
I9875
aI1
aa(lp281
I9906
aI0
aa(lp282
I9943
aI0
aa(lp283
I9943
aI1
aa(lp284
I9943
aI3
aa(lp285
I9943
aI4
aa(lp286
I9952
aI1
aa(lp287
I9952
aI2
aa(lp288
I9952
aI3
aa(lp289
I9952
aI4
aa(lp290
I9979
aI3
aa(lp291
I9992
aI0
aa(lp292
I10094
aI0
aa(lp293
I10094
aI1
aa(lp294
I10094
aI2
aa(lp295
I10094
aI3
aa(lp296
I10094
aI4
aa(lp297
I10165
aI3
aa(lp298
I10239
aI0
aa(lp299
I10239
aI1
aa(lp300
I10339
aI0
aa(lp301
I10339
aI1
aa(lp302
I10339
aI3
aa(lp303
I10462
aI0
aa(lp304
I10462
aI3
aa(lp305
I10467
aI1
aa(lp306
I10467
aI3
aa(lp307
I10467
aI4
aa(lp308
I10473
aI2
aa(lp309
I10532
aI1
aa(lp310
I10532
aI4
aa(lp311
I10601
aI0
aa(lp312
I10601
aI1
aa(lp313
I10601
aI2
aa(lp314
I10601
aI3
aa(lp315
I10601
aI4
aa(lp316
I10640
aI0
aa(lp317
I10640
aI1
aa(lp318
I10640
aI3
aa(lp319
I10640
aI4
aa(lp320
I10652
aI0
aa(lp321
I10652
aI1
aa(lp322
I10652
aI2
aa(lp323
I10652
aI3
aa(lp324
I10652
aI4
aa(lp325
I10687
aI0
aa(lp326
I10803
aI0
aa(lp327
I10803
aI1
aa(lp328
I10803
aI2
aa(lp329
I10803
aI3
aa(lp330
I10803
aI4
aa(lp331
I11043
aI0
aa(lp332
I11043
aI4
aa(lp333
I11316
aI0
aa(lp334
I11316
aI1
aa(lp335
I11316
aI3
aa(lp336
I11316
aI4
aa(lp337
I11480
aI1
aa(lp338
I11724
aI1
aa(lp339
I11724
aI2
aa(lp340
I11724
aI3
aa(lp341
I11744
aI4
aa(lp342
I11804
aI0
aa(lp343
I11804
aI2
aa(lp344
I11821
aI3
aa(lp345
I11912
aI0
aa(lp346
I11912
aI2
aa(lp347
I11912
aI4
aa(lp348
I11934
aI0
aa(lp349
I11934
aI2
aa(lp350
I11934
aI4
aa(lp351
I11983
aI4
aa(lp352
I11998
aI2
aa(lp353
I12124
aI2
aa(lp354
I12124
aI3
aa(lp355
I12171
aI3
aa(lp356
I12255
aI0
aa(lp357
I12255
aI2
aa(lp358
I12255
aI3
aa(lp359
I12255
aI4
aa(lp360
I12303
aI1
aa(lp361
I12303
aI3
aa(lp362
I12303
aI4
aa(lp363
I12434
aI0
aa(lp364
I12465
aI1
aa(lp365
I12465
aI2
aa(lp366
I12521
aI0
aa(lp367
I12567
aI1
aa(lp368
I12859
aI0
aa(lp369
I12859
aI1
aa(lp370
I12859
aI2
aa(lp371
I12859
aI3
aa(lp372
I12859
aI4
aa(lp373
I12870
aI3
aa(lp374
I12903
aI0
aa(lp375
I12903
aI2
aa(lp376
I12903
aI3
aa(lp377
I12903
aI4
aa(lp378
I12968
aI0
aa(lp379
I12968
aI2
aa(lp380
I12968
aI3
aa(lp381
I12968
aI4
aa(lp382
I13058
aI0
aa(lp383
I13058
aI2
aa(lp384
I13114
aI0
aa(lp385
I13114
aI1
aa(lp386
I13169
aI0
aa(lp387
I13230
aI0
aa(lp388
I13349
aI2
aa(lp389
I13349
aI3
aa(lp390
I13445
aI4
aa(lp391
I13509
aI1
aa(lp392
I13632
aI0
aa(lp393
I13667
aI3
aa(lp394
I13667
aI4
aa(lp395
I13676
aI1
aa(lp396
I13677
aI1
aa(lp397
I13677
aI2
aa(lp398
I13677
aI3
aa(lp399
I13677
aI4
aa(lp400
I13684
aI2
aa(lp401
I13684
aI3
aa(lp402
I13684
aI4
aa(lp403
I13689
aI0
aa(lp404
I13689
aI2
aa(lp405
I13689
aI3
aa(lp406
I13689
aI4
aa(lp407
I13739
aI0
aa(lp408
I13739
aI1
aa(lp409
I13739
aI2
aa(lp410
I13739
aI3
aa(lp411
I13739
aI4
aa(lp412
I13809
aI0
aa(lp413
I13809
aI2
aa(lp414
I13827
aI0
aa(lp415
I13827
aI1
aa(lp416
I13827
aI2
aa(lp417
I13827
aI3
aa(lp418
I13827
aI4
aa(lp419
I13828
aI0
aa(lp420
I13867
aI0
aa(lp421
I13867
aI1
aa(lp422
I13867
aI2
aa(lp423
I13867
aI3
aa(lp424
I13867
aI4
aa(lp425
I13999
aI1
aa(lp426
I13999
aI2
aa(lp427
I14129
aI1
aa(lp428
I14129
aI4
aa(lp429
I14363
aI0
aa(lp430
I14363
aI1
aa(lp431
I14363
aI3
aa(lp432
I14363
aI4
aa(lp433
I14384
aI2
aa(lp434
I14475
aI0
aa(lp435
I14529
aI0
aa(lp436
I14529
aI1
aa(lp437
I14529
aI3
aa(lp438
I14668
aI3
aa(lp439
I14777
aI0
aa(lp440
I14793
aI0
aa(lp441
I14793
aI1
aa(lp442
I14793
aI3
aa(lp443
I14793
aI4
aa(lp444
I14889
aI0
aa(lp445
I14889
aI1
aa(lp446
I14889
aI2
aa(lp447
I14906
aI0
aa(lp448
I14922
aI0
aa(lp449
I14922
aI1
aa(lp450
I14922
aI2
aa(lp451
I14922
aI3
aa(lp452
I14922
aI4
aa(lp453
I14943
aI4
aa(lp454
I14962
aI2
aa(lp455
I14962
aI3
aa(lp456
I15029
aI1
aa(lp457
I15083
aI0
aa(lp458
I15083
aI4
aa(lp459
I15090
aI0
aa(lp460
I15090
aI1
aa(lp461
I15090
aI2
aa(lp462
I15090
aI4
aa(lp463
I15127
aI0
aa(lp464
I15127
aI2
aa(lp465
I15136
aI4
aa(lp466
I15157
aI0
aa(lp467
I15157
aI1
aa(lp468
I15157
aI2
aa(lp469
I15157
aI3
aa(lp470
I15157
aI4
aa(lp471
I15266
aI3
aa(lp472
I15266
aI4
aa(lp473
I15481
aI0
aa(lp474
I15481
aI1
aa(lp475
I15481
aI2
aa(lp476
I15499
aI3
aa(lp477
I15548
aI0
aa(lp478
I15563
aI0
aa(lp479
I15563
aI2
aa(lp480
I15563
aI4
aa(lp481
I15690
aI0
aa(lp482
I15690
aI1
aa(lp483
I15690
aI2
aa(lp484
I15690
aI3
aa(lp485
I15690
aI4
aa(lp486
I16023
aI1
aa(lp487
I16023
aI2
aa(lp488
I16023
aI3
aa(lp489
I16023
aI4
aa(lp490
I16126
aI0
aa(lp491
I16126
aI1
aa(lp492
I16126
aI3
aa(lp493
I16126
aI4
aa(lp494
I16175
aI3
aa(lp495
I16264
aI4
aa(lp496
I16320
aI1
aa(lp497
I16320
aI2
aa(lp498
I16320
aI3
aa(lp499
I16434
aI3
aa(lp500
I16478
aI4
aa(lp501
I16511
aI0
aa(lp502
I16511
aI1
aa(lp503
I16511
aI4
aa(lp504
I16581
aI0
aa(lp505
I16581
aI1
aa(lp506
I16581
aI2
aa(lp507
I16581
aI4
aa(lp508
I16854
aI4
aa(lp509
I16900
aI3
aa(lp510
I17003
aI2
aa(lp511
I17151
aI0
aa(lp512
I17316
aI0
aa(lp513
I17316
aI2
aa(lp514
I17345
aI2
aa(lp515
I17346
aI3
aa(lp516
I17408
aI2
aa(lp517
I17456
aI1
aa(lp518
I17602
aI0
aa(lp519
I17602
aI1
aa(lp520
I17602
aI2
aa(lp521
I17602
aI3
aa(lp522
I17602
aI4
aa(lp523
I17791
aI0
aa(lp524
I17791
aI1
aa(lp525
I17791
aI4
aa(lp526
I18162
aI0
aa(lp527
I18162
aI1
aa(lp528
I18162
aI2
aa(lp529
I18162
aI3
aa(lp530
I18162
aI4
aa(lp531
I18294
aI0
aa(lp532
I18294
aI1
aa(lp533
I18294
aI2
aa(lp534
I18294
aI3
aa(lp535
I18294
aI4
aa(lp536
I18389
aI3
aa(lp537
I18776
aI3
aa(lp538
I18839
aI1
aa(lp539
I18839
aI4
aa(lp540
I18871
aI1
aa(lp541
I19140
aI0
aa(lp542
I19140
aI1
aa(lp543
I19140
aI2
aa(lp544
I19204
aI1
aa(lp545
I19204
aI2
aa(lp546
I19289
aI0
aa(lp547
I19398
aI1
aa(lp548
I19398
aI4
aa(lp549
I19417
aI0
aa(lp550
I19417
aI3
aa(lp551
I19557
aI2
aa(lp552
I19622
aI2
aa(lp553
I19700
aI0
aa(lp554
I19700
aI2
aa(lp555
I19700
aI4
aa(lp556
I19740
aI0
aa(lp557
I19740
aI1
aa(lp558
I19740
aI2
aa(lp559
I19740
aI3
aa(lp560
I19740
aI4
aa(lp561
I19787
aI3
aa(lp562
I19859
aI0
aa(lp563
I19859
aI2
aa(lp564
I20225
aI1
aa(lp565
I20225
aI2
aa(lp566
I20225
aI3
aa(lp567
I20225
aI4
aa(lp568
I20238
aI0
aa(lp569
I20238
aI2
aa(lp570
I20382
aI0
aa(lp571
I20382
aI1
aa(lp572
I20382
aI2
aa(lp573
I20382
aI4
aa(lp574
I20408
aI3
aa(lp575
I20510
aI2
aa(lp576
I20610
aI3
aa(lp577
I20818
aI1
aa(lp578
I20818
aI2
aa(lp579
I20818
aI3
aa(lp580
I20842
aI1
aa(lp581
I20930
aI1
aa(lp582
I20953
aI0
aa(lp583
I20953
aI1
aa(lp584
I20953
aI2
aa(lp585
I20953
aI3
aa(lp586
I20953
aI4
aa(lp587
I21085
aI0
aa(lp588
I21141
aI3
aa(lp589
I21245
aI4
aa(lp590
I21714
aI0
aa(lp591
I21714
aI1
aa(lp592
I21714
aI2
aa(lp593
I21714
aI3
aa(lp594
I21714
aI4
aa(lp595
I21833
aI0
aa(lp596
I21833
aI2
aa(lp597
I21880
aI0
aa(lp598
I21880
aI1
aa(lp599
I21880
aI2
aa(lp600
I21880
aI3
aa(lp601
I21880
aI4
aa(lp602
I21951
aI2
aa(lp603
I21962
aI0
aa(lp604
I21962
aI2
aa(lp605
I21962
aI3
aa(lp606
I21962
aI4
aa(lp607
I22097
aI3
aa(lp608
I22122
aI1
aa(lp609
I22122
aI2
aa(lp610
I22219
aI3
aa(lp611
I22226
aI3
aa(lp612
I22226
aI4
aa(lp613
I22296
aI1
aa(lp614
I22296
aI3
aa(lp615
I22479
aI0
aa(lp616
I22530
aI1
aa(lp617
I22530
aI2
aa(lp618
I22530
aI4
aa(lp619
I22663
aI0
aa(lp620
I22663
aI2
aa(lp621
I22663
aI4
aa(lp622
I22795
aI2
aa(lp623
I22841
aI0
aa(lp624
I22841
aI2
aa(lp625
I22841
aI3
aa(lp626
I23137
aI1
aa(lp627
I23137
aI2
aa(lp628
I23262
aI4
aa(lp629
I23271
aI0
aa(lp630
I23271
aI1
aa(lp631
I23353
aI0
aa(lp632
I23353
aI2
aa(lp633
I23353
aI3
aa(lp634
I23353
aI4
aa(lp635
I23360
aI0
aa(lp636
I23360
aI2
aa(lp637
I23422
aI3
aa(lp638
I23491
aI0
aa(lp639
I23491
aI1
aa(lp640
I23491
aI4
aa(lp641
I23541
aI1
aa(lp642
I23541
aI2
aa(lp643
I23609
aI1
aa(lp644
I23609
aI2
aa(lp645
I23659
aI1
aa(lp646
I23683
aI1
aa(lp647
I23683
aI2
aa(lp648
I23683
aI4
aa(lp649
I23737
aI0
aa(lp650
I23737
aI2
aa(lp651
I23737
aI3
aa(lp652
I23737
aI4
aa(lp653
I23865
aI0
aa(lp654
I23865
aI1
aa(lp655
I23865
aI2
aa(lp656
I23865
aI4
aa(lp657
I23940
aI2
aa(lp658
I23940
aI4
aa(lp659
I24099
aI2
aa(lp660
I24116
aI1
aa(lp661
I24133
aI0
aa(lp662
I24133
aI1
aa(lp663
I24133
aI2
aa(lp664
I24133
aI3
aa(lp665
I24222
aI0
aa(lp666
I24314
aI0
aa(lp667
I24314
aI1
aa(lp668
I24314
aI2
aa(lp669
I24314
aI3
aa(lp670
I24314
aI4
aa(lp671
I24393
aI4
aa(lp672
I24395
aI2
aa(lp673
I24400
aI1
aa(lp674
I24419
aI0
aa(lp675
I24585
aI1
aa(lp676
I24653
aI0
aa(lp677
I24715
aI1
aa(lp678
I24761
aI0
aa(lp679
I24761
aI1
aa(lp680
I24761
aI2
aa(lp681
I24761
aI4
aa(lp682
I24830
aI0
aa(lp683
I24830
aI4
aa(lp684
I24906
aI2
aa(lp685
I24906
aI4
aa(lp686
I24948
aI2
aa(lp687
I24964
aI0
aa(lp688
I25005
aI0
aa(lp689
I25005
aI1
aa(lp690
I25005
aI2
aa(lp691
I25031
aI3
aa(lp692
I25336
aI0
aa(lp693
I25336
aI1
aa(lp694
I25336
aI2
aa(lp695
I25349
aI3
aa(lp696
I25365
aI4
aa(lp697
I25445
aI1
aa(lp698
I25543
aI0
aa(lp699
I25543
aI2
aa(lp700
I25543
aI3
aa(lp701
I25543
aI4
aa(lp702
I25736
aI4
aa(lp703
I25791
aI0
aa(lp704
I25791
aI1
aa(lp705
I25791
aI2
aa(lp706
I25791
aI3
aa(lp707
I25791
aI4
aa(lp708
I25819
aI3
aa(lp709
I25827
aI2
aa(lp710
I25827
aI4
aa(lp711
I25886
aI4
aa(lp712
I25890
aI3
aa(lp713
I25953
aI0
aa(lp714
I25953
aI1
aa(lp715
I25953
aI3
aa(lp716
I25988
aI0
aa(lp717
I25988
aI1
aa(lp718
I25988
aI3
aa(lp719
I25988
aI4
aa(lp720
I26042
aI1
aa(lp721
I26042
aI4
aa(lp722
I26121
aI0
aa(lp723
I26186
aI0
aa(lp724
I26186
aI1
aa(lp725
I26186
aI2
aa(lp726
I26186
aI3
aa(lp727
I26186
aI4
aa(lp728
I26291
aI0
aa(lp729
I26451
aI3
aa(lp730
I26659
aI4
aa(lp731
I26704
aI1
aa(lp732
I26704
aI2
aa(lp733
I26704
aI3
aa(lp734
I26921
aI0
aa(lp735
I26921
aI1
aa(lp736
I26921
aI2
aa(lp737
I26921
aI4
aa(lp738
I26928
aI4
aa(lp739
I27051
aI4
aa(lp740
I27134
aI2
aa(lp741
I27187
aI4
aa(lp742
I27197
aI0
aa(lp743
I27197
aI2
aa(lp744
I27197
aI3
aa(lp745
I27197
aI4
aa(lp746
I27228
aI0
aa(lp747
I27289
aI2
aa(lp748
I27289
aI4
aa(lp749
I27460
aI0
aa(lp750
I27460
aI4
aa(lp751
I27479
aI1
aa(lp752
I27479
aI2
aa(lp753
I27479
aI4
aa(lp754
I27513
aI0
aa(lp755
I27513
aI4
aa(lp756
I27666
aI0
aa(lp757
I27666
aI4
aa(lp758
I27733
aI0
aa(lp759
I27733
aI2
aa(lp760
I27733
aI3
aa(lp761
I27882
aI3
aa(lp762
I27885
aI0
aa(lp763
I27885
aI1
aa(lp764
I27885
aI2
aa(lp765
I27885
aI4
aa(lp766
I27894
aI0
aa(lp767
I27894
aI4
aa(lp768
I27982
aI1
aa(lp769
I28089
aI0
aa(lp770
I28089
aI1
aa(lp771
I28089
aI2
aa(lp772
I28089
aI3
aa(lp773
I28089
aI4
aa(lp774
I28160
aI0
aa(lp775
I28160
aI1
aa(lp776
I28160
aI2
aa(lp777
I28216
aI2
aa(lp778
I28296
aI0
aa(lp779
I28296
aI2
aa(lp780
I28296
aI3
aa(lp781
I28296
aI4
aa(lp782
I28327
aI0
aa(lp783
I28327
aI2
aa(lp784
I28327
aI3
aa(lp785
I28327
aI4
aa(lp786
I28381
aI1
aa(lp787
I28381
aI3
aa(lp788
I28381
aI4
aa(lp789
I28401
aI4
aa(lp790
I28450
aI3
aa(lp791
I28499
aI2
aa(lp792
I28516
aI3
aa(lp793
I28561
aI0
aa(lp794
I28561
aI1
aa(lp795
I28561
aI2
aa(lp796
I28561
aI3
aa(lp797
I28561
aI4
aa(lp798
I28562
aI1
aa(lp799
I28562
aI3
aa(lp800
I28562
aI4
aa(lp801
I28582
aI1
aa(lp802
I28644
aI0
aa(lp803
I28651
aI1
aa(lp804
I28660
aI4
aa(lp805
I28738
aI2
aa(lp806
I28772
aI1
aa(lp807
I29023
aI2
aa(lp808
I29131
aI1
aa(lp809
I29203
aI0
aa(lp810
I29203
aI1
aa(lp811
I29203
aI3
aa(lp812
I29203
aI4
aa(lp813
I29275
aI1
aa(lp814
I29275
aI3
aa(lp815
I29275
aI4
aa(lp816
I29316
aI0
aa(lp817
I29316
aI1
aa(lp818
I29316
aI4
aa(lp819
I29331
aI0
aa(lp820
I29331
aI1
aa(lp821
I29331
aI2
aa(lp822
I29331
aI3
aa(lp823
I29331
aI4
aa(lp824
I29404
aI4
aa(lp825
I29409
aI0
aa(lp826
I29409
aI2
aa(lp827
I29409
aI3
aa(lp828
I29409
aI4
aa(lp829
I29427
aI2
aa(lp830
I29432
aI0
aa(lp831
I29432
aI2
aa(lp832
I29432
aI4
aa(lp833
I29459
aI1
aa(lp834
I29459
aI2
aa(lp835
I29511
aI0
aa(lp836
I29511
aI1
aa(lp837
I29511
aI2
aa(lp838
I29511
aI3
aa(lp839
I29511
aI4
aa(lp840
I29696
aI0
aa(lp841
I29696
aI1
aa(lp842
I29696
aI3
aa(lp843
I29696
aI4
aa(lp844
I29704
aI1
aa(lp845
I29740
aI4
aa(lp846
I29801
aI0
aa(lp847
I29801
aI1
aa(lp848
I29880
aI3
aa(lp849
I29886
aI1
aa(lp850
I29886
aI3
aa(lp851
I29906
aI0
aa(lp852
I29906
aI1
aa(lp853
I29906
aI2
aa(lp854
I29906
aI3
aa(lp855
I29906
aI4
aa(lp856
I29998
aI4
aa(lp857
I30090
aI0
aa(lp858
I30090
aI1
aa(lp859
I30090
aI2
aa(lp860
I30090
aI3
aa(lp861
I30119
aI0
aa(lp862
I30228
aI4
aa(lp863
I30249
aI0
aa(lp864
I30249
aI1
aa(lp865
I30249
aI2
aa(lp866
I30249
aI4
aa(lp867
I30448
aI2
aa(lp868
I30577
aI0
aa(lp869
I30628
aI0
aa(lp870
I30628
aI1
aa(lp871
I30628
aI2
aa(lp872
I30628
aI3
aa(lp873
I30628
aI4
aa(lp874
I30646
aI1
aa(lp875
I30646
aI4
aa(lp876
I30689
aI0
aa(lp877
I30689
aI1
aa(lp878
I30689
aI2
aa(lp879
I30689
aI3
aa(lp880
I30689
aI4
aa(lp881
I30771
aI0
aa(lp882
I30838
aI1
aa(lp883
I30838
aI2
aa(lp884
I30838
aI3
aa(lp885
I30838
aI4
aa(lp886
I31034
aI2
aa(lp887
I31034
aI4
aa(lp888
I31046
aI1
aa(lp889
I31052
aI3
aa(lp890
I31065
aI3
aa(lp891
I31108
aI3
aa(lp892
I31215
aI3
aa(lp893
I31239
aI0
aa(lp894
I31239
aI1
aa(lp895
I31239
aI2
aa(lp896
I31239
aI3
aa(lp897
I31240
aI0
aa(lp898
I31240
aI2
aa(lp899
I31240
aI3
aa(lp900
I31240
aI4
aa(lp901
I31259
aI0
aa(lp902
I31259
aI1
aa(lp903
I31259
aI2
aa(lp904
I31259
aI3
aa(lp905
I31259
aI4
aa(lp906
I31272
aI0
aa(lp907
I31272
aI1
aa(lp908
I31272
aI3
aa(lp909
I31272
aI4
aa(lp910
I31279
aI0
aa(lp911
I31279
aI1
aa(lp912
I31279
aI2
aa(lp913
I31279
aI3
aa(lp914
I31279
aI4
aa(lp915
I31298
aI0
aa(lp916
I31298
aI1
aa(lp917
I31368
aI0
aa(lp918
I31368
aI1
aa(lp919
I31368
aI4
aa(lp920
I31595
aI0
aa(lp921
I31595
aI1
aa(lp922
I31595
aI4
aa(lp923
I31602
aI2
aa(lp924
I31602
aI3
aa(lp925
I31635
aI0
aa(lp926
I31635
aI1
aa(lp927
I31635
aI2
aa(lp928
I31635
aI4
aa(lp929
I31721
aI1
aa(lp930
I31721
aI2
aa(lp931
I31721
aI3
aa(lp932
I31721
aI4
aa(lp933
I31749
aI0
aa(lp934
I31749
aI1
aa(lp935
I31749
aI3
aa(lp936
I31749
aI4
aa(lp937
I31825
aI0
aa(lp938
I31825
aI1
aa(lp939
I31825
aI2
aa(lp940
I31825
aI3
aa(lp941
I31825
aI4
aa(lp942
I31896
aI4
aa(lp943
I31959
aI0
aa(lp944
I31959
aI3
aa(lp945
I31959
aI4
aa(lp946
I32027
aI0
aa(lp947
I32027
aI1
aa(lp948
I32027
aI2
aa(lp949
I32027
aI3
aa(lp950
I32027
aI4
aa(lp951
I32054
aI3
aa(lp952
I32103
aI1
aa(lp953
I32103
aI2
aa(lp954
I32103
aI3
aa(lp955
I32103
aI4
aa(lp956
I32281
aI0
aa(lp957
I32338
aI0
aa(lp958
I32338
aI1
aa(lp959
I32338
aI2
aa(lp960
I32338
aI3
aa(lp961
I32338
aI4
aa(lp962
I32369
aI2
aa(lp963
I32369
aI4
aa(lp964
I32412
aI0
aa(lp965
I32412
aI1
aa(lp966
I32412
aI2
aa(lp967
I32412
aI3
aa(lp968
I32412
aI4
aa(lp969
I32479
aI0
aa(lp970
I32479
aI3
aa(lp971
I32573
aI1
aa(lp972
I32573
aI3
aa(lp973
I32615
aI3
aa(lp974
I32707
aI0
aa(lp975
I32707
aI2
aa(lp976
I32707
aI3
aa(lp977
I32707
aI4
aa(lp978
I32961
aI0
aa(lp979
I32961
aI1
aa(lp980
I32961
aI2
aa(lp981
I32961
aI4
aa(lp982
I32967
aI0
aa(lp983
I32967
aI2
aa(lp984
I32967
aI4
aa(lp985
I32971
aI0
aa(lp986
I32971
aI1
aa(lp987
I32971
aI2
aa(lp988
I32971
aI3
aa(lp989
I32971
aI4
aa(lp990
I33009
aI0
aa(lp991
I33009
aI2
aa(lp992
I33009
aI3
aa(lp993
I33009
aI4
aa(lp994
I33038
aI2
aa(lp995
I33038
aI3
aa(lp996
I33080
aI0
aa(lp997
I33080
aI1
aa(lp998
I33080
aI3
aa(lp999
I33080
aI4
aa(lp1000
I33082
aI4
aa(lp1001
I33266
aI0
aa(lp1002
I33266
aI2
aa(lp1003
I33266
aI4
aa(lp1004
I33373
aI3
aa(lp1005
I33374
aI4
aa(lp1006
I33377
aI3
aa(lp1007
I33491
aI0
aa(lp1008
I33491
aI1
aa(lp1009
I33491
aI2
aa(lp1010
I33491
aI3
aa(lp1011
I33491
aI4
aa(lp1012
I33589
aI4
aa(lp1013
I33676
aI1
aa(lp1014
I33761
aI0
aa(lp1015
I33761
aI1
aa(lp1016
I33761
aI4
aa(lp1017
I33871
aI1
aa(lp1018
I33871
aI2
aa(lp1019
I33871
aI3
aa(lp1020
I33871
aI4
aa(lp1021
I33964
aI3
aa(lp1022
I33998
aI3
aa(lp1023
I34158
aI0
aa(lp1024
I34158
aI3
aa(lp1025
I34158
aI4
aa(lp1026
I34416
aI4
aa(lp1027
I34419
aI1
aa(lp1028
I34419
aI3
aa(lp1029
I34419
aI4
aa(lp1030
I34488
aI0
aa(lp1031
I34488
aI2
aa(lp1032
I34488
aI3
aa(lp1033
I34488
aI4
aa(lp1034
I34771
aI1
aa(lp1035
I34876
aI2
aa(lp1036
I34924
aI0
aa(lp1037
I34924
aI1
aa(lp1038
I34924
aI4
aa(lp1039
I35007
aI0
aa(lp1040
I35007
aI1
aa(lp1041
I35007
aI2
aa(lp1042
I35007
aI3
aa(lp1043
I35007
aI4
aa(lp1044
I35026
aI1
aa(lp1045
I35026
aI4
aa(lp1046
I35068
aI4
aa(lp1047
I35118
aI0
aa(lp1048
I35118
aI4
aa(lp1049
I35247
aI0
aa(lp1050
I35247
aI3
aa(lp1051
I35354
aI1
aa(lp1052
I35354
aI2
aa(lp1053
I35501
aI0
aa(lp1054
I35501
aI2
aa(lp1055
I35501
aI3
aa(lp1056
I35501
aI4
aa(lp1057
I35617
aI1
aa(lp1058
I35668
aI0
aa(lp1059
I35668
aI1
aa(lp1060
I35668
aI2
aa(lp1061
I35668
aI3
aa(lp1062
I35668
aI4
aa(lp1063
I35820
aI3
aa(lp1064
I36240
aI1
aa(lp1065
I36269
aI0
aa(lp1066
I36269
aI1
aa(lp1067
I36269
aI2
aa(lp1068
I36269
aI4
aa(lp1069
I36274
aI0
aa(lp1070
I36444
aI0
aa(lp1071
I36444
aI1
aa(lp1072
I36444
aI2
aa(lp1073
I36444
aI4
aa(lp1074
I36484
aI0
aa(lp1075
I36484
aI2
aa(lp1076
I36488
aI0
aa(lp1077
I36488
aI1
aa(lp1078
I36488
aI2
aa(lp1079
I36488
aI3
aa(lp1080
I36488
aI4
aa(lp1081
I36515
aI0
aa(lp1082
I36515
aI2
aa(lp1083
I36650
aI0
aa(lp1084
I36650
aI1
aa(lp1085
I36650
aI2
aa(lp1086
I36650
aI4
aa(lp1087
I36651
aI2
aa(lp1088
I36674
aI0
aa(lp1089
I36674
aI2
aa(lp1090
I36674
aI3
aa(lp1091
I36744
aI0
aa(lp1092
I36744
aI2
aa(lp1093
I36744
aI3
aa(lp1094
I36925
aI0
aa(lp1095
I37019
aI1
aa(lp1096
I37019
aI4
aa(lp1097
I37099
aI0
aa(lp1098
I37099
aI4
aa(lp1099
I37247
aI0
aa(lp1100
I37247
aI2
aa(lp1101
I37247
aI4
aa(lp1102
I37293
aI3
aa(lp1103
I37328
aI1
aa(lp1104
I37328
aI2
aa(lp1105
I37328
aI3
aa(lp1106
I37359
aI2
aa(lp1107
I37547
aI0
aa(lp1108
I37547
aI1
aa(lp1109
I37547
aI2
aa(lp1110
I37547
aI3
aa(lp1111
I37547
aI4
aa(lp1112
I37666
aI3
aa(lp1113
I37710
aI2
aa(lp1114
I37734
aI0
aa(lp1115
I37734
aI1
aa(lp1116
I37777
aI1
aa(lp1117
I37796
aI0
aa(lp1118
I38155
aI2
aa(lp1119
I38236
aI3
aa(lp1120
I38244
aI1
aa(lp1121
I38244
aI3
aa(lp1122
I38244
aI4
aa(lp1123
I38248
aI0
aa(lp1124
I38278
aI3
aa(lp1125
I38325
aI1
aa(lp1126
I38325
aI2
aa(lp1127
I38325
aI4
aa(lp1128
I38513
aI0
aa(lp1129
I38513
aI2
aa(lp1130
I38513
aI3
aa(lp1131
I38513
aI4
aa(lp1132
I38635
aI0
aa(lp1133
I38706
aI0
aa(lp1134
I38706
aI2
aa(lp1135
I38706
aI3
aa(lp1136
I38706
aI4
aa(lp1137
I38726
aI1
aa(lp1138
I38726
aI3
aa(lp1139
I38726
aI4
aa(lp1140
I38794
aI0
aa(lp1141
I38794
aI1
aa(lp1142
I38794
aI2
aa(lp1143
I38794
aI3
aa(lp1144
I38794
aI4
aa(lp1145
I38841
aI0
aa(lp1146
I38841
aI2
aa(lp1147
I38841
aI3
aa(lp1148
I38868
aI3
aa(lp1149
I38959
aI4
aa(lp1150
I39172
aI0
aa(lp1151
I39172
aI2
aa(lp1152
I39172
aI3
aa(lp1153
I39172
aI4
aa(lp1154
I39234
aI0
aa(lp1155
I39234
aI1
aa(lp1156
I39234
aI3
aa(lp1157
I39234
aI4
aa(lp1158
I39298
aI1
aa(lp1159
I39298
aI2
aa(lp1160
I39298
aI3
aa(lp1161
I39298
aI4
aa(lp1162
I39299
aI2
aa(lp1163
I39299
aI3
aa(lp1164
I39358
aI0
aa(lp1165
I39358
aI1
aa(lp1166
I39358
aI2
aa(lp1167
I39358
aI4
aa(lp1168
I39447
aI0
aa(lp1169
I39558
aI3
aa(lp1170
I39587
aI1
aa(lp1171
I39595
aI0
aa(lp1172
I39595
aI2
aa(lp1173
I39595
aI3
aa(lp1174
I39595
aI4
aa(lp1175
I39790
aI0
aa(lp1176
I39790
aI4
aa(lp1177
I40135
aI0
aa(lp1178
I40135
aI1
aa(lp1179
I40135
aI2
aa(lp1180
I40135
aI3
aa(lp1181
I40135
aI4
aa(lp1182
I40189
aI1
aa(lp1183
I40189
aI2
aa(lp1184
I40189
aI3
aa(lp1185
I40237
aI0
aa(lp1186
I40237
aI1
aa(lp1187
I40237
aI2
aa(lp1188
I40237
aI3
aa(lp1189
I40237
aI4
aa(lp1190
I40245
aI0
aa(lp1191
I40458
aI0
aa(lp1192
I40458
aI1
aa(lp1193
I40458
aI2
aa(lp1194
I40458
aI3
aa(lp1195
I40458
aI4
aa.