(lp0
(lp1
I541
aI2
aa(lp2
I1651
aI4
aa(lp3
I1796
aI4
aa(lp4
I2210
aI0
aa(lp5
I2460
aI3
aa(lp6
I2823
aI2
aa(lp7
I2873
aI2
aa(lp8
I2873
aI3
aa(lp9
I3646
aI3
aa(lp10
I3646
aI4
aa(lp11
I3841
aI1
aa(lp12
I4687
aI3
aa(lp13
I4900
aI1
aa(lp14
I4900
aI3
aa(lp15
I5247
aI2
aa(lp16
I5408
aI2
aa(lp17
I5408
aI3
aa(lp18
I5603
aI2
aa(lp19
I6236
aI2
aa(lp20
I7026
aI4
aa(lp21
I7530
aI3
aa(lp22
I8207
aI0
aa(lp23
I8207
aI1
aa(lp24
I8207
aI2
aa(lp25
I8207
aI3
aa(lp26
I8207
aI4
aa(lp27
I8925
aI2
aa(lp28
I9507
aI1
aa(lp29
I10202
aI3
aa(lp30
I10543
aI2
aa(lp31
I10768
aI1
aa(lp32
I11813
aI2
aa(lp33
I11813
aI3
aa(lp34
I11813
aI4
aa(lp35
I11963
aI1
aa(lp36
I12753
aI2
aa(lp37
I13806
aI0
aa(lp38
I13806
aI1
aa(lp39
I13806
aI2
aa(lp40
I13806
aI3
aa(lp41
I13806
aI4
aa(lp42
I14119
aI3
aa(lp43
I16702
aI0
aa(lp44
I16702
aI3
aa(lp45
I16702
aI4
aa(lp46
I17075
aI0
aa(lp47
I17075
aI2
aa(lp48
I17601
aI3
aa(lp49
I17898
aI0
aa(lp50
I18850
aI1
aa(lp51
I18850
aI4
aa(lp52
I19850
aI0
aa(lp53
I19850
aI1
aa(lp54
I19850
aI2
aa(lp55
I19850
aI3
aa(lp56
I20070
aI2
aa(lp57
I20367
aI0
aa(lp58
I20627
aI0
aa(lp59
I20627
aI2
aa(lp60
I20627
aI3
aa(lp61
I20998
aI0
aa(lp62
I20998
aI1
aa(lp63
I20998
aI2
aa(lp64
I20998
aI3
aa(lp65
I20998
aI4
aa(lp66
I25195
aI0
aa(lp67
I25195
aI3
aa(lp68
I25823
aI0
aa(lp69
I25823
aI2
aa(lp70
I25823
aI3
aa(lp71
I26717
aI2
aa(lp72
I27050
aI0
aa(lp73
I27050
aI1
aa(lp74
I27713
aI0
aa(lp75
I27713
aI2
aa(lp76
I27745
aI3
aa(lp77
I28131
aI1
aa(lp78
I28131
aI4
aa(lp79
I28184
aI2
aa(lp80
I28379
aI0
aa(lp81
I28379
aI4
aa(lp82
I28595
aI0
aa(lp83
I28595
aI2
aa(lp84
I28803
aI1
aa(lp85
I29797
aI0
aa(lp86
I30598
aI1
aa(lp87
I30598
aI4
aa(lp88
I31028
aI2
aa(lp89
I31174
aI3
aa(lp90
I33093
aI2
aa(lp91
I34399
aI0
aa(lp92
I34399
aI1
aa(lp93
I34399
aI2
aa(lp94
I35034
aI1
aa(lp95
I35034
aI2
aa(lp96
I35098
aI1
aa(lp97
I35119
aI0
aa(lp98
I36424
aI4
aa(lp99
I37087
aI3
aa(lp100
I37311
aI3
aa(lp101
I37861
aI2
aa(lp102
I38926
aI1
aa(lp103
I39616
aI0
aa(lp104
I39616
aI1
aa(lp105
I39779
aI0
aa(lp106
I40034
aI4
aa(lp107
I40241
aI1
aa.