(lp0
(lp1
I442
aI2
aa(lp2
I605
aI3
aa(lp3
I1462
aI1
aa(lp4
I1967
aI1
aa(lp5
I1969
aI4
aa(lp6
I2345
aI1
aa(lp7
I3131
aI1
aa(lp8
I3504
aI1
aa(lp9
I4891
aI2
aa(lp10
I5302
aI2
aa(lp11
I5913
aI2
aa(lp12
I6618
aI1
aa(lp13
I6618
aI4
aa(lp14
I7020
aI1
aa(lp15
I7610
aI4
aa(lp16
I7634
aI4
aa(lp17
I8085
aI4
aa(lp18
I8154
aI1
aa(lp19
I8863
aI4
aa(lp20
I9119
aI4
aa(lp21
I9272
aI4
aa(lp22
I9762
aI4
aa(lp23
I9847
aI3
aa(lp24
I11583
aI1
aa(lp25
I11583
aI4
aa(lp26
I12283
aI0
aa(lp27
I12682
aI0
aa(lp28
I12682
aI4
aa(lp29
I13090
aI0
aa(lp30
I13090
aI3
aa(lp31
I13481
aI2
aa(lp32
I13744
aI3
aa(lp33
I13764
aI3
aa(lp34
I15962
aI1
aa(lp35
I16022
aI0
aa(lp36
I16157
aI1
aa(lp37
I16661
aI0
aa(lp38
I16709
aI2
aa(lp39
I17514
aI3
aa(lp40
I18349
aI0
aa(lp41
I18623
aI4
aa(lp42
I19761
aI3
aa(lp43
I20250
aI2
aa(lp44
I20654
aI0
aa(lp45
I21350
aI2
aa(lp46
I21922
aI1
aa(lp47
I22710
aI3
aa(lp48
I25317
aI2
aa(lp49
I25466
aI0
aa(lp50
I25466
aI2
aa(lp51
I26213
aI2
aa(lp52
I26213
aI4
aa(lp53
I27727
aI2
aa(lp54
I27850
aI1
aa(lp55
I28222
aI0
aa(lp56
I28910
aI3
aa(lp57
I29224
aI0
aa(lp58
I30454
aI0
aa(lp59
I30547
aI4
aa(lp60
I30703
aI3
aa(lp61
I30849
aI2
aa(lp62
I31576
aI4
aa(lp63
I32057
aI0
aa(lp64
I33297
aI0
aa(lp65
I33950
aI0
aa(lp66
I34253
aI1
aa(lp67
I34456
aI1
aa(lp68
I34949
aI3
aa(lp69
I35318
aI0
aa(lp70
I35318
aI3
aa(lp71
I35533
aI3
aa(lp72
I36768
aI2
aa(lp73
I36844
aI0
aa(lp74
I37645
aI0
aa(lp75
I37767
aI2
aa(lp76
I37767
aI3
aa(lp77
I38101
aI3
aa(lp78
I38958
aI4
aa(lp79
I39297
aI1
aa(lp80
I39429
aI4
aa(lp81
I40104
aI2
aa.