(lp0
(lp1
I295
aI0
aa(lp2
I345
aI0
aa(lp3
I345
aI1
aa(lp4
I345
aI3
aa(lp5
I370
aI0
aa(lp6
I370
aI4
aa(lp7
I509
aI0
aa(lp8
I764
aI2
aa(lp9
I813
aI0
aa(lp10
I813
aI1
aa(lp11
I995
aI2
aa(lp12
I1058
aI3
aa(lp13
I1186
aI0
aa(lp14
I1438
aI0
aa(lp15
I1484
aI2
aa(lp16
I1922
aI0
aa(lp17
I2217
aI0
aa(lp18
I2217
aI1
aa(lp19
I2217
aI2
aa(lp20
I2217
aI3
aa(lp21
I2217
aI4
aa(lp22
I2463
aI0
aa(lp23
I2463
aI3
aa(lp24
I2463
aI4
aa(lp25
I2565
aI1
aa(lp26
I2565
aI2
aa(lp27
I2565
aI4
aa(lp28
I2593
aI1
aa(lp29
I2753
aI0
aa(lp30
I2753
aI1
aa(lp31
I2753
aI2
aa(lp32
I2753
aI3
aa(lp33
I2753
aI4
aa(lp34
I2824
aI2
aa(lp35
I2924
aI2
aa(lp36
I3156
aI4
aa(lp37
I3432
aI4
aa(lp38
I3555
aI1
aa(lp39
I3555
aI2
aa(lp40
I3555
aI4
aa(lp41
I3668
aI1
aa(lp42
I3668
aI2
aa(lp43
I3702
aI0
aa(lp44
I3702
aI1
aa(lp45
I3702
aI3
aa(lp46
I4203
aI0
aa(lp47
I4209
aI0
aa(lp48
I4244
aI0
aa(lp49
I4244
aI1
aa(lp50
I4244
aI2
aa(lp51
I4500
aI0
aa(lp52
I4500
aI1
aa(lp53
I4500
aI2
aa(lp54
I4562
aI1
aa(lp55
I4562
aI4
aa(lp56
I4580
aI1
aa(lp57
I4580
aI4
aa(lp58
I4663
aI0
aa(lp59
I4663
aI1
aa(lp60
I4663
aI2
aa(lp61
I4829
aI1
aa(lp62
I4913
aI2
aa(lp63
I5026
aI4
aa(lp64
I5242
aI2
aa(lp65
I5298
aI0
aa(lp66
I5298
aI1
aa(lp67
I5298
aI2
aa(lp68
I5298
aI3
aa(lp69
I5298
aI4
aa(lp70
I5426
aI1
aa(lp71
I5655
aI2
aa(lp72
I5656
aI2
aa(lp73
I6304
aI1
aa(lp74
I6304
aI3
aa(lp75
I6304
aI4
aa(lp76
I6315
aI4
aa(lp77
I6695
aI3
aa(lp78
I6714
aI0
aa(lp79
I6820
aI0
aa(lp80
I6820
aI2
aa(lp81
I6820
aI4
aa(lp82
I7017
aI4
aa(lp83
I7095
aI0
aa(lp84
I7279
aI1
aa(lp85
I7290
aI1
aa(lp86
I7291
aI0
aa(lp87
I7291
aI2
aa(lp88
I7291
aI3
aa(lp89
I7342
aI1
aa(lp90
I7342
aI4
aa(lp91
I7505
aI1
aa(lp92
I7594
aI3
aa(lp93
I7646
aI4
aa(lp94
I7766
aI2
aa(lp95
I7781
aI1
aa(lp96
I7781
aI3
aa(lp97
I7856
aI0
aa(lp98
I7856
aI4
aa(lp99
I7917
aI2
aa(lp100
I8054
aI0
aa(lp101
I8054
aI1
aa(lp102
I8054
aI2
aa(lp103
I8054
aI3
aa(lp104
I8109
aI0
aa(lp105
I8109
aI2
aa(lp106
I8109
aI3
aa(lp107
I8109
aI4
aa(lp108
I8340
aI0
aa(lp109
I8403
aI1
aa(lp110
I8403
aI2
aa(lp111
I8403
aI4
aa(lp112
I8507
aI0
aa(lp113
I8507
aI1
aa(lp114
I8576
aI4
aa(lp115
I8629
aI1
aa(lp116
I8823
aI1
aa(lp117
I8915
aI0
aa(lp118
I8915
aI1
aa(lp119
I9435
aI1
aa(lp120
I9435
aI2
aa(lp121
I9589
aI0
aa(lp122
I9600
aI3
aa(lp123
I9636
aI3
aa(lp124
I9827
aI0
aa(lp125
I9972
aI4
aa(lp126
I10399
aI1
aa(lp127
I10433
aI0
aa(lp128
I10433
aI1
aa(lp129
I10472
aI0
aa(lp130
I10664
aI1
aa(lp131
I10664
aI4
aa(lp132
I10700
aI0
aa(lp133
I10700
aI1
aa(lp134
I10715
aI2
aa(lp135
I10739
aI0
aa(lp136
I10745
aI0
aa(lp137
I10940
aI1
aa(lp138
I10940
aI3
aa(lp139
I11074
aI4
aa(lp140
I11196
aI4
aa(lp141
I11289
aI1
aa(lp142
I11289
aI2
aa(lp143
I11345
aI0
aa(lp144
I11413
aI0
aa(lp145
I11413
aI1
aa(lp146
I11413
aI3
aa(lp147
I11413
aI4
aa(lp148
I11504
aI3
aa(lp149
I11544
aI2
aa(lp150
I11629
aI0
aa(lp151
I11629
aI2
aa(lp152
I11662
aI0
aa(lp153
I11662
aI1
aa(lp154
I11797
aI0
aa(lp155
I11797
aI1
aa(lp156
I11896
aI0
aa(lp157
I12263
aI2
aa(lp158
I12380
aI4
aa(lp159
I12590
aI0
aa(lp160
I12590
aI3
aa(lp161
I12590
aI4
aa(lp162
I12671
aI1
aa(lp163
I13078
aI0
aa(lp164
I13078
aI2
aa(lp165
I13078
aI4
aa(lp166
I13105
aI1
aa(lp167
I13105
aI2
aa(lp168
I13105
aI3
aa(lp169
I13105
aI4
aa(lp170
I13108
aI1
aa(lp171
I13108
aI3
aa(lp172
I13108
aI4
aa(lp173
I13133
aI0
aa(lp174
I13160
aI0
aa(lp175
I13160
aI2
aa(lp176
I13160
aI3
aa(lp177
I13160
aI4
aa(lp178
I13242
aI2
aa(lp179
I13242
aI4
aa(lp180
I13535
aI0
aa(lp181
I13535
aI1
aa(lp182
I13535
aI2
aa(lp183
I13535
aI3
aa(lp184
I13535
aI4
aa(lp185
I13563
aI0
aa(lp186
I13589
aI4
aa(lp187
I13610
aI1
aa(lp188
I13610
aI2
aa(lp189
I13610
aI3
aa(lp190
I13642
aI0
aa(lp191
I13642
aI1
aa(lp192
I13642
aI4
aa(lp193
I13662
aI4
aa(lp194
I13817
aI0
aa(lp195
I13817
aI2
aa(lp196
I13825
aI4
aa(lp197
I14119
aI4
aa(lp198
I14227
aI2
aa(lp199
I14346
aI0
aa(lp200
I14643
aI3
aa(lp201
I14857
aI0
aa(lp202
I14955
aI0
aa(lp203
I14955
aI3
aa(lp204
I14955
aI4
aa(lp205
I14966
aI3
aa(lp206
I15145
aI0
aa(lp207
I15174
aI1
aa(lp208
I15174
aI2
aa(lp209
I15216
aI2
aa(lp210
I15216
aI3
aa(lp211
I15640
aI0
aa(lp212
I15640
aI3
aa(lp213
I16147
aI0
aa(lp214
I16147
aI1
aa(lp215
I16172
aI1
aa(lp216
I16172
aI2
aa(lp217
I16273
aI1
aa(lp218
I16277
aI3
aa(lp219
I16348
aI2
aa(lp220
I16455
aI3
aa(lp221
I16524
aI0
aa(lp222
I16524
aI1
aa(lp223
I16524
aI2
aa(lp224
I16646
aI0
aa(lp225
I16936
aI0
aa(lp226
I17044
aI4
aa(lp227
I17082
aI0
aa(lp228
I17082
aI2
aa(lp229
I17168
aI4
aa(lp230
I17170
aI0
aa(lp231
I17320
aI2
aa(lp232
I17320
aI4
aa(lp233
I17336
aI3
aa(lp234
I17404
aI1
aa(lp235
I17407
aI4
aa(lp236
I17454
aI1
aa(lp237
I17609
aI3
aa(lp238
I17658
aI2
aa(lp239
I17700
aI0
aa(lp240
I17703
aI0
aa(lp241
I17703
aI2
aa(lp242
I17717
aI3
aa(lp243
I17803
aI2
aa(lp244
I17803
aI3
aa(lp245
I17803
aI4
aa(lp246
I17970
aI3
aa(lp247
I18099
aI1
aa(lp248
I18242
aI0
aa(lp249
I18278
aI2
aa(lp250
I18429
aI2
aa(lp251
I18664
aI2
aa(lp252
I18779
aI1
aa(lp253
I18781
aI1
aa(lp254
I18958
aI1
aa(lp255
I18995
aI0
aa(lp256
I18995
aI3
aa(lp257
I19185
aI2
aa(lp258
I19185
aI3
aa(lp259
I19296
aI2
aa(lp260
I19296
aI3
aa(lp261
I19296
aI4
aa(lp262
I19301
aI4
aa(lp263
I19410
aI2
aa(lp264
I19548
aI0
aa(lp265
I19548
aI4
aa(lp266
I19631
aI1
aa(lp267
I19798
aI0
aa(lp268
I19798
aI2
aa(lp269
I19911
aI1
aa(lp270
I19911
aI2
aa(lp271
I19911
aI3
aa(lp272
I19911
aI4
aa(lp273
I20111
aI0
aa(lp274
I20344
aI2
aa(lp275
I20344
aI4
aa(lp276
I20355
aI2
aa(lp277
I20638
aI3
aa(lp278
I20638
aI4
aa(lp279
I20671
aI0
aa(lp280
I20671
aI3
aa(lp281
I20671
aI4
aa(lp282
I21013
aI1
aa(lp283
I21048
aI3
aa(lp284
I21066
aI1
aa(lp285
I21078
aI4
aa(lp286
I21181
aI2
aa(lp287
I21181
aI3
aa(lp288
I21181
aI4
aa(lp289
I21599
aI0
aa(lp290
I21888
aI0
aa(lp291
I21888
aI1
aa(lp292
I21888
aI4
aa(lp293
I22306
aI1
aa(lp294
I22356
aI0
aa(lp295
I22397
aI0
aa(lp296
I22426
aI0
aa(lp297
I22426
aI2
aa(lp298
I22426
aI4
aa(lp299
I22475
aI0
aa(lp300
I22510
aI3
aa(lp301
I22579
aI1
aa(lp302
I22579
aI4
aa(lp303
I22840
aI0
aa(lp304
I22840
aI1
aa(lp305
I22840
aI2
aa(lp306
I22840
aI4
aa(lp307
I22845
aI1
aa(lp308
I22845
aI2
aa(lp309
I22845
aI4
aa(lp310
I23073
aI1
aa(lp311
I23073
aI3
aa(lp312
I23337
aI0
aa(lp313
I23363
aI3
aa(lp314
I23439
aI1
aa(lp315
I23439
aI3
aa(lp316
I23524
aI0
aa(lp317
I23605
aI3
aa(lp318
I23620
aI1
aa(lp319
I23656
aI2
aa(lp320
I23831
aI2
aa(lp321
I23875
aI1
aa(lp322
I24514
aI1
aa(lp323
I24514
aI2
aa(lp324
I24514
aI3
aa(lp325
I24514
aI4
aa(lp326
I24517
aI2
aa(lp327
I24626
aI0
aa(lp328
I24626
aI2
aa(lp329
I24626
aI4
aa(lp330
I24684
aI3
aa(lp331
I24900
aI0
aa(lp332
I25211
aI2
aa(lp333
I25632
aI1
aa(lp334
I25927
aI0
aa(lp335
I26077
aI4
aa(lp336
I26179
aI1
aa(lp337
I26179
aI2
aa(lp338
I26311
aI0
aa(lp339
I26311
aI4
aa(lp340
I26403
aI0
aa(lp341
I26428
aI0
aa(lp342
I26525
aI2
aa(lp343
I26602
aI3
aa(lp344
I26625
aI0
aa(lp345
I26625
aI1
aa(lp346
I26625
aI2
aa(lp347
I26625
aI4
aa(lp348
I26788
aI0
aa(lp349
I26808
aI0
aa(lp350
I26808
aI2
aa(lp351
I26915
aI4
aa(lp352
I26926
aI0
aa(lp353
I27217
aI0
aa(lp354
I27217
aI4
aa(lp355
I27224
aI1
aa(lp356
I27458
aI0
aa(lp357
I27458
aI3
aa(lp358
I27723
aI0
aa(lp359
I27971
aI1
aa(lp360
I27971
aI2
aa(lp361
I28088
aI3
aa(lp362
I28107
aI4
aa(lp363
I28208
aI2
aa(lp364
I28208
aI3
aa(lp365
I28245
aI1
aa(lp366
I28285
aI2
aa(lp367
I28305
aI0
aa(lp368
I28305
aI4
aa(lp369
I28384
aI4
aa(lp370
I28755
aI0
aa(lp371
I28755
aI1
aa(lp372
I28755
aI2
aa(lp373
I28755
aI3
aa(lp374
I29123
aI3
aa(lp375
I29488
aI1
aa(lp376
I29533
aI2
aa(lp377
I29533
aI3
aa(lp378
I29651
aI0
aa(lp379
I29888
aI1
aa(lp380
I29890
aI0
aa(lp381
I29890
aI3
aa(lp382
I30008
aI1
aa(lp383
I30145
aI1
aa(lp384
I30148
aI2
aa(lp385
I30256
aI2
aa(lp386
I30265
aI4
aa(lp387
I30319
aI0
aa(lp388
I30336
aI0
aa(lp389
I30336
aI1
aa(lp390
I30336
aI2
aa(lp391
I30336
aI3
aa(lp392
I30336
aI4
aa(lp393
I30440
aI2
aa(lp394
I30552
aI1
aa(lp395
I30814
aI2
aa(lp396
I30814
aI4
aa(lp397
I30980
aI2
aa(lp398
I30980
aI3
aa(lp399
I31149
aI0
aa(lp400
I31149
aI4
aa(lp401
I31278
aI2
aa(lp402
I31305
aI0
aa(lp403
I31305
aI1
aa(lp404
I31305
aI2
aa(lp405
I31305
aI3
aa(lp406
I31305
aI4
aa(lp407
I31592
aI4
aa(lp408
I31832
aI0
aa(lp409
I31832
aI4
aa(lp410
I31893
aI0
aa(lp411
I31893
aI1
aa(lp412
I31893
aI2
aa(lp413
I32014
aI1
aa(lp414
I32508
aI1
aa(lp415
I32533
aI0
aa(lp416
I32739
aI0
aa(lp417
I32739
aI1
aa(lp418
I32814
aI0
aa(lp419
I32814
aI4
aa(lp420
I32904
aI0
aa(lp421
I33129
aI0
aa(lp422
I33129
aI1
aa(lp423
I33371
aI1
aa(lp424
I33620
aI3
aa(lp425
I33653
aI1
aa(lp426
I33673
aI1
aa(lp427
I33673
aI2
aa(lp428
I33708
aI2
aa(lp429
I33849
aI2
aa(lp430
I33894
aI2
aa(lp431
I33994
aI2
aa(lp432
I34051
aI1
aa(lp433
I34145
aI0
aa(lp434
I34145
aI1
aa(lp435
I34145
aI3
aa(lp436
I34145
aI4
aa(lp437
I34249
aI0
aa(lp438
I34433
aI2
aa(lp439
I34433
aI3
aa(lp440
I34433
aI4
aa(lp441
I34553
aI3
aa(lp442
I34572
aI3
aa(lp443
I34715
aI4
aa(lp444
I35333
aI1
aa(lp445
I35381
aI1
aa(lp446
I35413
aI1
aa(lp447
I35413
aI2
aa(lp448
I35430
aI1
aa(lp449
I35480
aI0
aa(lp450
I35480
aI1
aa(lp451
I35892
aI1
aa(lp452
I35892
aI4
aa(lp453
I36020
aI1
aa(lp454
I36111
aI0
aa(lp455
I36538
aI4
aa(lp456
I36561
aI0
aa(lp457
I36561
aI2
aa(lp458
I36561
aI4
aa(lp459
I36922
aI3
aa(lp460
I37115
aI2
aa(lp461
I37185
aI2
aa(lp462
I37352
aI1
aa(lp463
I37507
aI3
aa(lp464
I37528
aI3
aa(lp465
I37537
aI0
aa(lp466
I37537
aI2
aa(lp467
I37537
aI4
aa(lp468
I37618
aI2
aa(lp469
I37788
aI0
aa(lp470
I37908
aI0
aa(lp471
I37908
aI1
aa(lp472
I37908
aI2
aa(lp473
I37908
aI3
aa(lp474
I37908
aI4
aa(lp475
I38025
aI0
aa(lp476
I38025
aI3
aa(lp477
I38089
aI3
aa(lp478
I38188
aI0
aa(lp479
I38188
aI1
aa(lp480
I38190
aI4
aa(lp481
I38408
aI0
aa(lp482
I38408
aI1
aa(lp483
I38408
aI2
aa(lp484
I38408
aI3
aa(lp485
I38435
aI2
aa(lp486
I38516
aI4
aa(lp487
I38728
aI2
aa(lp488
I38780
aI0
aa(lp489
I38858
aI2
aa(lp490
I38918
aI4
aa(lp491
I38950
aI1
aa(lp492
I39028
aI3
aa(lp493
I39058
aI0
aa(lp494
I39356
aI3
aa(lp495
I39397
aI2
aa(lp496
I39745
aI0
aa(lp497
I39745
aI1
aa(lp498
I39745
aI3
aa(lp499
I39855
aI0
aa(lp500
I39855
aI3
aa(lp501
I40013
aI1
aa(lp502
I40224
aI0
aa(lp503
I40224
aI1
aa(lp504
I40224
aI2
aa(lp505
I40224
aI3
aa(lp506
I40224
aI4
aa.