(lp0
(lp1
I27
aI0
aa(lp2
I27
aI2
aa(lp3
I27
aI3
aa(lp4
I284
aI0
aa(lp5
I284
aI1
aa(lp6
I284
aI2
aa(lp7
I284
aI3
aa(lp8
I284
aI4
aa(lp9
I596
aI2
aa(lp10
I734
aI0
aa(lp11
I749
aI0
aa(lp12
I749
aI1
aa(lp13
I749
aI2
aa(lp14
I749
aI3
aa(lp15
I779
aI0
aa(lp16
I779
aI1
aa(lp17
I779
aI2
aa(lp18
I779
aI3
aa(lp19
I779
aI4
aa(lp20
I1003
aI0
aa(lp21
I1003
aI1
aa(lp22
I1003
aI2
aa(lp23
I1003
aI3
aa(lp24
I1003
aI4
aa(lp25
I1084
aI3
aa(lp26
I1259
aI1
aa(lp27
I1259
aI3
aa(lp28
I1667
aI0
aa(lp29
I1667
aI3
aa(lp30
I2088
aI2
aa(lp31
I2524
aI1
aa(lp32
I2524
aI4
aa(lp33
I2639
aI1
aa(lp34
I2639
aI2
aa(lp35
I2639
aI3
aa(lp36
I2639
aI4
aa(lp37
I2775
aI0
aa(lp38
I2775
aI4
aa(lp39
I3022
aI1
aa(lp40
I3022
aI2
aa(lp41
I3022
aI3
aa(lp42
I3022
aI4
aa(lp43
I3466
aI3
aa(lp44
I3866
aI0
aa(lp45
I4123
aI4
aa(lp46
I4254
aI2
aa(lp47
I4254
aI3
aa(lp48
I4279
aI2
aa(lp49
I4279
aI4
aa(lp50
I4494
aI3
aa(lp51
I4740
aI2
aa(lp52
I4883
aI0
aa(lp53
I4883
aI1
aa(lp54
I4883
aI4
aa(lp55
I4914
aI0
aa(lp56
I4914
aI2
aa(lp57
I5115
aI0
aa(lp58
I5115
aI1
aa(lp59
I5115
aI2
aa(lp60
I5115
aI3
aa(lp61
I5115
aI4
aa(lp62
I5455
aI1
aa(lp63
I5868
aI4
aa(lp64
I5885
aI1
aa(lp65
I5984
aI1
aa(lp66
I6764
aI0
aa(lp67
I6764
aI2
aa(lp68
I6764
aI3
aa(lp69
I6764
aI4
aa(lp70
I6866
aI0
aa(lp71
I6866
aI1
aa(lp72
I6866
aI2
aa(lp73
I6866
aI3
aa(lp74
I6866
aI4
aa(lp75
I6894
aI4
aa(lp76
I7144
aI0
aa(lp77
I7144
aI2
aa(lp78
I7144
aI3
aa(lp79
I7144
aI4
aa(lp80
I7151
aI0
aa(lp81
I7165
aI0
aa(lp82
I7165
aI1
aa(lp83
I7165
aI3
aa(lp84
I7188
aI3
aa(lp85
I7317
aI1
aa(lp86
I7724
aI1
aa(lp87
I8457
aI4
aa(lp88
I8515
aI3
aa(lp89
I8605
aI1
aa(lp90
I8669
aI2
aa(lp91
I8831
aI1
aa(lp92
I8831
aI3
aa(lp93
I9018
aI1
aa(lp94
I9018
aI2
aa(lp95
I9018
aI3
aa(lp96
I9246
aI4
aa(lp97
I9344
aI0
aa(lp98
I9344
aI1
aa(lp99
I9344
aI2
aa(lp100
I9493
aI0
aa(lp101
I9493
aI1
aa(lp102
I9493
aI2
aa(lp103
I9493
aI3
aa(lp104
I9493
aI4
aa(lp105
I9513
aI1
aa(lp106
I9720
aI0
aa(lp107
I9720
aI1
aa(lp108
I9720
aI3
aa(lp109
I9720
aI4
aa(lp110
I10234
aI3
aa(lp111
I10234
aI4
aa(lp112
I10298
aI0
aa(lp113
I10298
aI1
aa(lp114
I10298
aI4
aa(lp115
I10418
aI0
aa(lp116
I10418
aI1
aa(lp117
I10418
aI2
aa(lp118
I10418
aI3
aa(lp119
I10418
aI4
aa(lp120
I10573
aI1
aa(lp121
I10573
aI2
aa(lp122
I10573
aI3
aa(lp123
I10844
aI0
aa(lp124
I10844
aI1
aa(lp125
I10844
aI2
aa(lp126
I10844
aI4
aa(lp127
I10853
aI1
aa(lp128
I10988
aI0
aa(lp129
I10988
aI3
aa(lp130
I10988
aI4
aa(lp131
I11082
aI1
aa(lp132
I11253
aI1
aa(lp133
I11253
aI2
aa(lp134
I11253
aI4
aa(lp135
I11257
aI1
aa(lp136
I11420
aI1
aa(lp137
I11420
aI2
aa(lp138
I11420
aI3
aa(lp139
I11420
aI4
aa(lp140
I11426
aI2
aa(lp141
I12681
aI0
aa(lp142
I12681
aI1
aa(lp143
I12681
aI2
aa(lp144
I12681
aI3
aa(lp145
I12681
aI4
aa(lp146
I12984
aI1
aa(lp147
I13079
aI0
aa(lp148
I13298
aI0
aa(lp149
I13298
aI1
aa(lp150
I13298
aI2
aa(lp151
I13298
aI3
aa(lp152
I13298
aI4
aa(lp153
I13346
aI3
aa(lp154
I13654
aI3
aa(lp155
I13659
aI4
aa(lp156
I13705
aI3
aa(lp157
I13727
aI0
aa(lp158
I13727
aI1
aa(lp159
I13727
aI2
aa(lp160
I13727
aI3
aa(lp161
I13727
aI4
aa(lp162
I13757
aI3
aa(lp163
I14173
aI2
aa(lp164
I14173
aI3
aa(lp165
I14435
aI0
aa(lp166
I14435
aI1
aa(lp167
I14435
aI2
aa(lp168
I14435
aI3
aa(lp169
I14435
aI4
aa(lp170
I14593
aI1
aa(lp171
I14593
aI2
aa(lp172
I14593
aI3
aa(lp173
I14593
aI4
aa(lp174
I14673
aI0
aa(lp175
I14673
aI1
aa(lp176
I14673
aI2
aa(lp177
I14673
aI4
aa(lp178
I14688
aI0
aa(lp179
I14688
aI1
aa(lp180
I14688
aI2
aa(lp181
I15075
aI1
aa(lp182
I15075
aI3
aa(lp183
I15134
aI0
aa(lp184
I15134
aI1
aa(lp185
I15134
aI2
aa(lp186
I15134
aI3
aa(lp187
I15134
aI4
aa(lp188
I15285
aI0
aa(lp189
I15285
aI4
aa(lp190
I15287
aI0
aa(lp191
I15287
aI1
aa(lp192
I15287
aI2
aa(lp193
I15287
aI4
aa(lp194
I15330
aI0
aa(lp195
I15330
aI2
aa(lp196
I15330
aI3
aa(lp197
I15556
aI3
aa(lp198
I15556
aI4
aa(lp199
I15689
aI1
aa(lp200
I15689
aI2
aa(lp201
I15689
aI3
aa(lp202
I15689
aI4
aa(lp203
I15704
aI3
aa(lp204
I15941
aI4
aa(lp205
I16490
aI0
aa(lp206
I16490
aI2
aa(lp207
I16490
aI3
aa(lp208
I16490
aI4
aa(lp209
I16553
aI0
aa(lp210
I16553
aI1
aa(lp211
I16553
aI2
aa(lp212
I16553
aI3
aa(lp213
I16617
aI2
aa(lp214
I16617
aI4
aa(lp215
I16651
aI0
aa(lp216
I16988
aI1
aa(lp217
I16988
aI2
aa(lp218
I16988
aI3
aa(lp219
I16988
aI4
aa(lp220
I17029
aI1
aa(lp221
I17029
aI2
aa(lp222
I17029
aI4
aa(lp223
I17073
aI0
aa(lp224
I17073
aI1
aa(lp225
I17073
aI2
aa(lp226
I17073
aI4
aa(lp227
I17314
aI2
aa(lp228
I17688
aI3
aa(lp229
I18307
aI1
aa(lp230
I18315
aI3
aa(lp231
I18790
aI4
aa(lp232
I19164
aI1
aa(lp233
I19313
aI3
aa(lp234
I19370
aI3
aa(lp235
I19564
aI0
aa(lp236
I19799
aI1
aa(lp237
I19799
aI2
aa(lp238
I19799
aI3
aa(lp239
I19799
aI4
aa(lp240
I19858
aI0
aa(lp241
I19858
aI2
aa(lp242
I20208
aI1
aa(lp243
I20395
aI0
aa(lp244
I20395
aI1
aa(lp245
I20395
aI2
aa(lp246
I20395
aI3
aa(lp247
I20395
aI4
aa(lp248
I20682
aI0
aa(lp249
I20682
aI3
aa(lp250
I20682
aI4
aa(lp251
I20949
aI0
aa(lp252
I20949
aI1
aa(lp253
I20976
aI1
aa(lp254
I20976
aI2
aa(lp255
I20976
aI4
aa(lp256
I21049
aI0
aa(lp257
I21049
aI1
aa(lp258
I21155
aI1
aa(lp259
I21155
aI3
aa(lp260
I21155
aI4
aa(lp261
I21160
aI0
aa(lp262
I21209
aI2
aa(lp263
I21209
aI4
aa(lp264
I21262
aI0
aa(lp265
I21405
aI2
aa(lp266
I21645
aI0
aa(lp267
I21645
aI1
aa(lp268
I21645
aI2
aa(lp269
I21645
aI3
aa(lp270
I21645
aI4
aa(lp271
I21713
aI1
aa(lp272
I21713
aI3
aa(lp273
I21761
aI0
aa(lp274
I21761
aI3
aa(lp275
I21812
aI2
aa(lp276
I22124
aI4
aa(lp277
I22261
aI4
aa(lp278
I22345
aI4
aa(lp279
I22475
aI0
aa(lp280
I22475
aI1
aa(lp281
I22475
aI2
aa(lp282
I22475
aI3
aa(lp283
I22475
aI4
aa(lp284
I22619
aI1
aa(lp285
I22727
aI0
aa(lp286
I22727
aI2
aa(lp287
I22727
aI3
aa(lp288
I22727
aI4
aa(lp289
I22838
aI1
aa(lp290
I22927
aI1
aa(lp291
I22927
aI3
aa(lp292
I22927
aI4
aa(lp293
I22992
aI2
aa(lp294
I23138
aI1
aa(lp295
I23138
aI2
aa(lp296
I23138
aI3
aa(lp297
I23550
aI0
aa(lp298
I23550
aI4
aa(lp299
I23712
aI1
aa(lp300
I23861
aI0
aa(lp301
I23861
aI1
aa(lp302
I23861
aI2
aa(lp303
I23861
aI3
aa(lp304
I23861
aI4
aa(lp305
I23892
aI0
aa(lp306
I23892
aI1
aa(lp307
I23892
aI2
aa(lp308
I23892
aI3
aa(lp309
I23892
aI4
aa(lp310
I23959
aI3
aa(lp311
I24033
aI0
aa(lp312
I24033
aI1
aa(lp313
I24033
aI2
aa(lp314
I24033
aI3
aa(lp315
I24033
aI4
aa(lp316
I24280
aI0
aa(lp317
I24280
aI1
aa(lp318
I24280
aI2
aa(lp319
I24280
aI3
aa(lp320
I24280
aI4
aa(lp321
I24358
aI2
aa(lp322
I24408
aI1
aa(lp323
I24670
aI3
aa(lp324
I24768
aI1
aa(lp325
I24768
aI3
aa(lp326
I24768
aI4
aa(lp327
I24921
aI2
aa(lp328
I25088
aI1
aa(lp329
I25233
aI0
aa(lp330
I25233
aI1
aa(lp331
I25233
aI2
aa(lp332
I25237
aI3
aa(lp333
I25237
aI4
aa(lp334
I25377
aI1
aa(lp335
I25377
aI2
aa(lp336
I25377
aI3
aa(lp337
I25377
aI4
aa(lp338
I25626
aI1
aa(lp339
I25869
aI3
aa(lp340
I25882
aI3
aa(lp341
I25979
aI4
aa(lp342
I26203
aI0
aa(lp343
I26203
aI1
aa(lp344
I26203
aI2
aa(lp345
I26226
aI3
aa(lp346
I26314
aI3
aa(lp347
I26988
aI1
aa(lp348
I27371
aI1
aa(lp349
I27371
aI2
aa(lp350
I27371
aI4
aa(lp351
I27909
aI0
aa(lp352
I27909
aI1
aa(lp353
I27909
aI2
aa(lp354
I27909
aI4
aa(lp355
I28168
aI0
aa(lp356
I28168
aI2
aa(lp357
I28168
aI3
aa(lp358
I28168
aI4
aa(lp359
I28498
aI0
aa(lp360
I28498
aI2
aa(lp361
I28498
aI3
aa(lp362
I28528
aI0
aa(lp363
I28528
aI1
aa(lp364
I28528
aI2
aa(lp365
I28528
aI3
aa(lp366
I28556
aI4
aa(lp367
I28584
aI2
aa(lp368
I28606
aI1
aa(lp369
I28606
aI2
aa(lp370
I28606
aI3
aa(lp371
I28606
aI4
aa(lp372
I28657
aI0
aa(lp373
I28657
aI1
aa(lp374
I28657
aI4
aa(lp375
I28796
aI4
aa(lp376
I28857
aI2
aa(lp377
I28857
aI3
aa(lp378
I28857
aI4
aa(lp379
I28871
aI4
aa(lp380
I29234
aI0
aa(lp381
I29234
aI3
aa(lp382
I29234
aI4
aa(lp383
I29741
aI2
aa(lp384
I30419
aI1
aa(lp385
I30419
aI2
aa(lp386
I30566
aI0
aa(lp387
I30566
aI1
aa(lp388
I30566
aI2
aa(lp389
I30566
aI3
aa(lp390
I30566
aI4
aa(lp391
I30631
aI0
aa(lp392
I30631
aI1
aa(lp393
I30631
aI2
aa(lp394
I30631
aI3
aa(lp395
I30631
aI4
aa(lp396
I30872
aI0
aa(lp397
I30872
aI2
aa(lp398
I30872
aI3
aa(lp399
I30890
aI2
aa(lp400
I31192
aI2
aa(lp401
I31192
aI4
aa(lp402
I31732
aI1
aa(lp403
I31732
aI2
aa(lp404
I31732
aI4
aa(lp405
I31737
aI0
aa(lp406
I31737
aI1
aa(lp407
I31737
aI2
aa(lp408
I31737
aI3
aa(lp409
I31737
aI4
aa(lp410
I31769
aI2
aa(lp411
I31769
aI3
aa(lp412
I31799
aI2
aa(lp413
I31799
aI4
aa(lp414
I31831
aI4
aa(lp415
I31929
aI3
aa(lp416
I31929
aI4
aa(lp417
I32112
aI1
aa(lp418
I32585
aI2
aa(lp419
I32621
aI1
aa(lp420
I32688
aI0
aa(lp421
I32688
aI1
aa(lp422
I32688
aI2
aa(lp423
I32688
aI3
aa(lp424
I32688
aI4
aa(lp425
I32902
aI3
aa(lp426
I32911
aI1
aa(lp427
I32911
aI2
aa(lp428
I33211
aI1
aa(lp429
I33211
aI2
aa(lp430
I33211
aI4
aa(lp431
I33306
aI0
aa(lp432
I33306
aI2
aa(lp433
I33453
aI0
aa(lp434
I33453
aI1
aa(lp435
I33453
aI2
aa(lp436
I33453
aI3
aa(lp437
I33453
aI4
aa(lp438
I33711
aI1
aa(lp439
I33753
aI0
aa(lp440
I33753
aI1
aa(lp441
I33994
aI1
aa(lp442
I33994
aI2
aa(lp443
I34170
aI0
aa(lp444
I34170
aI3
aa(lp445
I34170
aI4
aa(lp446
I34265
aI4
aa(lp447
I34385
aI4
aa(lp448
I34512
aI4
aa(lp449
I34636
aI2
aa(lp450
I34681
aI1
aa(lp451
I34681
aI2
aa(lp452
I34921
aI0
aa(lp453
I34947
aI1
aa(lp454
I34947
aI3
aa(lp455
I35148
aI0
aa(lp456
I35148
aI1
aa(lp457
I35148
aI2
aa(lp458
I35392
aI2
aa(lp459
I35531
aI3
aa(lp460
I35765
aI4
aa(lp461
I36089
aI3
aa(lp462
I36232
aI0
aa(lp463
I36232
aI1
aa(lp464
I36232
aI3
aa(lp465
I36232
aI4
aa(lp466
I36257
aI0
aa(lp467
I36257
aI3
aa(lp468
I36257
aI4
aa(lp469
I36259
aI4
aa(lp470
I36436
aI1
aa(lp471
I36436
aI2
aa(lp472
I36436
aI3
aa(lp473
I36436
aI4
aa(lp474
I36452
aI0
aa(lp475
I36452
aI1
aa(lp476
I36452
aI2
aa(lp477
I36452
aI3
aa(lp478
I36639
aI2
aa(lp479
I36639
aI3
aa(lp480
I36748
aI4
aa(lp481
I37364
aI2
aa(lp482
I37395
aI0
aa(lp483
I37395
aI3
aa(lp484
I37395
aI4
aa(lp485
I37500
aI4
aa(lp486
I37508
aI3
aa(lp487
I37518
aI0
aa(lp488
I37663
aI0
aa(lp489
I37705
aI0
aa(lp490
I37705
aI2
aa(lp491
I37705
aI3
aa(lp492
I37705
aI4
aa(lp493
I38055
aI0
aa(lp494
I38055
aI1
aa(lp495
I38055
aI2
aa(lp496
I38055
aI3
aa(lp497
I38506
aI4
aa(lp498
I38993
aI3
aa(lp499
I39592
aI1
aa(lp500
I39640
aI3
aa(lp501
I40018
aI0
aa(lp502
I40018
aI4
aa(lp503
I40139
aI0
aa(lp504
I40139
aI1
aa(lp505
I40139
aI2
aa(lp506
I40139
aI4
aa(lp507
I40212
aI1
aa(lp508
I40418
aI0
aa(lp509
I40418
aI2
aa(lp510
I40418
aI4
aa.