(lp0
(lp1
I44
aI4
aa(lp2
I59
aI2
aa(lp3
I59
aI3
aa(lp4
I59
aI4
aa(lp5
I80
aI1
aa(lp6
I80
aI2
aa(lp7
I517
aI1
aa(lp8
I596
aI1
aa(lp9
I798
aI1
aa(lp10
I811
aI3
aa(lp11
I830
aI1
aa(lp12
I863
aI2
aa(lp13
I1016
aI2
aa(lp14
I1029
aI0
aa(lp15
I1030
aI0
aa(lp16
I1076
aI4
aa(lp17
I1100
aI4
aa(lp18
I1349
aI4
aa(lp19
I1361
aI2
aa(lp20
I1361
aI4
aa(lp21
I1776
aI1
aa(lp22
I1776
aI2
aa(lp23
I1868
aI0
aa(lp24
I1880
aI0
aa(lp25
I1880
aI1
aa(lp26
I1880
aI4
aa(lp27
I2197
aI0
aa(lp28
I2376
aI1
aa(lp29
I2376
aI2
aa(lp30
I2376
aI4
aa(lp31
I2458
aI1
aa(lp32
I2775
aI4
aa(lp33
I2858
aI1
aa(lp34
I2858
aI2
aa(lp35
I2858
aI3
aa(lp36
I2863
aI0
aa(lp37
I2863
aI1
aa(lp38
I2863
aI2
aa(lp39
I2863
aI3
aa(lp40
I2863
aI4
aa(lp41
I2867
aI3
aa(lp42
I2920
aI1
aa(lp43
I2920
aI4
aa(lp44
I2970
aI3
aa(lp45
I3221
aI4
aa(lp46
I3261
aI0
aa(lp47
I3261
aI4
aa(lp48
I3303
aI0
aa(lp49
I3392
aI2
aa(lp50
I3392
aI4
aa(lp51
I3646
aI1
aa(lp52
I3670
aI0
aa(lp53
I3670
aI1
aa(lp54
I3670
aI2
aa(lp55
I3670
aI3
aa(lp56
I3670
aI4
aa(lp57
I3687
aI0
aa(lp58
I3687
aI1
aa(lp59
I3687
aI2
aa(lp60
I3839
aI4
aa(lp61
I3858
aI1
aa(lp62
I3858
aI2
aa(lp63
I3858
aI3
aa(lp64
I3858
aI4
aa(lp65
I4147
aI2
aa(lp66
I4276
aI0
aa(lp67
I4276
aI1
aa(lp68
I4276
aI2
aa(lp69
I4276
aI4
aa(lp70
I4290
aI0
aa(lp71
I4290
aI4
aa(lp72
I4314
aI2
aa(lp73
I4314
aI3
aa(lp74
I4314
aI4
aa(lp75
I4399
aI1
aa(lp76
I4399
aI2
aa(lp77
I4399
aI4
aa(lp78
I4408
aI1
aa(lp79
I4408
aI2
aa(lp80
I4408
aI3
aa(lp81
I4802
aI4
aa(lp82
I5067
aI4
aa(lp83
I5085
aI2
aa(lp84
I5095
aI0
aa(lp85
I5226
aI0
aa(lp86
I5226
aI1
aa(lp87
I5226
aI2
aa(lp88
I5226
aI3
aa(lp89
I5305
aI2
aa(lp90
I5313
aI0
aa(lp91
I5445
aI3
aa(lp92
I5534
aI4
aa(lp93
I5818
aI2
aa(lp94
I5818
aI4
aa(lp95
I6029
aI2
aa(lp96
I6029
aI4
aa(lp97
I6266
aI2
aa(lp98
I6435
aI0
aa(lp99
I6499
aI0
aa(lp100
I6518
aI1
aa(lp101
I6518
aI3
aa(lp102
I6518
aI4
aa(lp103
I6621
aI2
aa(lp104
I6725
aI3
aa(lp105
I6805
aI1
aa(lp106
I6805
aI4
aa(lp107
I6843
aI3
aa(lp108
I7026
aI3
aa(lp109
I7080
aI1
aa(lp110
I7080
aI2
aa(lp111
I7080
aI4
aa(lp112
I7097
aI2
aa(lp113
I7097
aI3
aa(lp114
I7175
aI0
aa(lp115
I7488
aI1
aa(lp116
I7488
aI4
aa(lp117
I7729
aI1
aa(lp118
I7945
aI0
aa(lp119
I7975
aI3
aa(lp120
I7975
aI4
aa(lp121
I8021
aI1
aa(lp122
I8059
aI4
aa(lp123
I8070
aI0
aa(lp124
I8342
aI1
aa(lp125
I8439
aI0
aa(lp126
I8439
aI1
aa(lp127
I8531
aI1
aa(lp128
I8634
aI0
aa(lp129
I8634
aI2
aa(lp130
I8634
aI3
aa(lp131
I8634
aI4
aa(lp132
I8651
aI0
aa(lp133
I8651
aI2
aa(lp134
I8651
aI3
aa(lp135
I8651
aI4
aa(lp136
I8780
aI0
aa(lp137
I8780
aI1
aa(lp138
I8780
aI3
aa(lp139
I8781
aI0
aa(lp140
I8781
aI3
aa(lp141
I8781
aI4
aa(lp142
I8882
aI3
aa(lp143
I9064
aI0
aa(lp144
I9082
aI0
aa(lp145
I9082
aI3
aa(lp146
I9096
aI3
aa(lp147
I9369
aI0
aa(lp148
I9369
aI3
aa(lp149
I9369
aI4
aa(lp150
I9501
aI0
aa(lp151
I9673
aI2
aa(lp152
I9719
aI3
aa(lp153
I9734
aI0
aa(lp154
I9734
aI2
aa(lp155
I9734
aI4
aa(lp156
I9763
aI4
aa(lp157
I9915
aI4
aa(lp158
I9950
aI2
aa(lp159
I9950
aI4
aa(lp160
I9953
aI4
aa(lp161
I10026
aI0
aa(lp162
I10084
aI0
aa(lp163
I10084
aI2
aa(lp164
I10084
aI4
aa(lp165
I10303
aI0
aa(lp166
I10340
aI2
aa(lp167
I10359
aI0
aa(lp168
I10359
aI1
aa(lp169
I10359
aI4
aa(lp170
I10414
aI2
aa(lp171
I10535
aI3
aa(lp172
I10646
aI0
aa(lp173
I10646
aI4
aa(lp174
I10851
aI3
aa(lp175
I10867
aI1
aa(lp176
I11189
aI1
aa(lp177
I11216
aI2
aa(lp178
I11402
aI0
aa(lp179
I11418
aI1
aa(lp180
I11503
aI2
aa(lp181
I11552
aI4
aa(lp182
I11861
aI0
aa(lp183
I11861
aI1
aa(lp184
I11861
aI2
aa(lp185
I11883
aI1
aa(lp186
I11883
aI2
aa(lp187
I11883
aI3
aa(lp188
I12077
aI1
aa(lp189
I12183
aI1
aa(lp190
I12320
aI1
aa(lp191
I12320
aI2
aa(lp192
I12320
aI3
aa(lp193
I12320
aI4
aa(lp194
I12325
aI2
aa(lp195
I12548
aI0
aa(lp196
I12565
aI3
aa(lp197
I12582
aI2
aa(lp198
I12660
aI0
aa(lp199
I12660
aI2
aa(lp200
I12732
aI0
aa(lp201
I12753
aI4
aa(lp202
I12795
aI2
aa(lp203
I12795
aI4
aa(lp204
I12861
aI1
aa(lp205
I12861
aI2
aa(lp206
I12861
aI4
aa(lp207
I12915
aI2
aa(lp208
I12971
aI1
aa(lp209
I12971
aI3
aa(lp210
I12973
aI2
aa(lp211
I12973
aI4
aa(lp212
I13045
aI0
aa(lp213
I13045
aI3
aa(lp214
I13135
aI1
aa(lp215
I13176
aI2
aa(lp216
I13210
aI2
aa(lp217
I13210
aI3
aa(lp218
I13210
aI4
aa(lp219
I13294
aI0
aa(lp220
I13294
aI3
aa(lp221
I13294
aI4
aa(lp222
I13492
aI0
aa(lp223
I13492
aI2
aa(lp224
I13514
aI1
aa(lp225
I13935
aI1
aa(lp226
I13935
aI3
aa(lp227
I13952
aI0
aa(lp228
I14040
aI3
aa(lp229
I14053
aI4
aa(lp230
I14124
aI1
aa(lp231
I14136
aI4
aa(lp232
I14198
aI0
aa(lp233
I14198
aI1
aa(lp234
I14198
aI2
aa(lp235
I14198
aI3
aa(lp236
I14198
aI4
aa(lp237
I14199
aI1
aa(lp238
I14254
aI2
aa(lp239
I14277
aI2
aa(lp240
I14277
aI3
aa(lp241
I14399
aI1
aa(lp242
I14411
aI1
aa(lp243
I14411
aI3
aa(lp244
I14567
aI3
aa(lp245
I14567
aI4
aa(lp246
I14644
aI0
aa(lp247
I14644
aI2
aa(lp248
I14644
aI3
aa(lp249
I14911
aI0
aa(lp250
I15113
aI2
aa(lp251
I15177
aI1
aa(lp252
I15250
aI0
aa(lp253
I15288
aI0
aa(lp254
I15288
aI1
aa(lp255
I15366
aI4
aa(lp256
I15425
aI0
aa(lp257
I15502
aI4
aa(lp258
I15541
aI0
aa(lp259
I15623
aI1
aa(lp260
I15776
aI0
aa(lp261
I15776
aI3
aa(lp262
I15786
aI0
aa(lp263
I15823
aI0
aa(lp264
I15823
aI1
aa(lp265
I15823
aI2
aa(lp266
I15823
aI3
aa(lp267
I15823
aI4
aa(lp268
I15831
aI2
aa(lp269
I15831
aI3
aa(lp270
I15831
aI4
aa(lp271
I16007
aI1
aa(lp272
I16007
aI2
aa(lp273
I16007
aI3
aa(lp274
I16137
aI1
aa(lp275
I16247
aI0
aa(lp276
I16262
aI0
aa(lp277
I16453
aI2
aa(lp278
I16656
aI0
aa(lp279
I16656
aI1
aa(lp280
I16656
aI2
aa(lp281
I16656
aI3
aa(lp282
I16656
aI4
aa(lp283
I16664
aI0
aa(lp284
I16664
aI1
aa(lp285
I16664
aI2
aa(lp286
I16664
aI4
aa(lp287
I16947
aI0
aa(lp288
I16947
aI1
aa(lp289
I16947
aI2
aa(lp290
I16962
aI2
aa(lp291
I16964
aI1
aa(lp292
I16964
aI2
aa(lp293
I17007
aI0
aa(lp294
I17007
aI3
aa(lp295
I17041
aI2
aa(lp296
I17041
aI3
aa(lp297
I17041
aI4
aa(lp298
I17106
aI4
aa(lp299
I17359
aI0
aa(lp300
I17359
aI2
aa(lp301
I17359
aI4
aa(lp302
I17393
aI1
aa(lp303
I17393
aI3
aa(lp304
I17700
aI1
aa(lp305
I17700
aI2
aa(lp306
I17700
aI3
aa(lp307
I17700
aI4
aa(lp308
I17705
aI4
aa(lp309
I17872
aI3
aa(lp310
I17887
aI1
aa(lp311
I18219
aI4
aa(lp312
I18288
aI0
aa(lp313
I18288
aI1
aa(lp314
I18288
aI2
aa(lp315
I18288
aI3
aa(lp316
I18288
aI4
aa(lp317
I18360
aI1
aa(lp318
I18360
aI2
aa(lp319
I18360
aI3
aa(lp320
I18500
aI2
aa(lp321
I18651
aI2
aa(lp322
I18774
aI4
aa(lp323
I18855
aI1
aa(lp324
I19007
aI4
aa(lp325
I19214
aI0
aa(lp326
I19214
aI1
aa(lp327
I19214
aI3
aa(lp328
I19297
aI2
aa(lp329
I19297
aI3
aa(lp330
I19620
aI4
aa(lp331
I19667
aI0
aa(lp332
I19708
aI2
aa(lp333
I19738
aI4
aa(lp334
I19894
aI2
aa(lp335
I19914
aI0
aa(lp336
I19914
aI1
aa(lp337
I19914
aI3
aa(lp338
I19914
aI4
aa(lp339
I19969
aI1
aa(lp340
I20468
aI3
aa(lp341
I20507
aI3
aa(lp342
I20510
aI3
aa(lp343
I20587
aI0
aa(lp344
I20587
aI1
aa(lp345
I20612
aI0
aa(lp346
I20612
aI4
aa(lp347
I20644
aI1
aa(lp348
I21047
aI3
aa(lp349
I21147
aI0
aa(lp350
I21153
aI2
aa(lp351
I21177
aI4
aa(lp352
I21183
aI3
aa(lp353
I21280
aI2
aa(lp354
I21280
aI3
aa(lp355
I21306
aI0
aa(lp356
I21306
aI1
aa(lp357
I21306
aI2
aa(lp358
I21306
aI3
aa(lp359
I21408
aI1
aa(lp360
I21408
aI2
aa(lp361
I21408
aI4
aa(lp362
I21431
aI4
aa(lp363
I21457
aI2
aa(lp364
I21545
aI0
aa(lp365
I21554
aI2
aa(lp366
I21554
aI4
aa(lp367
I21719
aI2
aa(lp368
I21719
aI3
aa(lp369
I21719
aI4
aa(lp370
I21922
aI0
aa(lp371
I21922
aI1
aa(lp372
I21922
aI2
aa(lp373
I22093
aI1
aa(lp374
I22093
aI2
aa(lp375
I22126
aI3
aa(lp376
I22186
aI1
aa(lp377
I22186
aI4
aa(lp378
I22322
aI0
aa(lp379
I22322
aI2
aa(lp380
I22328
aI1
aa(lp381
I22369
aI2
aa(lp382
I22630
aI3
aa(lp383
I22630
aI4
aa(lp384
I22634
aI1
aa(lp385
I22635
aI3
aa(lp386
I22769
aI2
aa(lp387
I22936
aI4
aa(lp388
I22968
aI0
aa(lp389
I22968
aI1
aa(lp390
I22968
aI2
aa(lp391
I22968
aI3
aa(lp392
I22968
aI4
aa(lp393
I23029
aI0
aa(lp394
I23029
aI1
aa(lp395
I23029
aI3
aa(lp396
I23029
aI4
aa(lp397
I23168
aI0
aa(lp398
I23183
aI1
aa(lp399
I23183
aI3
aa(lp400
I23199
aI0
aa(lp401
I23384
aI1
aa(lp402
I23420
aI1
aa(lp403
I23446
aI1
aa(lp404
I23738
aI1
aa(lp405
I23738
aI4
aa(lp406
I23785
aI0
aa(lp407
I23785
aI2
aa(lp408
I24010
aI0
aa(lp409
I24010
aI1
aa(lp410
I24010
aI2
aa(lp411
I24010
aI3
aa(lp412
I24010
aI4
aa(lp413
I24213
aI0
aa(lp414
I24242
aI0
aa(lp415
I24273
aI1
aa(lp416
I24273
aI2
aa(lp417
I24273
aI4
aa(lp418
I24383
aI2
aa(lp419
I24383
aI3
aa(lp420
I24607
aI2
aa(lp421
I24931
aI0
aa(lp422
I24931
aI1
aa(lp423
I24931
aI2
aa(lp424
I24931
aI4
aa(lp425
I25326
aI2
aa(lp426
I25326
aI4
aa(lp427
I25485
aI0
aa(lp428
I25485
aI1
aa(lp429
I25485
aI2
aa(lp430
I25485
aI4
aa(lp431
I25496
aI0
aa(lp432
I25496
aI1
aa(lp433
I25496
aI2
aa(lp434
I25496
aI3
aa(lp435
I25496
aI4
aa(lp436
I25623
aI3
aa(lp437
I25728
aI0
aa(lp438
I25758
aI1
aa(lp439
I25802
aI0
aa(lp440
I25802
aI2
aa(lp441
I25831
aI0
aa(lp442
I25831
aI1
aa(lp443
I25831
aI2
aa(lp444
I26045
aI0
aa(lp445
I26067
aI3
aa(lp446
I26202
aI3
aa(lp447
I26236
aI1
aa(lp448
I26236
aI4
aa(lp449
I26246
aI0
aa(lp450
I26278
aI4
aa(lp451
I26337
aI3
aa(lp452
I26376
aI0
aa(lp453
I26376
aI1
aa(lp454
I26376
aI2
aa(lp455
I26490
aI3
aa(lp456
I26517
aI0
aa(lp457
I26529
aI0
aa(lp458
I26529
aI1
aa(lp459
I26529
aI2
aa(lp460
I26529
aI3
aa(lp461
I26673
aI0
aa(lp462
I26673
aI3
aa(lp463
I26675
aI4
aa(lp464
I26726
aI4
aa(lp465
I26796
aI1
aa(lp466
I26796
aI2
aa(lp467
I26861
aI1
aa(lp468
I26861
aI3
aa(lp469
I26975
aI0
aa(lp470
I26975
aI1
aa(lp471
I26975
aI2
aa(lp472
I26975
aI3
aa(lp473
I26975
aI4
aa(lp474
I27196
aI2
aa(lp475
I27292
aI1
aa(lp476
I27360
aI4
aa(lp477
I27461
aI0
aa(lp478
I27461
aI1
aa(lp479
I27461
aI4
aa(lp480
I27480
aI1
aa(lp481
I27480
aI2
aa(lp482
I27611
aI0
aa(lp483
I27611
aI2
aa(lp484
I27611
aI3
aa(lp485
I27611
aI4
aa(lp486
I27625
aI0
aa(lp487
I27625
aI1
aa(lp488
I27625
aI2
aa(lp489
I27625
aI3
aa(lp490
I27692
aI0
aa(lp491
I27692
aI1
aa(lp492
I27692
aI2
aa(lp493
I27692
aI3
aa(lp494
I27692
aI4
aa(lp495
I27745
aI2
aa(lp496
I27745
aI4
aa(lp497
I27794
aI0
aa(lp498
I28207
aI2
aa(lp499
I28260
aI0
aa(lp500
I28260
aI1
aa(lp501
I28260
aI2
aa(lp502
I28260
aI4
aa(lp503
I28299
aI4
aa(lp504
I28300
aI1
aa(lp505
I28379
aI0
aa(lp506
I28379
aI4
aa(lp507
I28539
aI3
aa(lp508
I28549
aI0
aa(lp509
I28549
aI1
aa(lp510
I28549
aI4
aa(lp511
I28583
aI4
aa(lp512
I28619
aI3
aa(lp513
I28627
aI2
aa(lp514
I28627
aI4
aa(lp515
I28783
aI1
aa(lp516
I28783
aI2
aa(lp517
I28783
aI3
aa(lp518
I28783
aI4
aa(lp519
I28842
aI3
aa(lp520
I28927
aI0
aa(lp521
I28927
aI3
aa(lp522
I28927
aI4
aa(lp523
I29220
aI0
aa(lp524
I29220
aI1
aa(lp525
I29220
aI2
aa(lp526
I29220
aI3
aa(lp527
I29220
aI4
aa(lp528
I29296
aI1
aa(lp529
I29437
aI3
aa(lp530
I29451
aI4
aa(lp531
I29567
aI4
aa(lp532
I29766
aI0
aa(lp533
I29766
aI4
aa(lp534
I30075
aI0
aa(lp535
I30075
aI2
aa(lp536
I30257
aI0
aa(lp537
I30271
aI4
aa(lp538
I30281
aI0
aa(lp539
I30427
aI0
aa(lp540
I30427
aI1
aa(lp541
I30427
aI2
aa(lp542
I30427
aI4
aa(lp543
I30578
aI2
aa(lp544
I30611
aI2
aa(lp545
I30626
aI4
aa(lp546
I30707
aI3
aa(lp547
I30721
aI3
aa(lp548
I30736
aI1
aa(lp549
I30736
aI2
aa(lp550
I30736
aI3
aa(lp551
I30761
aI0
aa(lp552
I30761
aI2
aa(lp553
I30778
aI1
aa(lp554
I30778
aI2
aa(lp555
I30778
aI3
aa(lp556
I30778
aI4
aa(lp557
I30972
aI0
aa(lp558
I30972
aI1
aa(lp559
I30972
aI2
aa(lp560
I30972
aI3
aa(lp561
I30975
aI0
aa(lp562
I30975
aI1
aa(lp563
I31001
aI3
aa(lp564
I31180
aI1
aa(lp565
I31210
aI0
aa(lp566
I31210
aI1
aa(lp567
I31210
aI2
aa(lp568
I31210
aI3
aa(lp569
I31210
aI4
aa(lp570
I31225
aI1
aa(lp571
I31225
aI2
aa(lp572
I31225
aI3
aa(lp573
I31413
aI3
aa(lp574
I31413
aI4
aa(lp575
I31450
aI1
aa(lp576
I31450
aI2
aa(lp577
I31450
aI4
aa(lp578
I31509
aI0
aa(lp579
I31509
aI1
aa(lp580
I31509
aI2
aa(lp581
I31509
aI3
aa(lp582
I31509
aI4
aa(lp583
I31823
aI1
aa(lp584
I31823
aI3
aa(lp585
I32024
aI2
aa(lp586
I32026
aI3
aa(lp587
I32032
aI3
aa(lp588
I32134
aI4
aa(lp589
I32214
aI0
aa(lp590
I32355
aI4
aa(lp591
I32603
aI2
aa(lp592
I33011
aI0
aa(lp593
I33011
aI1
aa(lp594
I33011
aI2
aa(lp595
I33011
aI3
aa(lp596
I33011
aI4
aa(lp597
I33093
aI4
aa(lp598
I33365
aI0
aa(lp599
I33423
aI3
aa(lp600
I33423
aI4
aa(lp601
I33518
aI4
aa(lp602
I33554
aI2
aa(lp603
I33729
aI3
aa(lp604
I33818
aI0
aa(lp605
I33865
aI1
aa(lp606
I33886
aI2
aa(lp607
I33886
aI3
aa(lp608
I33999
aI0
aa(lp609
I33999
aI1
aa(lp610
I33999
aI2
aa(lp611
I33999
aI3
aa(lp612
I33999
aI4
aa(lp613
I34009
aI2
aa(lp614
I34067
aI0
aa(lp615
I34067
aI1
aa(lp616
I34067
aI2
aa(lp617
I34067
aI3
aa(lp618
I34091
aI4
aa(lp619
I34102
aI0
aa(lp620
I34166
aI0
aa(lp621
I34166
aI1
aa(lp622
I34166
aI2
aa(lp623
I34166
aI3
aa(lp624
I34166
aI4
aa(lp625
I34357
aI2
aa(lp626
I34424
aI0
aa(lp627
I34424
aI1
aa(lp628
I34424
aI2
aa(lp629
I34424
aI4
aa(lp630
I34494
aI1
aa(lp631
I34494
aI2
aa(lp632
I34494
aI3
aa(lp633
I34612
aI2
aa(lp634
I34947
aI1
aa(lp635
I34979
aI0
aa(lp636
I34979
aI1
aa(lp637
I34979
aI2
aa(lp638
I34979
aI3
aa(lp639
I34979
aI4
aa(lp640
I35000
aI0
aa(lp641
I35383
aI4
aa(lp642
I35569
aI0
aa(lp643
I35569
aI1
aa(lp644
I35569
aI2
aa(lp645
I35569
aI4
aa(lp646
I35743
aI3
aa(lp647
I35745
aI4
aa(lp648
I35852
aI1
aa(lp649
I35852
aI4
aa(lp650
I35853
aI0
aa(lp651
I35860
aI0
aa(lp652
I35860
aI1
aa(lp653
I35860
aI3
aa(lp654
I35860
aI4
aa(lp655
I35871
aI2
aa(lp656
I35871
aI4
aa(lp657
I36330
aI3
aa(lp658
I36470
aI1
aa(lp659
I36470
aI2
aa(lp660
I36470
aI4
aa(lp661
I36471
aI0
aa(lp662
I36471
aI2
aa(lp663
I36475
aI0
aa(lp664
I36475
aI3
aa(lp665
I36475
aI4
aa(lp666
I36509
aI3
aa(lp667
I36642
aI4
aa(lp668
I36714
aI1
aa(lp669
I36800
aI3
aa(lp670
I36800
aI4
aa(lp671
I37124
aI0
aa(lp672
I37124
aI1
aa(lp673
I37124
aI2
aa(lp674
I37124
aI3
aa(lp675
I37124
aI4
aa(lp676
I37240
aI0
aa(lp677
I37300
aI3
aa(lp678
I37585
aI0
aa(lp679
I37585
aI2
aa(lp680
I37596
aI0
aa(lp681
I37596
aI1
aa(lp682
I37596
aI4
aa(lp683
I37729
aI1
aa(lp684
I37729
aI2
aa(lp685
I37729
aI3
aa(lp686
I37729
aI4
aa(lp687
I37861
aI1
aa(lp688
I37879
aI0
aa(lp689
I38054
aI4
aa(lp690
I38085
aI0
aa(lp691
I38085
aI2
aa(lp692
I38367
aI3
aa(lp693
I38519
aI2
aa(lp694
I38643
aI1
aa(lp695
I38643
aI2
aa(lp696
I38643
aI3
aa(lp697
I38668
aI2
aa(lp698
I38679
aI3
aa(lp699
I38776
aI1
aa(lp700
I38776
aI3
aa(lp701
I38852
aI0
aa(lp702
I38857
aI0
aa(lp703
I38857
aI4
aa(lp704
I38900
aI1
aa(lp705
I38928
aI0
aa(lp706
I38928
aI1
aa(lp707
I38928
aI2
aa(lp708
I38928
aI3
aa(lp709
I38928
aI4
aa(lp710
I39169
aI1
aa(lp711
I39244
aI1
aa(lp712
I39271
aI0
aa(lp713
I39281
aI1
aa(lp714
I39375
aI3
aa(lp715
I39375
aI4
aa(lp716
I39380
aI4
aa(lp717
I39473
aI4
aa(lp718
I39567
aI1
aa(lp719
I39567
aI3
aa(lp720
I39710
aI3
aa(lp721
I39817
aI0
aa(lp722
I39886
aI0
aa(lp723
I40103
aI0
aa(lp724
I40103
aI1
aa(lp725
I40103
aI2
aa(lp726
I40103
aI3
aa(lp727
I40103
aI4
aa(lp728
I40218
aI0
aa(lp729
I40331
aI0
aa(lp730
I40416
aI3
aa(lp731
I40416
aI4
aa.