(lp0
(lp1
I46
aI0
aa(lp2
I46
aI1
aa(lp3
I46
aI2
aa(lp4
I46
aI3
aa(lp5
I46
aI4
aa(lp6
I52
aI0
aa(lp7
I52
aI1
aa(lp8
I52
aI2
aa(lp9
I52
aI3
aa(lp10
I52
aI4
aa(lp11
I157
aI0
aa(lp12
I157
aI2
aa(lp13
I157
aI3
aa(lp14
I157
aI4
aa(lp15
I167
aI0
aa(lp16
I167
aI1
aa(lp17
I167
aI2
aa(lp18
I167
aI3
aa(lp19
I167
aI4
aa(lp20
I168
aI0
aa(lp21
I168
aI2
aa(lp22
I186
aI4
aa(lp23
I367
aI0
aa(lp24
I367
aI1
aa(lp25
I367
aI2
aa(lp26
I367
aI4
aa(lp27
I381
aI0
aa(lp28
I396
aI0
aa(lp29
I396
aI1
aa(lp30
I396
aI2
aa(lp31
I396
aI3
aa(lp32
I396
aI4
aa(lp33
I410
aI0
aa(lp34
I410
aI1
aa(lp35
I410
aI3
aa(lp36
I410
aI4
aa(lp37
I505
aI0
aa(lp38
I505
aI1
aa(lp39
I505
aI2
aa(lp40
I505
aI3
aa(lp41
I505
aI4
aa(lp42
I528
aI1
aa(lp43
I528
aI2
aa(lp44
I528
aI4
aa(lp45
I602
aI1
aa(lp46
I667
aI1
aa(lp47
I777
aI0
aa(lp48
I777
aI1
aa(lp49
I777
aI2
aa(lp50
I777
aI3
aa(lp51
I777
aI4
aa(lp52
I799
aI0
aa(lp53
I799
aI2
aa(lp54
I799
aI3
aa(lp55
I799
aI4
aa(lp56
I951
aI4
aa(lp57
I1227
aI0
aa(lp58
I1227
aI1
aa(lp59
I1227
aI2
aa(lp60
I1227
aI3
aa(lp61
I1227
aI4
aa(lp62
I1374
aI1
aa(lp63
I1374
aI2
aa(lp64
I1374
aI3
aa(lp65
I1374
aI4
aa(lp66
I1390
aI0
aa(lp67
I1390
aI1
aa(lp68
I1390
aI2
aa(lp69
I1390
aI3
aa(lp70
I1390
aI4
aa(lp71
I1415
aI0
aa(lp72
I1415
aI1
aa(lp73
I1415
aI2
aa(lp74
I1415
aI3
aa(lp75
I1415
aI4
aa(lp76
I1421
aI0
aa(lp77
I1421
aI1
aa(lp78
I1421
aI3
aa(lp79
I1437
aI0
aa(lp80
I1437
aI4
aa(lp81
I1615
aI0
aa(lp82
I1615
aI1
aa(lp83
I1615
aI2
aa(lp84
I1615
aI3
aa(lp85
I1615
aI4
aa(lp86
I1722
aI0
aa(lp87
I1722
aI1
aa(lp88
I1722
aI2
aa(lp89
I1722
aI3
aa(lp90
I1722
aI4
aa(lp91
I1831
aI0
aa(lp92
I1831
aI1
aa(lp93
I1831
aI2
aa(lp94
I1831
aI3
aa(lp95
I1935
aI0
aa(lp96
I1935
aI1
aa(lp97
I1935
aI2
aa(lp98
I1935
aI3
aa(lp99
I1935
aI4
aa(lp100
I1981
aI3
aa(lp101
I1981
aI4
aa(lp102
I2091
aI0
aa(lp103
I2091
aI1
aa(lp104
I2091
aI2
aa(lp105
I2091
aI3
aa(lp106
I2091
aI4
aa(lp107
I2200
aI0
aa(lp108
I2200
aI1
aa(lp109
I2200
aI2
aa(lp110
I2200
aI3
aa(lp111
I2200
aI4
aa(lp112
I2275
aI1
aa(lp113
I2275
aI2
aa(lp114
I2275
aI3
aa(lp115
I2275
aI4
aa(lp116
I2449
aI0
aa(lp117
I2449
aI1
aa(lp118
I2449
aI2
aa(lp119
I2480
aI0
aa(lp120
I2480
aI1
aa(lp121
I2480
aI2
aa(lp122
I2480
aI3
aa(lp123
I2480
aI4
aa(lp124
I2521
aI0
aa(lp125
I2521
aI1
aa(lp126
I2521
aI2
aa(lp127
I2521
aI3
aa(lp128
I2521
aI4
aa(lp129
I2596
aI0
aa(lp130
I2596
aI1
aa(lp131
I2596
aI2
aa(lp132
I2596
aI3
aa(lp133
I2596
aI4
aa(lp134
I2710
aI0
aa(lp135
I2710
aI1
aa(lp136
I2710
aI2
aa(lp137
I2710
aI3
aa(lp138
I2830
aI1
aa(lp139
I2830
aI3
aa(lp140
I2830
aI4
aa(lp141
I2973
aI0
aa(lp142
I2973
aI1
aa(lp143
I2973
aI2
aa(lp144
I2973
aI3
aa(lp145
I2973
aI4
aa(lp146
I3337
aI1
aa(lp147
I3496
aI0
aa(lp148
I3514
aI0
aa(lp149
I3514
aI1
aa(lp150
I3514
aI2
aa(lp151
I3514
aI3
aa(lp152
I3514
aI4
aa(lp153
I3594
aI0
aa(lp154
I3594
aI2
aa(lp155
I3594
aI4
aa(lp156
I3624
aI0
aa(lp157
I3624
aI1
aa(lp158
I3624
aI2
aa(lp159
I3624
aI3
aa(lp160
I3624
aI4
aa(lp161
I3753
aI0
aa(lp162
I3753
aI1
aa(lp163
I3753
aI2
aa(lp164
I3753
aI3
aa(lp165
I3753
aI4
aa(lp166
I3758
aI0
aa(lp167
I3895
aI2
aa(lp168
I3972
aI1
aa(lp169
I3972
aI2
aa(lp170
I3972
aI3
aa(lp171
I3972
aI4
aa(lp172
I4049
aI0
aa(lp173
I4049
aI1
aa(lp174
I4049
aI2
aa(lp175
I4049
aI3
aa(lp176
I4049
aI4
aa(lp177
I4104
aI0
aa(lp178
I4104
aI2
aa(lp179
I4104
aI3
aa(lp180
I4104
aI4
aa(lp181
I4202
aI0
aa(lp182
I4202
aI1
aa(lp183
I4202
aI2
aa(lp184
I4202
aI4
aa(lp185
I4634
aI0
aa(lp186
I4634
aI3
aa(lp187
I4634
aI4
aa(lp188
I4666
aI0
aa(lp189
I4666
aI1
aa(lp190
I4666
aI2
aa(lp191
I4666
aI3
aa(lp192
I4666
aI4
aa(lp193
I4805
aI1
aa(lp194
I4805
aI2
aa(lp195
I4866
aI0
aa(lp196
I4866
aI1
aa(lp197
I5015
aI0
aa(lp198
I5015
aI1
aa(lp199
I5015
aI2
aa(lp200
I5015
aI3
aa(lp201
I5015
aI4
aa(lp202
I5049
aI1
aa(lp203
I5118
aI0
aa(lp204
I5118
aI1
aa(lp205
I5118
aI2
aa(lp206
I5118
aI3
aa(lp207
I5118
aI4
aa(lp208
I5122
aI3
aa(lp209
I5174
aI1
aa(lp210
I5174
aI2
aa(lp211
I5174
aI3
aa(lp212
I5174
aI4
aa(lp213
I5467
aI1
aa(lp214
I5467
aI4
aa(lp215
I5543
aI0
aa(lp216
I5543
aI1
aa(lp217
I5543
aI2
aa(lp218
I5543
aI3
aa(lp219
I5543
aI4
aa(lp220
I5546
aI0
aa(lp221
I5546
aI1
aa(lp222
I5546
aI2
aa(lp223
I5546
aI3
aa(lp224
I5546
aI4
aa(lp225
I5613
aI1
aa(lp226
I5613
aI2
aa(lp227
I5613
aI3
aa(lp228
I5613
aI4
aa(lp229
I5670
aI0
aa(lp230
I5670
aI1
aa(lp231
I5670
aI2
aa(lp232
I5670
aI3
aa(lp233
I5670
aI4
aa(lp234
I5750
aI0
aa(lp235
I5750
aI1
aa(lp236
I5750
aI2
aa(lp237
I5750
aI3
aa(lp238
I5983
aI0
aa(lp239
I5983
aI1
aa(lp240
I5983
aI2
aa(lp241
I5983
aI3
aa(lp242
I5983
aI4
aa(lp243
I5986
aI0
aa(lp244
I5986
aI1
aa(lp245
I5986
aI2
aa(lp246
I5986
aI3
aa(lp247
I5986
aI4
aa(lp248
I5987
aI3
aa(lp249
I6246
aI0
aa(lp250
I6246
aI1
aa(lp251
I6246
aI2
aa(lp252
I6246
aI3
aa(lp253
I6246
aI4
aa(lp254
I6367
aI0
aa(lp255
I6367
aI1
aa(lp256
I6367
aI2
aa(lp257
I6367
aI3
aa(lp258
I6367
aI4
aa(lp259
I6490
aI0
aa(lp260
I6490
aI1
aa(lp261
I6490
aI2
aa(lp262
I6490
aI3
aa(lp263
I6490
aI4
aa(lp264
I6511
aI0
aa(lp265
I6511
aI1
aa(lp266
I6511
aI3
aa(lp267
I6511
aI4
aa(lp268
I6534
aI0
aa(lp269
I6534
aI2
aa(lp270
I6534
aI3
aa(lp271
I6534
aI4
aa(lp272
I6548
aI0
aa(lp273
I6548
aI2
aa(lp274
I6548
aI4
aa(lp275
I6652
aI0
aa(lp276
I6652
aI1
aa(lp277
I6652
aI2
aa(lp278
I6652
aI3
aa(lp279
I6652
aI4
aa(lp280
I6678
aI1
aa(lp281
I6678
aI2
aa(lp282
I6678
aI3
aa(lp283
I6678
aI4
aa(lp284
I6916
aI0
aa(lp285
I6916
aI1
aa(lp286
I6916
aI2
aa(lp287
I6916
aI3
aa(lp288
I6916
aI4
aa(lp289
I7264
aI0
aa(lp290
I7264
aI2
aa(lp291
I7264
aI3
aa(lp292
I7264
aI4
aa(lp293
I7378
aI0
aa(lp294
I7378
aI1
aa(lp295
I7378
aI2
aa(lp296
I7378
aI3
aa(lp297
I7388
aI1
aa(lp298
I7388
aI2
aa(lp299
I7388
aI3
aa(lp300
I7388
aI4
aa(lp301
I7529
aI0
aa(lp302
I7529
aI1
aa(lp303
I7529
aI2
aa(lp304
I7529
aI4
aa(lp305
I7569
aI0
aa(lp306
I7569
aI1
aa(lp307
I7569
aI2
aa(lp308
I7569
aI3
aa(lp309
I7569
aI4
aa(lp310
I7575
aI1
aa(lp311
I7575
aI2
aa(lp312
I7575
aI3
aa(lp313
I7575
aI4
aa(lp314
I7698
aI0
aa(lp315
I7698
aI1
aa(lp316
I7698
aI2
aa(lp317
I7744
aI0
aa(lp318
I7744
aI1
aa(lp319
I7744
aI2
aa(lp320
I7744
aI3
aa(lp321
I7744
aI4
aa(lp322
I7888
aI1
aa(lp323
I7888
aI2
aa(lp324
I7888
aI3
aa(lp325
I7888
aI4
aa(lp326
I7998
aI0
aa(lp327
I7998
aI1
aa(lp328
I7998
aI2
aa(lp329
I7998
aI4
aa(lp330
I8006
aI0
aa(lp331
I8006
aI2
aa(lp332
I8006
aI4
aa(lp333
I8234
aI1
aa(lp334
I8234
aI2
aa(lp335
I8234
aI3
aa(lp336
I8240
aI0
aa(lp337
I8240
aI1
aa(lp338
I8240
aI2
aa(lp339
I8240
aI3
aa(lp340
I8240
aI4
aa(lp341
I8280
aI0
aa(lp342
I8280
aI1
aa(lp343
I8280
aI2
aa(lp344
I8280
aI3
aa(lp345
I8280
aI4
aa(lp346
I8307
aI0
aa(lp347
I8307
aI1
aa(lp348
I8307
aI2
aa(lp349
I8307
aI3
aa(lp350
I8510
aI0
aa(lp351
I8510
aI1
aa(lp352
I8510
aI2
aa(lp353
I8510
aI3
aa(lp354
I8549
aI0
aa(lp355
I8549
aI1
aa(lp356
I8549
aI4
aa(lp357
I8593
aI0
aa(lp358
I8593
aI1
aa(lp359
I8593
aI2
aa(lp360
I8593
aI3
aa(lp361
I8593
aI4
aa(lp362
I8738
aI0
aa(lp363
I8738
aI2
aa(lp364
I8738
aI3
aa(lp365
I8738
aI4
aa(lp366
I8872
aI0
aa(lp367
I8872
aI1
aa(lp368
I8872
aI2
aa(lp369
I8872
aI3
aa(lp370
I8872
aI4
aa(lp371
I8976
aI0
aa(lp372
I8976
aI1
aa(lp373
I8976
aI2
aa(lp374
I8976
aI3
aa(lp375
I8976
aI4
aa(lp376
I9063
aI0
aa(lp377
I9063
aI3
aa(lp378
I9063
aI4
aa(lp379
I9087
aI0
aa(lp380
I9087
aI2
aa(lp381
I9087
aI4
aa(lp382
I9279
aI3
aa(lp383
I9293
aI0
aa(lp384
I9293
aI1
aa(lp385
I9293
aI2
aa(lp386
I9293
aI3
aa(lp387
I9293
aI4
aa(lp388
I9367
aI0
aa(lp389
I9367
aI1
aa(lp390
I9367
aI2
aa(lp391
I9367
aI3
aa(lp392
I9367
aI4
aa(lp393
I9520
aI0
aa(lp394
I9520
aI1
aa(lp395
I9520
aI2
aa(lp396
I9520
aI3
aa(lp397
I9520
aI4
aa(lp398
I9569
aI1
aa(lp399
I9763
aI0
aa(lp400
I9763
aI1
aa(lp401
I9763
aI3
aa(lp402
I9763
aI4
aa(lp403
I9807
aI0
aa(lp404
I9807
aI2
aa(lp405
I9807
aI3
aa(lp406
I9807
aI4
aa(lp407
I9954
aI0
aa(lp408
I9954
aI2
aa(lp409
I9954
aI4
aa(lp410
I10078
aI0
aa(lp411
I10078
aI1
aa(lp412
I10078
aI2
aa(lp413
I10078
aI3
aa(lp414
I10078
aI4
aa(lp415
I10150
aI1
aa(lp416
I10150
aI2
aa(lp417
I10150
aI4
aa(lp418
I10173
aI3
aa(lp419
I10453
aI0
aa(lp420
I10453
aI1
aa(lp421
I10453
aI2
aa(lp422
I10453
aI3
aa(lp423
I10453
aI4
aa(lp424
I10498
aI0
aa(lp425
I10498
aI1
aa(lp426
I10498
aI2
aa(lp427
I10498
aI3
aa(lp428
I10498
aI4
aa(lp429
I10516
aI0
aa(lp430
I10516
aI1
aa(lp431
I10516
aI2
aa(lp432
I10516
aI4
aa(lp433
I10585
aI0
aa(lp434
I10585
aI3
aa(lp435
I10887
aI0
aa(lp436
I10887
aI1
aa(lp437
I10887
aI2
aa(lp438
I10887
aI3
aa(lp439
I10887
aI4
aa(lp440
I10976
aI0
aa(lp441
I10976
aI1
aa(lp442
I10976
aI2
aa(lp443
I10976
aI3
aa(lp444
I10976
aI4
aa(lp445
I11097
aI0
aa(lp446
I11097
aI1
aa(lp447
I11097
aI2
aa(lp448
I11097
aI3
aa(lp449
I11097
aI4
aa(lp450
I11188
aI3
aa(lp451
I11188
aI4
aa(lp452
I11343
aI0
aa(lp453
I11343
aI2
aa(lp454
I11343
aI3
aa(lp455
I11343
aI4
aa(lp456
I11365
aI0
aa(lp457
I11365
aI2
aa(lp458
I11365
aI3
aa(lp459
I11365
aI4
aa(lp460
I11431
aI0
aa(lp461
I11431
aI1
aa(lp462
I11431
aI2
aa(lp463
I11431
aI3
aa(lp464
I11431
aI4
aa(lp465
I11464
aI0
aa(lp466
I11464
aI1
aa(lp467
I11464
aI4
aa(lp468
I11522
aI0
aa(lp469
I11522
aI1
aa(lp470
I11522
aI2
aa(lp471
I11522
aI3
aa(lp472
I11522
aI4
aa(lp473
I11572
aI1
aa(lp474
I11766
aI0
aa(lp475
I11766
aI1
aa(lp476
I11766
aI2
aa(lp477
I11766
aI3
aa(lp478
I11766
aI4
aa(lp479
I12029
aI1
aa(lp480
I12029
aI3
aa(lp481
I12172
aI0
aa(lp482
I12172
aI1
aa(lp483
I12172
aI2
aa(lp484
I12172
aI4
aa(lp485
I12449
aI0
aa(lp486
I12449
aI1
aa(lp487
I12449
aI2
aa(lp488
I12449
aI3
aa(lp489
I12449
aI4
aa(lp490
I12480
aI0
aa(lp491
I12480
aI1
aa(lp492
I12480
aI2
aa(lp493
I12480
aI3
aa(lp494
I12480
aI4
aa(lp495
I12747
aI3
aa(lp496
I12747
aI4
aa(lp497
I12762
aI0
aa(lp498
I12762
aI1
aa(lp499
I12762
aI2
aa(lp500
I12762
aI3
aa(lp501
I12762
aI4
aa(lp502
I12824
aI0
aa(lp503
I12824
aI1
aa(lp504
I12824
aI2
aa(lp505
I12824
aI3
aa(lp506
I12984
aI0
aa(lp507
I13072
aI0
aa(lp508
I13072
aI2
aa(lp509
I13199
aI4
aa(lp510
I13241
aI0
aa(lp511
I13241
aI1
aa(lp512
I13241
aI2
aa(lp513
I13241
aI3
aa(lp514
I13241
aI4
aa(lp515
I13335
aI0
aa(lp516
I13335
aI1
aa(lp517
I13335
aI2
aa(lp518
I13335
aI3
aa(lp519
I13335
aI4
aa(lp520
I13437
aI0
aa(lp521
I13437
aI1
aa(lp522
I13437
aI2
aa(lp523
I13437
aI3
aa(lp524
I13437
aI4
aa(lp525
I13598
aI0
aa(lp526
I13598
aI1
aa(lp527
I13598
aI2
aa(lp528
I14170
aI0
aa(lp529
I14170
aI1
aa(lp530
I14170
aI2
aa(lp531
I14170
aI4
aa(lp532
I14194
aI0
aa(lp533
I14194
aI1
aa(lp534
I14194
aI2
aa(lp535
I14194
aI3
aa(lp536
I14194
aI4
aa(lp537
I14251
aI0
aa(lp538
I14251
aI1
aa(lp539
I14251
aI2
aa(lp540
I14251
aI3
aa(lp541
I14251
aI4
aa(lp542
I14306
aI0
aa(lp543
I14306
aI1
aa(lp544
I14306
aI2
aa(lp545
I14306
aI3
aa(lp546
I14306
aI4
aa(lp547
I14348
aI0
aa(lp548
I14348
aI1
aa(lp549
I14348
aI4
aa(lp550
I14422
aI1
aa(lp551
I14422
aI2
aa(lp552
I14422
aI4
aa(lp553
I14428
aI0
aa(lp554
I14428
aI1
aa(lp555
I14428
aI2
aa(lp556
I14428
aI3
aa(lp557
I14428
aI4
aa(lp558
I14533
aI0
aa(lp559
I14533
aI1
aa(lp560
I14533
aI2
aa(lp561
I14533
aI4
aa(lp562
I14534
aI0
aa(lp563
I14534
aI1
aa(lp564
I14534
aI3
aa(lp565
I14534
aI4
aa(lp566
I14564
aI0
aa(lp567
I14564
aI1
aa(lp568
I14564
aI2
aa(lp569
I14564
aI3
aa(lp570
I14564
aI4
aa(lp571
I14800
aI1
aa(lp572
I15048
aI1
aa(lp573
I15048
aI3
aa(lp574
I15048
aI4
aa(lp575
I15072
aI2
aa(lp576
I15082
aI2
aa(lp577
I15082
aI3
aa(lp578
I15224
aI0
aa(lp579
I15224
aI1
aa(lp580
I15224
aI2
aa(lp581
I15224
aI3
aa(lp582
I15224
aI4
aa(lp583
I15282
aI0
aa(lp584
I15282
aI1
aa(lp585
I15282
aI3
aa(lp586
I15282
aI4
aa(lp587
I15378
aI0
aa(lp588
I15378
aI1
aa(lp589
I15378
aI2
aa(lp590
I15378
aI3
aa(lp591
I15378
aI4
aa(lp592
I15382
aI0
aa(lp593
I15382
aI1
aa(lp594
I15382
aI2
aa(lp595
I15382
aI3
aa(lp596
I15382
aI4
aa(lp597
I15544
aI0
aa(lp598
I15544
aI1
aa(lp599
I15544
aI2
aa(lp600
I15544
aI3
aa(lp601
I15544
aI4
aa(lp602
I15590
aI2
aa(lp603
I15590
aI3
aa(lp604
I15591
aI0
aa(lp605
I15591
aI1
aa(lp606
I15591
aI4
aa(lp607
I15796
aI0
aa(lp608
I15999
aI1
aa(lp609
I15999
aI2
aa(lp610
I15999
aI4
aa(lp611
I16002
aI0
aa(lp612
I16002
aI1
aa(lp613
I16002
aI2
aa(lp614
I16002
aI3
aa(lp615
I16002
aI4
aa(lp616
I16066
aI0
aa(lp617
I16066
aI1
aa(lp618
I16066
aI2
aa(lp619
I16066
aI3
aa(lp620
I16066
aI4
aa(lp621
I16085
aI1
aa(lp622
I16085
aI2
aa(lp623
I16085
aI3
aa(lp624
I16085
aI4
aa(lp625
I16096
aI0
aa(lp626
I16096
aI1
aa(lp627
I16096
aI2
aa(lp628
I16096
aI3
aa(lp629
I16331
aI0
aa(lp630
I16331
aI1
aa(lp631
I16331
aI2
aa(lp632
I16331
aI3
aa(lp633
I16331
aI4
aa(lp634
I16427
aI1
aa(lp635
I16427
aI2
aa(lp636
I16427
aI3
aa(lp637
I16462
aI0
aa(lp638
I16462
aI1
aa(lp639
I16462
aI2
aa(lp640
I16462
aI3
aa(lp641
I16462
aI4
aa(lp642
I16733
aI0
aa(lp643
I16733
aI3
aa(lp644
I16770
aI0
aa(lp645
I16770
aI2
aa(lp646
I16770
aI3
aa(lp647
I16770
aI4
aa(lp648
I16904
aI2
aa(lp649
I16904
aI3
aa(lp650
I16958
aI0
aa(lp651
I16958
aI1
aa(lp652
I16958
aI2
aa(lp653
I16958
aI3
aa(lp654
I17088
aI0
aa(lp655
I17088
aI1
aa(lp656
I17088
aI2
aa(lp657
I17088
aI3
aa(lp658
I17088
aI4
aa(lp659
I17305
aI0
aa(lp660
I17305
aI1
aa(lp661
I17305
aI2
aa(lp662
I17305
aI3
aa(lp663
I17305
aI4
aa(lp664
I17398
aI0
aa(lp665
I17398
aI1
aa(lp666
I17398
aI2
aa(lp667
I17398
aI3
aa(lp668
I17398
aI4
aa(lp669
I17562
aI0
aa(lp670
I17562
aI3
aa(lp671
I17562
aI4
aa(lp672
I17776
aI2
aa(lp673
I17776
aI3
aa(lp674
I17881
aI0
aa(lp675
I17881
aI1
aa(lp676
I17881
aI2
aa(lp677
I17881
aI3
aa(lp678
I17881
aI4
aa(lp679
I17938
aI0
aa(lp680
I17938
aI1
aa(lp681
I17938
aI2
aa(lp682
I17938
aI3
aa(lp683
I18119
aI3
aa(lp684
I18119
aI4
aa(lp685
I18214
aI3
aa(lp686
I18220
aI0
aa(lp687
I18220
aI1
aa(lp688
I18220
aI3
aa(lp689
I18220
aI4
aa(lp690
I18293
aI4
aa(lp691
I18363
aI2
aa(lp692
I18388
aI0
aa(lp693
I18388
aI2
aa(lp694
I18388
aI3
aa(lp695
I18449
aI0
aa(lp696
I18449
aI1
aa(lp697
I18449
aI2
aa(lp698
I18449
aI3
aa(lp699
I18449
aI4
aa(lp700
I18627
aI0
aa(lp701
I18627
aI1
aa(lp702
I18627
aI2
aa(lp703
I18627
aI3
aa(lp704
I18627
aI4
aa(lp705
I18648
aI0
aa(lp706
I18648
aI1
aa(lp707
I18648
aI2
aa(lp708
I18648
aI3
aa(lp709
I18648
aI4
aa(lp710
I18934
aI0
aa(lp711
I18934
aI1
aa(lp712
I18934
aI3
aa(lp713
I18934
aI4
aa(lp714
I19010
aI0
aa(lp715
I19010
aI1
aa(lp716
I19010
aI2
aa(lp717
I19010
aI3
aa(lp718
I19010
aI4
aa(lp719
I19464
aI0
aa(lp720
I19464
aI3
aa(lp721
I19699
aI2
aa(lp722
I19699
aI4
aa(lp723
I19815
aI0
aa(lp724
I19815
aI1
aa(lp725
I19815
aI2
aa(lp726
I19815
aI3
aa(lp727
I19815
aI4
aa(lp728
I19865
aI1
aa(lp729
I19865
aI3
aa(lp730
I19923
aI0
aa(lp731
I19923
aI2
aa(lp732
I19923
aI3
aa(lp733
I19923
aI4
aa(lp734
I20019
aI0
aa(lp735
I20019
aI1
aa(lp736
I20019
aI2
aa(lp737
I20019
aI4
aa(lp738
I20021
aI3
aa(lp739
I20057
aI0
aa(lp740
I20057
aI1
aa(lp741
I20057
aI2
aa(lp742
I20057
aI3
aa(lp743
I20057
aI4
aa(lp744
I20258
aI0
aa(lp745
I20258
aI1
aa(lp746
I20258
aI2
aa(lp747
I20258
aI3
aa(lp748
I20258
aI4
aa(lp749
I20329
aI0
aa(lp750
I20329
aI1
aa(lp751
I20329
aI2
aa(lp752
I20329
aI3
aa(lp753
I20329
aI4
aa(lp754
I20420
aI0
aa(lp755
I20420
aI1
aa(lp756
I20420
aI2
aa(lp757
I20420
aI3
aa(lp758
I20420
aI4
aa(lp759
I20495
aI0
aa(lp760
I20884
aI0
aa(lp761
I20884
aI2
aa(lp762
I20884
aI3
aa(lp763
I20897
aI0
aa(lp764
I20897
aI1
aa(lp765
I20897
aI2
aa(lp766
I20897
aI3
aa(lp767
I20897
aI4
aa(lp768
I20943
aI0
aa(lp769
I20943
aI1
aa(lp770
I20943
aI2
aa(lp771
I20963
aI0
aa(lp772
I20963
aI1
aa(lp773
I20963
aI2
aa(lp774
I20963
aI3
aa(lp775
I20963
aI4
aa(lp776
I21015
aI0
aa(lp777
I21015
aI1
aa(lp778
I21015
aI2
aa(lp779
I21015
aI3
aa(lp780
I21015
aI4
aa(lp781
I21035
aI0
aa(lp782
I21035
aI1
aa(lp783
I21035
aI2
aa(lp784
I21035
aI3
aa(lp785
I21035
aI4
aa(lp786
I21279
aI0
aa(lp787
I21279
aI2
aa(lp788
I21279
aI3
aa(lp789
I21279
aI4
aa(lp790
I21327
aI0
aa(lp791
I21327
aI1
aa(lp792
I21327
aI2
aa(lp793
I21327
aI3
aa(lp794
I21334
aI0
aa(lp795
I21334
aI1
aa(lp796
I21334
aI2
aa(lp797
I21334
aI3
aa(lp798
I21334
aI4
aa(lp799
I21406
aI1
aa(lp800
I21406
aI2
aa(lp801
I21406
aI3
aa(lp802
I21406
aI4
aa(lp803
I21412
aI0
aa(lp804
I21412
aI1
aa(lp805
I21418
aI0
aa(lp806
I21418
aI2
aa(lp807
I21418
aI3
aa(lp808
I21556
aI1
aa(lp809
I21556
aI3
aa(lp810
I21652
aI0
aa(lp811
I21652
aI1
aa(lp812
I21652
aI2
aa(lp813
I21652
aI3
aa(lp814
I21652
aI4
aa(lp815
I21659
aI0
aa(lp816
I21659
aI4
aa(lp817
I21677
aI1
aa(lp818
I21677
aI2
aa(lp819
I21677
aI3
aa(lp820
I21677
aI4
aa(lp821
I21737
aI0
aa(lp822
I21737
aI1
aa(lp823
I21737
aI2
aa(lp824
I21737
aI3
aa(lp825
I21737
aI4
aa(lp826
I21835
aI1
aa(lp827
I21835
aI2
aa(lp828
I21835
aI3
aa(lp829
I21835
aI4
aa(lp830
I21859
aI0
aa(lp831
I21859
aI1
aa(lp832
I22131
aI0
aa(lp833
I22131
aI2
aa(lp834
I22131
aI3
aa(lp835
I22131
aI4
aa(lp836
I22150
aI1
aa(lp837
I22150
aI4
aa(lp838
I22220
aI0
aa(lp839
I22220
aI3
aa(lp840
I22220
aI4
aa(lp841
I22221
aI1
aa(lp842
I22221
aI4
aa(lp843
I22354
aI0
aa(lp844
I22354
aI1
aa(lp845
I22354
aI2
aa(lp846
I22354
aI4
aa(lp847
I22472
aI0
aa(lp848
I22472
aI1
aa(lp849
I22472
aI3
aa(lp850
I22472
aI4
aa(lp851
I22625
aI0
aa(lp852
I22625
aI1
aa(lp853
I22625
aI2
aa(lp854
I22625
aI3
aa(lp855
I22625
aI4
aa(lp856
I22939
aI0
aa(lp857
I22939
aI1
aa(lp858
I22939
aI2
aa(lp859
I22939
aI3
aa(lp860
I22939
aI4
aa(lp861
I22979
aI0
aa(lp862
I23112
aI0
aa(lp863
I23112
aI1
aa(lp864
I23112
aI2
aa(lp865
I23112
aI3
aa(lp866
I23112
aI4
aa(lp867
I23144
aI0
aa(lp868
I23144
aI1
aa(lp869
I23144
aI2
aa(lp870
I23397
aI0
aa(lp871
I23397
aI1
aa(lp872
I23397
aI2
aa(lp873
I23397
aI3
aa(lp874
I23397
aI4
aa(lp875
I23493
aI0
aa(lp876
I23493
aI1
aa(lp877
I23493
aI2
aa(lp878
I23493
aI3
aa(lp879
I23493
aI4
aa(lp880
I23529
aI0
aa(lp881
I23529
aI3
aa(lp882
I23621
aI1
aa(lp883
I23621
aI2
aa(lp884
I23621
aI4
aa(lp885
I23623
aI0
aa(lp886
I23623
aI1
aa(lp887
I23623
aI2
aa(lp888
I23623
aI3
aa(lp889
I23623
aI4
aa(lp890
I23678
aI0
aa(lp891
I23678
aI1
aa(lp892
I23678
aI2
aa(lp893
I23678
aI3
aa(lp894
I23678
aI4
aa(lp895
I23756
aI0
aa(lp896
I23756
aI1
aa(lp897
I23756
aI3
aa(lp898
I23756
aI4
aa(lp899
I23874
aI0
aa(lp900
I23874
aI1
aa(lp901
I23874
aI2
aa(lp902
I23874
aI3
aa(lp903
I24012
aI0
aa(lp904
I24012
aI1
aa(lp905
I24012
aI2
aa(lp906
I24012
aI3
aa(lp907
I24012
aI4
aa(lp908
I24013
aI0
aa(lp909
I24013
aI1
aa(lp910
I24013
aI2
aa(lp911
I24013
aI3
aa(lp912
I24013
aI4
aa(lp913
I24207
aI0
aa(lp914
I24207
aI1
aa(lp915
I24207
aI2
aa(lp916
I24207
aI3
aa(lp917
I24207
aI4
aa(lp918
I24211
aI0
aa(lp919
I24211
aI1
aa(lp920
I24211
aI2
aa(lp921
I24211
aI3
aa(lp922
I24300
aI0
aa(lp923
I24300
aI1
aa(lp924
I24300
aI2
aa(lp925
I24300
aI3
aa(lp926
I24300
aI4
aa(lp927
I24335
aI0
aa(lp928
I24364
aI1
aa(lp929
I24364
aI4
aa(lp930
I24381
aI0
aa(lp931
I24381
aI1
aa(lp932
I24381
aI2
aa(lp933
I24381
aI3
aa(lp934
I24381
aI4
aa(lp935
I24631
aI0
aa(lp936
I24631
aI4
aa(lp937
I24823
aI0
aa(lp938
I24826
aI0
aa(lp939
I24826
aI3
aa(lp940
I24826
aI4
aa(lp941
I24927
aI1
aa(lp942
I24927
aI2
aa(lp943
I24927
aI3
aa(lp944
I24927
aI4
aa(lp945
I25014
aI1
aa(lp946
I25014
aI2
aa(lp947
I25014
aI3
aa(lp948
I25014
aI4
aa(lp949
I25098
aI0
aa(lp950
I25098
aI1
aa(lp951
I25098
aI3
aa(lp952
I25098
aI4
aa(lp953
I25305
aI0
aa(lp954
I25305
aI1
aa(lp955
I25305
aI3
aa(lp956
I25305
aI4
aa(lp957
I25407
aI1
aa(lp958
I25407
aI2
aa(lp959
I25407
aI3
aa(lp960
I25407
aI4
aa(lp961
I25458
aI1
aa(lp962
I25458
aI3
aa(lp963
I25581
aI1
aa(lp964
I25581
aI3
aa(lp965
I25581
aI4
aa(lp966
I25602
aI1
aa(lp967
I25602
aI3
aa(lp968
I25769
aI0
aa(lp969
I25769
aI1
aa(lp970
I25769
aI2
aa(lp971
I25769
aI3
aa(lp972
I25769
aI4
aa(lp973
I25813
aI1
aa(lp974
I25883
aI0
aa(lp975
I25883
aI1
aa(lp976
I25883
aI2
aa(lp977
I25883
aI3
aa(lp978
I25883
aI4
aa(lp979
I25980
aI2
aa(lp980
I25980
aI3
aa(lp981
I25980
aI4
aa(lp982
I26122
aI0
aa(lp983
I26122
aI1
aa(lp984
I26122
aI2
aa(lp985
I26168
aI0
aa(lp986
I26168
aI2
aa(lp987
I26168
aI3
aa(lp988
I26168
aI4
aa(lp989
I26272
aI2
aa(lp990
I26467
aI0
aa(lp991
I26467
aI1
aa(lp992
I26467
aI2
aa(lp993
I26467
aI3
aa(lp994
I26467
aI4
aa(lp995
I26605
aI0
aa(lp996
I26605
aI1
aa(lp997
I26605
aI2
aa(lp998
I26605
aI3
aa(lp999
I26605
aI4
aa(lp1000
I26648
aI0
aa(lp1001
I26648
aI1
aa(lp1002
I26648
aI2
aa(lp1003
I26648
aI3
aa(lp1004
I26648
aI4
aa(lp1005
I26741
aI0
aa(lp1006
I26741
aI2
aa(lp1007
I26741
aI4
aa(lp1008
I26843
aI0
aa(lp1009
I26843
aI1
aa(lp1010
I26843
aI2
aa(lp1011
I26843
aI3
aa(lp1012
I26843
aI4
aa(lp1013
I26851
aI0
aa(lp1014
I26851
aI1
aa(lp1015
I26851
aI2
aa(lp1016
I26851
aI3
aa(lp1017
I26851
aI4
aa(lp1018
I26924
aI0
aa(lp1019
I26924
aI1
aa(lp1020
I26924
aI2
aa(lp1021
I26924
aI3
aa(lp1022
I26924
aI4
aa(lp1023
I27018
aI0
aa(lp1024
I27018
aI1
aa(lp1025
I27018
aI2
aa(lp1026
I27018
aI3
aa(lp1027
I27018
aI4
aa(lp1028
I27118
aI0
aa(lp1029
I27118
aI1
aa(lp1030
I27118
aI2
aa(lp1031
I27118
aI3
aa(lp1032
I27118
aI4
aa(lp1033
I27246
aI0
aa(lp1034
I27246
aI1
aa(lp1035
I27246
aI2
aa(lp1036
I27246
aI3
aa(lp1037
I27246
aI4
aa(lp1038
I27254
aI0
aa(lp1039
I27254
aI1
aa(lp1040
I27254
aI3
aa(lp1041
I27254
aI4
aa(lp1042
I27322
aI0
aa(lp1043
I27322
aI1
aa(lp1044
I27322
aI4
aa(lp1045
I27356
aI0
aa(lp1046
I27356
aI1
aa(lp1047
I27356
aI2
aa(lp1048
I27356
aI3
aa(lp1049
I27871
aI0
aa(lp1050
I27871
aI1
aa(lp1051
I27871
aI2
aa(lp1052
I27871
aI4
aa(lp1053
I27898
aI0
aa(lp1054
I27898
aI3
aa(lp1055
I27898
aI4
aa(lp1056
I28313
aI3
aa(lp1057
I28313
aI4
aa(lp1058
I28335
aI0
aa(lp1059
I28335
aI1
aa(lp1060
I28335
aI2
aa(lp1061
I28335
aI3
aa(lp1062
I28382
aI0
aa(lp1063
I28382
aI1
aa(lp1064
I28382
aI2
aa(lp1065
I28382
aI3
aa(lp1066
I28382
aI4
aa(lp1067
I28478
aI0
aa(lp1068
I28478
aI1
aa(lp1069
I28478
aI2
aa(lp1070
I28478
aI3
aa(lp1071
I28478
aI4
aa(lp1072
I28507
aI0
aa(lp1073
I28507
aI4
aa(lp1074
I28622
aI0
aa(lp1075
I28622
aI1
aa(lp1076
I28622
aI2
aa(lp1077
I28622
aI3
aa(lp1078
I28622
aI4
aa(lp1079
I28701
aI1
aa(lp1080
I28701
aI3
aa(lp1081
I28731
aI0
aa(lp1082
I28731
aI1
aa(lp1083
I28731
aI2
aa(lp1084
I28731
aI3
aa(lp1085
I28801
aI0
aa(lp1086
I28801
aI1
aa(lp1087
I28801
aI2
aa(lp1088
I29090
aI0
aa(lp1089
I29090
aI2
aa(lp1090
I29138
aI0
aa(lp1091
I29138
aI1
aa(lp1092
I29138
aI2
aa(lp1093
I29138
aI3
aa(lp1094
I29138
aI4
aa(lp1095
I29147
aI0
aa(lp1096
I29147
aI2
aa(lp1097
I29147
aI3
aa(lp1098
I29208
aI0
aa(lp1099
I29208
aI1
aa(lp1100
I29208
aI2
aa(lp1101
I29208
aI3
aa(lp1102
I29208
aI4
aa(lp1103
I29605
aI0
aa(lp1104
I29605
aI1
aa(lp1105
I29605
aI2
aa(lp1106
I29605
aI3
aa(lp1107
I29605
aI4
aa(lp1108
I29629
aI0
aa(lp1109
I29797
aI0
aa(lp1110
I29797
aI1
aa(lp1111
I29797
aI3
aa(lp1112
I29797
aI4
aa(lp1113
I29820
aI0
aa(lp1114
I29820
aI1
aa(lp1115
I29820
aI2
aa(lp1116
I29820
aI3
aa(lp1117
I29820
aI4
aa(lp1118
I30025
aI0
aa(lp1119
I30025
aI1
aa(lp1120
I30025
aI2
aa(lp1121
I30025
aI3
aa(lp1122
I30025
aI4
aa(lp1123
I30135
aI1
aa(lp1124
I30135
aI3
aa(lp1125
I30135
aI4
aa(lp1126
I30219
aI2
aa(lp1127
I30241
aI0
aa(lp1128
I30241
aI2
aa(lp1129
I30241
aI3
aa(lp1130
I30241
aI4
aa(lp1131
I30456
aI0
aa(lp1132
I30456
aI1
aa(lp1133
I30456
aI2
aa(lp1134
I30456
aI3
aa(lp1135
I30456
aI4
aa(lp1136
I30533
aI0
aa(lp1137
I30533
aI1
aa(lp1138
I30533
aI2
aa(lp1139
I30533
aI3
aa(lp1140
I30533
aI4
aa(lp1141
I30733
aI0
aa(lp1142
I30733
aI1
aa(lp1143
I30733
aI2
aa(lp1144
I30733
aI3
aa(lp1145
I30733
aI4
aa(lp1146
I30762
aI0
aa(lp1147
I30762
aI1
aa(lp1148
I30762
aI2
aa(lp1149
I30762
aI3
aa(lp1150
I30899
aI0
aa(lp1151
I30899
aI1
aa(lp1152
I30899
aI2
aa(lp1153
I30899
aI3
aa(lp1154
I30899
aI4
aa(lp1155
I31005
aI3
aa(lp1156
I31194
aI0
aa(lp1157
I31194
aI1
aa(lp1158
I31194
aI2
aa(lp1159
I31194
aI3
aa(lp1160
I31194
aI4
aa(lp1161
I31401
aI2
aa(lp1162
I31401
aI3
aa(lp1163
I31401
aI4
aa(lp1164
I31425
aI0
aa(lp1165
I31425
aI1
aa(lp1166
I31425
aI2
aa(lp1167
I31425
aI3
aa(lp1168
I31796
aI0
aa(lp1169
I31796
aI1
aa(lp1170
I31796
aI2
aa(lp1171
I31796
aI3
aa(lp1172
I31796
aI4
aa(lp1173
I31835
aI3
aa(lp1174
I31899
aI0
aa(lp1175
I31899
aI4
aa(lp1176
I31916
aI0
aa(lp1177
I31916
aI1
aa(lp1178
I31916
aI2
aa(lp1179
I31916
aI3
aa(lp1180
I31916
aI4
aa(lp1181
I32101
aI0
aa(lp1182
I32101
aI1
aa(lp1183
I32101
aI2
aa(lp1184
I32101
aI3
aa(lp1185
I32101
aI4
aa(lp1186
I32345
aI0
aa(lp1187
I32345
aI1
aa(lp1188
I32345
aI2
aa(lp1189
I32345
aI3
aa(lp1190
I32345
aI4
aa(lp1191
I32571
aI0
aa(lp1192
I32571
aI2
aa(lp1193
I32571
aI3
aa(lp1194
I32571
aI4
aa(lp1195
I32576
aI0
aa(lp1196
I32576
aI1
aa(lp1197
I32576
aI2
aa(lp1198
I32576
aI3
aa(lp1199
I32576
aI4
aa(lp1200
I32642
aI0
aa(lp1201
I32642
aI1
aa(lp1202
I32642
aI2
aa(lp1203
I32642
aI3
aa(lp1204
I32642
aI4
aa(lp1205
I32693
aI0
aa(lp1206
I32711
aI0
aa(lp1207
I32711
aI1
aa(lp1208
I32711
aI4
aa(lp1209
I32756
aI0
aa(lp1210
I32756
aI1
aa(lp1211
I32756
aI3
aa(lp1212
I32756
aI4
aa(lp1213
I32796
aI1
aa(lp1214
I32796
aI2
aa(lp1215
I32796
aI3
aa(lp1216
I32796
aI4
aa(lp1217
I32894
aI0
aa(lp1218
I32894
aI1
aa(lp1219
I32894
aI2
aa(lp1220
I32894
aI3
aa(lp1221
I32894
aI4
aa(lp1222
I32951
aI0
aa(lp1223
I32951
aI1
aa(lp1224
I32951
aI2
aa(lp1225
I32951
aI3
aa(lp1226
I32951
aI4
aa(lp1227
I33390
aI3
aa(lp1228
I33390
aI4
aa(lp1229
I33709
aI0
aa(lp1230
I34003
aI0
aa(lp1231
I34003
aI2
aa(lp1232
I34003
aI3
aa(lp1233
I34033
aI1
aa(lp1234
I34033
aI2
aa(lp1235
I34033
aI3
aa(lp1236
I34182
aI0
aa(lp1237
I34182
aI1
aa(lp1238
I34182
aI2
aa(lp1239
I34182
aI3
aa(lp1240
I34182
aI4
aa(lp1241
I34219
aI1
aa(lp1242
I34325
aI0
aa(lp1243
I34325
aI1
aa(lp1244
I34325
aI2
aa(lp1245
I34325
aI5
aa(lp1246
I34448
aI1
aa(lp1247
I34448
aI2
aa(lp1248
I34448
aI4
aa(lp1249
I34542
aI0
aa(lp1250
I34542
aI1
aa(lp1251
I34542
aI2
aa(lp1252
I34542
aI3
aa(lp1253
I34542
aI4
aa(lp1254
I34591
aI2
aa(lp1255
I34592
aI0
aa(lp1256
I34592
aI2
aa(lp1257
I34592
aI4
aa(lp1258
I34623
aI2
aa(lp1259
I34702
aI0
aa(lp1260
I34702
aI1
aa(lp1261
I34702
aI2
aa(lp1262
I34702
aI3
aa(lp1263
I34702
aI4
aa(lp1264
I34926
aI0
aa(lp1265
I34926
aI1
aa(lp1266
I34994
aI0
aa(lp1267
I34994
aI1
aa(lp1268
I34994
aI2
aa(lp1269
I34994
aI3
aa(lp1270
I34994
aI4
aa(lp1271
I35095
aI0
aa(lp1272
I35095
aI1
aa(lp1273
I35095
aI2
aa(lp1274
I35095
aI3
aa(lp1275
I35095
aI4
aa(lp1276
I35145
aI0
aa(lp1277
I35145
aI1
aa(lp1278
I35145
aI2
aa(lp1279
I35145
aI3
aa(lp1280
I35145
aI4
aa(lp1281
I35251
aI0
aa(lp1282
I35251
aI1
aa(lp1283
I35251
aI2
aa(lp1284
I35251
aI3
aa(lp1285
I35251
aI4
aa(lp1286
I35322
aI2
aa(lp1287
I35322
aI4
aa(lp1288
I35329
aI0
aa(lp1289
I35329
aI1
aa(lp1290
I35329
aI2
aa(lp1291
I35344
aI0
aa(lp1292
I35344
aI1
aa(lp1293
I35344
aI2
aa(lp1294
I35344
aI3
aa(lp1295
I35344
aI4
aa(lp1296
I35359
aI4
aa(lp1297
I35476
aI2
aa(lp1298
I35476
aI3
aa(lp1299
I35522
aI1
aa(lp1300
I35522
aI2
aa(lp1301
I35592
aI0
aa(lp1302
I35592
aI1
aa(lp1303
I35755
aI3
aa(lp1304
I35755
aI4
aa(lp1305
I35970
aI0
aa(lp1306
I35970
aI1
aa(lp1307
I35970
aI2
aa(lp1308
I35970
aI3
aa(lp1309
I35970
aI4
aa(lp1310
I36008
aI0
aa(lp1311
I36008
aI1
aa(lp1312
I36008
aI2
aa(lp1313
I36008
aI3
aa(lp1314
I36008
aI4
aa(lp1315
I36190
aI0
aa(lp1316
I36190
aI1
aa(lp1317
I36190
aI2
aa(lp1318
I36190
aI3
aa(lp1319
I36190
aI4
aa(lp1320
I36310
aI0
aa(lp1321
I36310
aI1
aa(lp1322
I36310
aI2
aa(lp1323
I36310
aI3
aa(lp1324
I36310
aI4
aa(lp1325
I36331
aI0
aa(lp1326
I36331
aI1
aa(lp1327
I36331
aI2
aa(lp1328
I36331
aI3
aa(lp1329
I36331
aI4
aa(lp1330
I36535
aI0
aa(lp1331
I36535
aI1
aa(lp1332
I36535
aI2
aa(lp1333
I36535
aI3
aa(lp1334
I36535
aI4
aa(lp1335
I36586
aI0
aa(lp1336
I36586
aI1
aa(lp1337
I36586
aI2
aa(lp1338
I36684
aI0
aa(lp1339
I36885
aI0
aa(lp1340
I36885
aI1
aa(lp1341
I36885
aI2
aa(lp1342
I36885
aI3
aa(lp1343
I36885
aI4
aa(lp1344
I36987
aI0
aa(lp1345
I36987
aI1
aa(lp1346
I36987
aI2
aa(lp1347
I36987
aI3
aa(lp1348
I37061
aI2
aa(lp1349
I37127
aI1
aa(lp1350
I37127
aI4
aa(lp1351
I37279
aI0
aa(lp1352
I37279
aI2
aa(lp1353
I37437
aI2
aa(lp1354
I37708
aI3
aa(lp1355
I37831
aI0
aa(lp1356
I37831
aI1
aa(lp1357
I37831
aI2
aa(lp1358
I37831
aI3
aa(lp1359
I37831
aI4
aa(lp1360
I38126
aI3
aa(lp1361
I38423
aI0
aa(lp1362
I38423
aI1
aa(lp1363
I38457
aI0
aa(lp1364
I38457
aI1
aa(lp1365
I38457
aI3
aa(lp1366
I38457
aI4
aa(lp1367
I38523
aI0
aa(lp1368
I38523
aI1
aa(lp1369
I38523
aI2
aa(lp1370
I38523
aI3
aa(lp1371
I38869
aI0
aa(lp1372
I38934
aI0
aa(lp1373
I38934
aI1
aa(lp1374
I38934
aI2
aa(lp1375
I38934
aI3
aa(lp1376
I38934
aI4
aa(lp1377
I39161
aI0
aa(lp1378
I39161
aI1
aa(lp1379
I39161
aI3
aa(lp1380
I39161
aI4
aa(lp1381
I39238
aI0
aa(lp1382
I39238
aI1
aa(lp1383
I39238
aI2
aa(lp1384
I39238
aI3
aa(lp1385
I39238
aI4
aa(lp1386
I39562
aI1
aa(lp1387
I39562
aI2
aa(lp1388
I39562
aI4
aa(lp1389
I39589
aI0
aa(lp1390
I39589
aI4
aa(lp1391
I39658
aI0
aa(lp1392
I39658
aI2
aa(lp1393
I39658
aI3
aa(lp1394
I39658
aI4
aa(lp1395
I39825
aI0
aa(lp1396
I39825
aI3
aa(lp1397
I39825
aI4
aa(lp1398
I39833
aI0
aa(lp1399
I39833
aI1
aa(lp1400
I39833
aI2
aa(lp1401
I39833
aI3
aa(lp1402
I39833
aI4
aa(lp1403
I39865
aI1
aa(lp1404
I39865
aI2
aa(lp1405
I39865
aI3
aa(lp1406
I39865
aI4
aa(lp1407
I39913
aI1
aa(lp1408
I39913
aI4
aa(lp1409
I40006
aI0
aa(lp1410
I40006
aI1
aa(lp1411
I40006
aI2
aa(lp1412
I40006
aI3
aa(lp1413
I40006
aI4
aa(lp1414
I40307
aI0
aa(lp1415
I40307
aI1
aa(lp1416
I40307
aI3
aa(lp1417
I40307
aI4
aa.