(lp0
(lp1
I4
aI0
aa(lp2
I4
aI1
aa(lp3
I4
aI3
aa(lp4
I4
aI4
aa(lp5
I123
aI1
aa(lp6
I123
aI3
aa(lp7
I153
aI0
aa(lp8
I153
aI1
aa(lp9
I153
aI2
aa(lp10
I153
aI4
aa(lp11
I295
aI0
aa(lp12
I295
aI1
aa(lp13
I295
aI2
aa(lp14
I295
aI3
aa(lp15
I295
aI4
aa(lp16
I316
aI2
aa(lp17
I316
aI4
aa(lp18
I334
aI1
aa(lp19
I334
aI2
aa(lp20
I334
aI3
aa(lp21
I334
aI4
aa(lp22
I337
aI3
aa(lp23
I337
aI4
aa(lp24
I345
aI0
aa(lp25
I345
aI1
aa(lp26
I345
aI3
aa(lp27
I345
aI4
aa(lp28
I390
aI0
aa(lp29
I390
aI1
aa(lp30
I390
aI2
aa(lp31
I390
aI3
aa(lp32
I390
aI4
aa(lp33
I395
aI3
aa(lp34
I402
aI0
aa(lp35
I421
aI2
aa(lp36
I421
aI3
aa(lp37
I433
aI3
aa(lp38
I511
aI0
aa(lp39
I511
aI2
aa(lp40
I511
aI3
aa(lp41
I542
aI0
aa(lp42
I542
aI2
aa(lp43
I542
aI3
aa(lp44
I542
aI4
aa(lp45
I578
aI0
aa(lp46
I578
aI1
aa(lp47
I578
aI2
aa(lp48
I578
aI3
aa(lp49
I578
aI4
aa(lp50
I604
aI1
aa(lp51
I604
aI2
aa(lp52
I604
aI4
aa(lp53
I636
aI0
aa(lp54
I636
aI1
aa(lp55
I636
aI3
aa(lp56
I636
aI4
aa(lp57
I647
aI0
aa(lp58
I647
aI1
aa(lp59
I647
aI2
aa(lp60
I647
aI3
aa(lp61
I647
aI4
aa(lp62
I648
aI0
aa(lp63
I648
aI1
aa(lp64
I648
aI2
aa(lp65
I648
aI3
aa(lp66
I648
aI4
aa(lp67
I652
aI1
aa(lp68
I652
aI4
aa(lp69
I658
aI0
aa(lp70
I658
aI3
aa(lp71
I658
aI4
aa(lp72
I733
aI0
aa(lp73
I764
aI0
aa(lp74
I764
aI1
aa(lp75
I764
aI2
aa(lp76
I770
aI1
aa(lp77
I770
aI2
aa(lp78
I770
aI3
aa(lp79
I770
aI4
aa(lp80
I892
aI0
aa(lp81
I892
aI1
aa(lp82
I892
aI2
aa(lp83
I892
aI4
aa(lp84
I898
aI0
aa(lp85
I898
aI1
aa(lp86
I898
aI2
aa(lp87
I898
aI4
aa(lp88
I926
aI1
aa(lp89
I926
aI2
aa(lp90
I926
aI3
aa(lp91
I926
aI4
aa(lp92
I936
aI0
aa(lp93
I936
aI1
aa(lp94
I936
aI2
aa(lp95
I936
aI3
aa(lp96
I936
aI4
aa(lp97
I942
aI0
aa(lp98
I942
aI1
aa(lp99
I942
aI2
aa(lp100
I942
aI3
aa(lp101
I942
aI4
aa(lp102
I991
aI3
aa(lp103
I991
aI4
aa(lp104
I1013
aI0
aa(lp105
I1013
aI1
aa(lp106
I1013
aI2
aa(lp107
I1013
aI3
aa(lp108
I1013
aI4
aa(lp109
I1085
aI1
aa(lp110
I1085
aI2
aa(lp111
I1097
aI2
aa(lp112
I1174
aI3
aa(lp113
I1174
aI4
aa(lp114
I1178
aI0
aa(lp115
I1178
aI4
aa(lp116
I1200
aI0
aa(lp117
I1200
aI1
aa(lp118
I1200
aI2
aa(lp119
I1200
aI3
aa(lp120
I1200
aI4
aa(lp121
I1228
aI0
aa(lp122
I1228
aI1
aa(lp123
I1228
aI2
aa(lp124
I1228
aI3
aa(lp125
I1228
aI4
aa(lp126
I1266
aI0
aa(lp127
I1266
aI1
aa(lp128
I1266
aI2
aa(lp129
I1266
aI3
aa(lp130
I1266
aI4
aa(lp131
I1364
aI0
aa(lp132
I1364
aI1
aa(lp133
I1364
aI2
aa(lp134
I1364
aI3
aa(lp135
I1364
aI4
aa(lp136
I1401
aI2
aa(lp137
I1401
aI4
aa(lp138
I1521
aI0
aa(lp139
I1545
aI0
aa(lp140
I1545
aI1
aa(lp141
I1545
aI2
aa(lp142
I1545
aI3
aa(lp143
I1545
aI4
aa(lp144
I1550
aI0
aa(lp145
I1550
aI2
aa(lp146
I1550
aI3
aa(lp147
I1592
aI2
aa(lp148
I1592
aI3
aa(lp149
I1652
aI0
aa(lp150
I1652
aI1
aa(lp151
I1652
aI2
aa(lp152
I1652
aI3
aa(lp153
I1652
aI4
aa(lp154
I1748
aI1
aa(lp155
I1748
aI2
aa(lp156
I1748
aI3
aa(lp157
I1759
aI0
aa(lp158
I1759
aI1
aa(lp159
I1759
aI2
aa(lp160
I1759
aI3
aa(lp161
I1759
aI4
aa(lp162
I1760
aI4
aa(lp163
I1764
aI0
aa(lp164
I1764
aI1
aa(lp165
I1764
aI4
aa(lp166
I1840
aI4
aa(lp167
I1870
aI0
aa(lp168
I1870
aI2
aa(lp169
I1870
aI3
aa(lp170
I1874
aI2
aa(lp171
I1874
aI3
aa(lp172
I1874
aI4
aa(lp173
I1932
aI0
aa(lp174
I1932
aI1
aa(lp175
I1932
aI2
aa(lp176
I1932
aI3
aa(lp177
I1932
aI4
aa(lp178
I1990
aI1
aa(lp179
I1990
aI2
aa(lp180
I1990
aI3
aa(lp181
I2006
aI0
aa(lp182
I2006
aI2
aa(lp183
I2006
aI4
aa(lp184
I2011
aI0
aa(lp185
I2011
aI1
aa(lp186
I2011
aI2
aa(lp187
I2011
aI3
aa(lp188
I2011
aI4
aa(lp189
I2031
aI0
aa(lp190
I2031
aI1
aa(lp191
I2031
aI2
aa(lp192
I2031
aI3
aa(lp193
I2031
aI4
aa(lp194
I2037
aI0
aa(lp195
I2037
aI1
aa(lp196
I2037
aI4
aa(lp197
I2066
aI0
aa(lp198
I2066
aI1
aa(lp199
I2066
aI2
aa(lp200
I2066
aI3
aa(lp201
I2066
aI4
aa(lp202
I2077
aI0
aa(lp203
I2077
aI2
aa(lp204
I2077
aI3
aa(lp205
I2077
aI4
aa(lp206
I2078
aI0
aa(lp207
I2078
aI1
aa(lp208
I2078
aI3
aa(lp209
I2156
aI0
aa(lp210
I2156
aI1
aa(lp211
I2156
aI3
aa(lp212
I2156
aI4
aa(lp213
I2281
aI2
aa(lp214
I2281
aI3
aa(lp215
I2281
aI4
aa(lp216
I2297
aI1
aa(lp217
I2297
aI2
aa(lp218
I2297
aI3
aa(lp219
I2297
aI4
aa(lp220
I2335
aI1
aa(lp221
I2335
aI2
aa(lp222
I2335
aI3
aa(lp223
I2335
aI4
aa(lp224
I2375
aI2
aa(lp225
I2375
aI3
aa(lp226
I2381
aI2
aa(lp227
I2381
aI4
aa(lp228
I2428
aI1
aa(lp229
I2428
aI3
aa(lp230
I2441
aI0
aa(lp231
I2441
aI1
aa(lp232
I2441
aI2
aa(lp233
I2441
aI3
aa(lp234
I2455
aI1
aa(lp235
I2455
aI2
aa(lp236
I2455
aI3
aa(lp237
I2455
aI4
aa(lp238
I2525
aI3
aa(lp239
I2550
aI1
aa(lp240
I2550
aI3
aa(lp241
I2553
aI3
aa(lp242
I2555
aI0
aa(lp243
I2555
aI1
aa(lp244
I2555
aI2
aa(lp245
I2555
aI3
aa(lp246
I2565
aI0
aa(lp247
I2565
aI1
aa(lp248
I2565
aI2
aa(lp249
I2565
aI3
aa(lp250
I2593
aI0
aa(lp251
I2593
aI1
aa(lp252
I2593
aI2
aa(lp253
I2593
aI3
aa(lp254
I2593
aI4
aa(lp255
I2632
aI0
aa(lp256
I2632
aI1
aa(lp257
I2632
aI3
aa(lp258
I2632
aI4
aa(lp259
I2650
aI0
aa(lp260
I2650
aI1
aa(lp261
I2650
aI2
aa(lp262
I2650
aI3
aa(lp263
I2653
aI0
aa(lp264
I2653
aI3
aa(lp265
I2653
aI4
aa(lp266
I2655
aI0
aa(lp267
I2655
aI1
aa(lp268
I2655
aI2
aa(lp269
I2655
aI3
aa(lp270
I2655
aI4
aa(lp271
I2755
aI0
aa(lp272
I2755
aI1
aa(lp273
I2755
aI2
aa(lp274
I2755
aI3
aa(lp275
I2755
aI4
aa(lp276
I2805
aI0
aa(lp277
I2805
aI1
aa(lp278
I2805
aI2
aa(lp279
I2805
aI3
aa(lp280
I2805
aI4
aa(lp281
I2815
aI0
aa(lp282
I2815
aI2
aa(lp283
I2815
aI3
aa(lp284
I2815
aI4
aa(lp285
I2819
aI0
aa(lp286
I2819
aI2
aa(lp287
I2819
aI3
aa(lp288
I2819
aI4
aa(lp289
I2870
aI0
aa(lp290
I2870
aI1
aa(lp291
I2870
aI2
aa(lp292
I2870
aI4
aa(lp293
I2899
aI0
aa(lp294
I2899
aI3
aa(lp295
I2899
aI4
aa(lp296
I2900
aI0
aa(lp297
I2900
aI1
aa(lp298
I2900
aI2
aa(lp299
I2900
aI3
aa(lp300
I2900
aI4
aa(lp301
I2902
aI1
aa(lp302
I2902
aI3
aa(lp303
I2909
aI1
aa(lp304
I2909
aI2
aa(lp305
I2917
aI4
aa(lp306
I2941
aI0
aa(lp307
I2941
aI4
aa(lp308
I2961
aI2
aa(lp309
I3002
aI0
aa(lp310
I3002
aI1
aa(lp311
I3002
aI2
aa(lp312
I3002
aI3
aa(lp313
I3002
aI4
aa(lp314
I3005
aI0
aa(lp315
I3005
aI1
aa(lp316
I3005
aI3
aa(lp317
I3005
aI4
aa(lp318
I3026
aI0
aa(lp319
I3026
aI1
aa(lp320
I3026
aI2
aa(lp321
I3026
aI3
aa(lp322
I3026
aI4
aa(lp323
I3035
aI0
aa(lp324
I3035
aI1
aa(lp325
I3035
aI2
aa(lp326
I3035
aI3
aa(lp327
I3035
aI4
aa(lp328
I3038
aI0
aa(lp329
I3040
aI1
aa(lp330
I3040
aI4
aa(lp331
I3043
aI0
aa(lp332
I3043
aI1
aa(lp333
I3043
aI2
aa(lp334
I3043
aI4
aa(lp335
I3062
aI0
aa(lp336
I3062
aI1
aa(lp337
I3062
aI2
aa(lp338
I3062
aI3
aa(lp339
I3062
aI4
aa(lp340
I3140
aI0
aa(lp341
I3140
aI2
aa(lp342
I3140
aI3
aa(lp343
I3202
aI0
aa(lp344
I3202
aI1
aa(lp345
I3202
aI2
aa(lp346
I3202
aI3
aa(lp347
I3225
aI0
aa(lp348
I3225
aI1
aa(lp349
I3225
aI2
aa(lp350
I3255
aI0
aa(lp351
I3255
aI1
aa(lp352
I3255
aI2
aa(lp353
I3255
aI4
aa(lp354
I3316
aI0
aa(lp355
I3316
aI1
aa(lp356
I3316
aI2
aa(lp357
I3316
aI3
aa(lp358
I3316
aI4
aa(lp359
I3332
aI0
aa(lp360
I3332
aI1
aa(lp361
I3332
aI3
aa(lp362
I3332
aI4
aa(lp363
I3503
aI0
aa(lp364
I3503
aI4
aa(lp365
I3505
aI0
aa(lp366
I3505
aI1
aa(lp367
I3505
aI3
aa(lp368
I3570
aI0
aa(lp369
I3570
aI1
aa(lp370
I3570
aI2
aa(lp371
I3570
aI3
aa(lp372
I3570
aI4
aa(lp373
I3585
aI1
aa(lp374
I3585
aI2
aa(lp375
I3585
aI3
aa(lp376
I3602
aI1
aa(lp377
I3636
aI1
aa(lp378
I3638
aI0
aa(lp379
I3638
aI1
aa(lp380
I3638
aI4
aa(lp381
I3685
aI0
aa(lp382
I3685
aI2
aa(lp383
I3703
aI0
aa(lp384
I3703
aI1
aa(lp385
I3703
aI2
aa(lp386
I3703
aI3
aa(lp387
I3720
aI0
aa(lp388
I3720
aI1
aa(lp389
I3720
aI2
aa(lp390
I3720
aI3
aa(lp391
I3720
aI4
aa(lp392
I3738
aI0
aa(lp393
I3738
aI1
aa(lp394
I3738
aI2
aa(lp395
I3738
aI3
aa(lp396
I3738
aI4
aa(lp397
I3762
aI0
aa(lp398
I3762
aI2
aa(lp399
I3762
aI4
aa(lp400
I3799
aI0
aa(lp401
I3799
aI1
aa(lp402
I3799
aI2
aa(lp403
I3799
aI4
aa(lp404
I3806
aI3
aa(lp405
I3806
aI4
aa(lp406
I3807
aI1
aa(lp407
I3807
aI2
aa(lp408
I3807
aI3
aa(lp409
I3825
aI0
aa(lp410
I3825
aI1
aa(lp411
I3825
aI3
aa(lp412
I3825
aI4
aa(lp413
I3923
aI0
aa(lp414
I3923
aI1
aa(lp415
I3923
aI2
aa(lp416
I3923
aI3
aa(lp417
I3923
aI4
aa(lp418
I3928
aI1
aa(lp419
I3928
aI3
aa(lp420
I3928
aI4
aa(lp421
I3955
aI4
aa(lp422
I3989
aI0
aa(lp423
I3989
aI1
aa(lp424
I3989
aI3
aa(lp425
I3989
aI4
aa(lp426
I4011
aI0
aa(lp427
I4011
aI2
aa(lp428
I4011
aI3
aa(lp429
I4011
aI4
aa(lp430
I4069
aI1
aa(lp431
I4069
aI2
aa(lp432
I4069
aI3
aa(lp433
I4069
aI4
aa(lp434
I4088
aI0
aa(lp435
I4088
aI1
aa(lp436
I4088
aI2
aa(lp437
I4088
aI3
aa(lp438
I4088
aI4
aa(lp439
I4118
aI0
aa(lp440
I4118
aI1
aa(lp441
I4118
aI2
aa(lp442
I4118
aI3
aa(lp443
I4118
aI4
aa(lp444
I4127
aI0
aa(lp445
I4127
aI1
aa(lp446
I4127
aI2
aa(lp447
I4127
aI3
aa(lp448
I4127
aI4
aa(lp449
I4136
aI0
aa(lp450
I4136
aI1
aa(lp451
I4136
aI2
aa(lp452
I4136
aI3
aa(lp453
I4136
aI4
aa(lp454
I4155
aI1
aa(lp455
I4165
aI2
aa(lp456
I4165
aI3
aa(lp457
I4220
aI1
aa(lp458
I4220
aI3
aa(lp459
I4244
aI2
aa(lp460
I4244
aI3
aa(lp461
I4244
aI4
aa(lp462
I4251
aI0
aa(lp463
I4251
aI2
aa(lp464
I4330
aI0
aa(lp465
I4330
aI2
aa(lp466
I4330
aI3
aa(lp467
I4330
aI4
aa(lp468
I4336
aI0
aa(lp469
I4336
aI1
aa(lp470
I4336
aI2
aa(lp471
I4336
aI3
aa(lp472
I4354
aI0
aa(lp473
I4354
aI1
aa(lp474
I4354
aI2
aa(lp475
I4354
aI3
aa(lp476
I4354
aI4
aa(lp477
I4401
aI0
aa(lp478
I4401
aI2
aa(lp479
I4401
aI3
aa(lp480
I4422
aI0
aa(lp481
I4422
aI1
aa(lp482
I4422
aI2
aa(lp483
I4422
aI4
aa(lp484
I4427
aI0
aa(lp485
I4427
aI1
aa(lp486
I4427
aI2
aa(lp487
I4427
aI3
aa(lp488
I4427
aI4
aa(lp489
I4525
aI4
aa(lp490
I4562
aI3
aa(lp491
I4599
aI0
aa(lp492
I4599
aI1
aa(lp493
I4599
aI2
aa(lp494
I4599
aI3
aa(lp495
I4599
aI4
aa(lp496
I4644
aI0
aa(lp497
I4644
aI1
aa(lp498
I4644
aI2
aa(lp499
I4644
aI3
aa(lp500
I4644
aI4
aa(lp501
I4650
aI1
aa(lp502
I4731
aI0
aa(lp503
I4731
aI1
aa(lp504
I4731
aI3
aa(lp505
I4731
aI4
aa(lp506
I4789
aI4
aa(lp507
I4901
aI0
aa(lp508
I4901
aI1
aa(lp509
I4901
aI3
aa(lp510
I4901
aI4
aa(lp511
I4914
aI0
aa(lp512
I4914
aI2
aa(lp513
I4914
aI3
aa(lp514
I4968
aI0
aa(lp515
I4968
aI1
aa(lp516
I4968
aI2
aa(lp517
I4968
aI3
aa(lp518
I5017
aI0
aa(lp519
I5017
aI1
aa(lp520
I5017
aI2
aa(lp521
I5017
aI3
aa(lp522
I5017
aI4
aa(lp523
I5019
aI0
aa(lp524
I5019
aI2
aa(lp525
I5019
aI3
aa(lp526
I5019
aI4
aa(lp527
I5022
aI1
aa(lp528
I5022
aI2
aa(lp529
I5077
aI1
aa(lp530
I5298
aI0
aa(lp531
I5298
aI1
aa(lp532
I5298
aI2
aa(lp533
I5298
aI3
aa(lp534
I5298
aI4
aa(lp535
I5314
aI0
aa(lp536
I5314
aI1
aa(lp537
I5314
aI2
aa(lp538
I5314
aI3
aa(lp539
I5314
aI4
aa(lp540
I5381
aI0
aa(lp541
I5381
aI1
aa(lp542
I5381
aI2
aa(lp543
I5381
aI3
aa(lp544
I5381
aI4
aa(lp545
I5545
aI0
aa(lp546
I5545
aI1
aa(lp547
I5545
aI2
aa(lp548
I5545
aI3
aa(lp549
I5545
aI4
aa(lp550
I5634
aI1
aa(lp551
I5634
aI2
aa(lp552
I5634
aI3
aa(lp553
I5634
aI4
aa(lp554
I5655
aI0
aa(lp555
I5655
aI2
aa(lp556
I5655
aI3
aa(lp557
I5655
aI4
aa(lp558
I5680
aI0
aa(lp559
I5680
aI1
aa(lp560
I5680
aI2
aa(lp561
I5680
aI3
aa(lp562
I5680
aI4
aa(lp563
I5771
aI0
aa(lp564
I5771
aI1
aa(lp565
I5771
aI2
aa(lp566
I5771
aI4
aa(lp567
I5779
aI0
aa(lp568
I5779
aI1
aa(lp569
I5779
aI2
aa(lp570
I5779
aI3
aa(lp571
I5779
aI4
aa(lp572
I5806
aI0
aa(lp573
I5806
aI1
aa(lp574
I5806
aI2
aa(lp575
I5806
aI3
aa(lp576
I5806
aI4
aa(lp577
I5814
aI0
aa(lp578
I5814
aI1
aa(lp579
I5814
aI2
aa(lp580
I5814
aI3
aa(lp581
I5814
aI4
aa(lp582
I5857
aI0
aa(lp583
I5857
aI1
aa(lp584
I5857
aI2
aa(lp585
I5857
aI3
aa(lp586
I5857
aI4
aa(lp587
I5873
aI1
aa(lp588
I5879
aI0
aa(lp589
I5879
aI1
aa(lp590
I5879
aI2
aa(lp591
I5879
aI3
aa(lp592
I5881
aI0
aa(lp593
I5881
aI2
aa(lp594
I5881
aI4
aa(lp595
I5899
aI0
aa(lp596
I5899
aI1
aa(lp597
I5899
aI2
aa(lp598
I5899
aI3
aa(lp599
I5899
aI4
aa(lp600
I5911
aI0
aa(lp601
I5911
aI1
aa(lp602
I5911
aI2
aa(lp603
I5911
aI3
aa(lp604
I5930
aI0
aa(lp605
I5930
aI1
aa(lp606
I5930
aI3
aa(lp607
I5940
aI0
aa(lp608
I5940
aI2
aa(lp609
I5966
aI0
aa(lp610
I5966
aI1
aa(lp611
I5966
aI2
aa(lp612
I5966
aI3
aa(lp613
I5966
aI4
aa(lp614
I5972
aI0
aa(lp615
I5972
aI1
aa(lp616
I5972
aI2
aa(lp617
I5972
aI3
aa(lp618
I5972
aI4
aa(lp619
I5980
aI0
aa(lp620
I5980
aI1
aa(lp621
I5980
aI2
aa(lp622
I5980
aI3
aa(lp623
I5980
aI4
aa(lp624
I6070
aI4
aa(lp625
I6080
aI0
aa(lp626
I6080
aI1
aa(lp627
I6080
aI2
aa(lp628
I6080
aI3
aa(lp629
I6080
aI4
aa(lp630
I6121
aI0
aa(lp631
I6121
aI1
aa(lp632
I6121
aI2
aa(lp633
I6121
aI3
aa(lp634
I6121
aI4
aa(lp635
I6161
aI2
aa(lp636
I6188
aI0
aa(lp637
I6188
aI2
aa(lp638
I6201
aI2
aa(lp639
I6201
aI3
aa(lp640
I6201
aI4
aa(lp641
I6225
aI3
aa(lp642
I6225
aI4
aa(lp643
I6230
aI2
aa(lp644
I6230
aI3
aa(lp645
I6305
aI0
aa(lp646
I6305
aI1
aa(lp647
I6305
aI2
aa(lp648
I6305
aI3
aa(lp649
I6305
aI4
aa(lp650
I6316
aI0
aa(lp651
I6328
aI1
aa(lp652
I6328
aI2
aa(lp653
I6328
aI3
aa(lp654
I6328
aI4
aa(lp655
I6335
aI1
aa(lp656
I6335
aI2
aa(lp657
I6335
aI3
aa(lp658
I6335
aI4
aa(lp659
I6388
aI0
aa(lp660
I6388
aI1
aa(lp661
I6388
aI2
aa(lp662
I6388
aI3
aa(lp663
I6388
aI4
aa(lp664
I6416
aI1
aa(lp665
I6416
aI2
aa(lp666
I6416
aI3
aa(lp667
I6418
aI0
aa(lp668
I6418
aI1
aa(lp669
I6418
aI2
aa(lp670
I6418
aI3
aa(lp671
I6418
aI4
aa(lp672
I6445
aI1
aa(lp673
I6445
aI2
aa(lp674
I6445
aI3
aa(lp675
I6445
aI4
aa(lp676
I6450
aI1
aa(lp677
I6450
aI2
aa(lp678
I6450
aI3
aa(lp679
I6450
aI4
aa(lp680
I6524
aI2
aa(lp681
I6524
aI3
aa(lp682
I6593
aI0
aa(lp683
I6593
aI1
aa(lp684
I6593
aI2
aa(lp685
I6593
aI3
aa(lp686
I6593
aI4
aa(lp687
I6601
aI1
aa(lp688
I6601
aI2
aa(lp689
I6601
aI4
aa(lp690
I6684
aI0
aa(lp691
I6684
aI1
aa(lp692
I6684
aI2
aa(lp693
I6684
aI3
aa(lp694
I6684
aI4
aa(lp695
I6728
aI0
aa(lp696
I6728
aI1
aa(lp697
I6728
aI2
aa(lp698
I6728
aI3
aa(lp699
I6728
aI4
aa(lp700
I6832
aI0
aa(lp701
I6832
aI1
aa(lp702
I6832
aI2
aa(lp703
I6832
aI3
aa(lp704
I6832
aI4
aa(lp705
I6842
aI0
aa(lp706
I6849
aI0
aa(lp707
I6849
aI1
aa(lp708
I6849
aI2
aa(lp709
I6849
aI3
aa(lp710
I6849
aI4
aa(lp711
I6862
aI0
aa(lp712
I6862
aI1
aa(lp713
I6862
aI2
aa(lp714
I6862
aI3
aa(lp715
I6862
aI4
aa(lp716
I7022
aI0
aa(lp717
I7022
aI1
aa(lp718
I7022
aI2
aa(lp719
I7022
aI3
aa(lp720
I7022
aI4
aa(lp721
I7102
aI0
aa(lp722
I7102
aI1
aa(lp723
I7102
aI2
aa(lp724
I7102
aI3
aa(lp725
I7102
aI4
aa(lp726
I7309
aI0
aa(lp727
I7309
aI1
aa(lp728
I7309
aI2
aa(lp729
I7309
aI3
aa(lp730
I7309
aI4
aa(lp731
I7326
aI0
aa(lp732
I7326
aI1
aa(lp733
I7326
aI2
aa(lp734
I7326
aI3
aa(lp735
I7326
aI4
aa(lp736
I7342
aI0
aa(lp737
I7342
aI2
aa(lp738
I7342
aI3
aa(lp739
I7396
aI0
aa(lp740
I7396
aI1
aa(lp741
I7396
aI2
aa(lp742
I7396
aI3
aa(lp743
I7396
aI4
aa(lp744
I7590
aI0
aa(lp745
I7590
aI1
aa(lp746
I7590
aI2
aa(lp747
I7590
aI3
aa(lp748
I7590
aI4
aa(lp749
I7637
aI0
aa(lp750
I7637
aI1
aa(lp751
I7637
aI2
aa(lp752
I7637
aI3
aa(lp753
I7637
aI4
aa(lp754
I7660
aI0
aa(lp755
I7660
aI1
aa(lp756
I7660
aI3
aa(lp757
I7660
aI4
aa(lp758
I7670
aI0
aa(lp759
I7670
aI1
aa(lp760
I7670
aI2
aa(lp761
I7670
aI3
aa(lp762
I7670
aI4
aa(lp763
I7766
aI0
aa(lp764
I7766
aI1
aa(lp765
I7766
aI2
aa(lp766
I7766
aI3
aa(lp767
I7860
aI0
aa(lp768
I7860
aI2
aa(lp769
I7860
aI3
aa(lp770
I7860
aI4
aa(lp771
I7924
aI0
aa(lp772
I7924
aI1
aa(lp773
I7924
aI2
aa(lp774
I7924
aI3
aa(lp775
I7924
aI4
aa(lp776
I7958
aI0
aa(lp777
I7958
aI2
aa(lp778
I7958
aI3
aa(lp779
I7958
aI4
aa(lp780
I7992
aI0
aa(lp781
I7992
aI1
aa(lp782
I8051
aI1
aa(lp783
I8054
aI0
aa(lp784
I8054
aI1
aa(lp785
I8077
aI0
aa(lp786
I8077
aI1
aa(lp787
I8077
aI2
aa(lp788
I8077
aI3
aa(lp789
I8077
aI4
aa(lp790
I8109
aI0
aa(lp791
I8109
aI1
aa(lp792
I8109
aI2
aa(lp793
I8109
aI3
aa(lp794
I8120
aI1
aa(lp795
I8120
aI3
aa(lp796
I8130
aI0
aa(lp797
I8130
aI1
aa(lp798
I8130
aI2
aa(lp799
I8145
aI0
aa(lp800
I8145
aI1
aa(lp801
I8145
aI2
aa(lp802
I8145
aI3
aa(lp803
I8145
aI4
aa(lp804
I8175
aI0
aa(lp805
I8175
aI1
aa(lp806
I8175
aI2
aa(lp807
I8175
aI3
aa(lp808
I8175
aI4
aa(lp809
I8212
aI3
aa(lp810
I8212
aI4
aa(lp811
I8243
aI3
aa(lp812
I8252
aI0
aa(lp813
I8252
aI1
aa(lp814
I8252
aI2
aa(lp815
I8252
aI3
aa(lp816
I8252
aI4
aa(lp817
I8270
aI0
aa(lp818
I8270
aI1
aa(lp819
I8270
aI2
aa(lp820
I8270
aI3
aa(lp821
I8270
aI4
aa(lp822
I8273
aI0
aa(lp823
I8273
aI1
aa(lp824
I8273
aI2
aa(lp825
I8273
aI3
aa(lp826
I8273
aI4
aa(lp827
I8277
aI0
aa(lp828
I8287
aI1
aa(lp829
I8287
aI2
aa(lp830
I8287
aI3
aa(lp831
I8298
aI0
aa(lp832
I8298
aI1
aa(lp833
I8298
aI2
aa(lp834
I8298
aI3
aa(lp835
I8298
aI4
aa(lp836
I8327
aI2
aa(lp837
I8327
aI3
aa(lp838
I8327
aI4
aa(lp839
I8346
aI0
aa(lp840
I8346
aI4
aa(lp841
I8403
aI0
aa(lp842
I8403
aI1
aa(lp843
I8403
aI2
aa(lp844
I8403
aI3
aa(lp845
I8403
aI4
aa(lp846
I8507
aI0
aa(lp847
I8507
aI1
aa(lp848
I8507
aI2
aa(lp849
I8507
aI3
aa(lp850
I8507
aI4
aa(lp851
I8543
aI0
aa(lp852
I8543
aI1
aa(lp853
I8543
aI2
aa(lp854
I8543
aI3
aa(lp855
I8543
aI4
aa(lp856
I8629
aI0
aa(lp857
I8629
aI2
aa(lp858
I8629
aI3
aa(lp859
I8629
aI4
aa(lp860
I8640
aI0
aa(lp861
I8640
aI1
aa(lp862
I8640
aI2
aa(lp863
I8640
aI3
aa(lp864
I8640
aI4
aa(lp865
I8699
aI0
aa(lp866
I8699
aI2
aa(lp867
I8699
aI3
aa(lp868
I8699
aI4
aa(lp869
I8706
aI0
aa(lp870
I8706
aI2
aa(lp871
I8706
aI3
aa(lp872
I8706
aI4
aa(lp873
I8711
aI0
aa(lp874
I8711
aI1
aa(lp875
I8711
aI2
aa(lp876
I8777
aI0
aa(lp877
I8777
aI3
aa(lp878
I8777
aI4
aa(lp879
I8797
aI0
aa(lp880
I8797
aI3
aa(lp881
I8797
aI4
aa(lp882
I8842
aI0
aa(lp883
I8842
aI1
aa(lp884
I8842
aI2
aa(lp885
I8842
aI3
aa(lp886
I8842
aI4
aa(lp887
I8845
aI0
aa(lp888
I8845
aI1
aa(lp889
I8845
aI2
aa(lp890
I8845
aI3
aa(lp891
I8845
aI4
aa(lp892
I8902
aI3
aa(lp893
I8951
aI0
aa(lp894
I8951
aI1
aa(lp895
I8951
aI2
aa(lp896
I8951
aI3
aa(lp897
I8951
aI4
aa(lp898
I9010
aI0
aa(lp899
I9010
aI1
aa(lp900
I9010
aI2
aa(lp901
I9010
aI3
aa(lp902
I9010
aI4
aa(lp903
I9034
aI1
aa(lp904
I9034
aI2
aa(lp905
I9072
aI1
aa(lp906
I9072
aI2
aa(lp907
I9072
aI3
aa(lp908
I9095
aI0
aa(lp909
I9095
aI1
aa(lp910
I9095
aI2
aa(lp911
I9095
aI3
aa(lp912
I9095
aI4
aa(lp913
I9200
aI0
aa(lp914
I9200
aI2
aa(lp915
I9200
aI3
aa(lp916
I9231
aI0
aa(lp917
I9231
aI2
aa(lp918
I9231
aI3
aa(lp919
I9231
aI4
aa(lp920
I9235
aI3
aa(lp921
I9257
aI0
aa(lp922
I9257
aI1
aa(lp923
I9257
aI2
aa(lp924
I9257
aI3
aa(lp925
I9257
aI4
aa(lp926
I9320
aI1
aa(lp927
I9320
aI2
aa(lp928
I9320
aI4
aa(lp929
I9332
aI0
aa(lp930
I9332
aI1
aa(lp931
I9332
aI3
aa(lp932
I9332
aI4
aa(lp933
I9385
aI0
aa(lp934
I9385
aI1
aa(lp935
I9385
aI2
aa(lp936
I9385
aI3
aa(lp937
I9385
aI4
aa(lp938
I9478
aI2
aa(lp939
I9478
aI4
aa(lp940
I9513
aI0
aa(lp941
I9513
aI2
aa(lp942
I9513
aI3
aa(lp943
I9513
aI4
aa(lp944
I9582
aI0
aa(lp945
I9582
aI1
aa(lp946
I9582
aI2
aa(lp947
I9582
aI3
aa(lp948
I9582
aI4
aa(lp949
I9608
aI0
aa(lp950
I9608
aI1
aa(lp951
I9608
aI2
aa(lp952
I9608
aI3
aa(lp953
I9608
aI4
aa(lp954
I9615
aI4
aa(lp955
I9634
aI1
aa(lp956
I9634
aI2
aa(lp957
I9772
aI0
aa(lp958
I9772
aI1
aa(lp959
I9772
aI2
aa(lp960
I9772
aI3
aa(lp961
I9772
aI4
aa(lp962
I9783
aI1
aa(lp963
I9783
aI4
aa(lp964
I9820
aI2
aa(lp965
I9870
aI1
aa(lp966
I9870
aI3
aa(lp967
I9901
aI1
aa(lp968
I9901
aI3
aa(lp969
I9991
aI0
aa(lp970
I9991
aI2
aa(lp971
I10028
aI4
aa(lp972
I10097
aI0
aa(lp973
I10097
aI1
aa(lp974
I10097
aI2
aa(lp975
I10097
aI3
aa(lp976
I10097
aI4
aa(lp977
I10229
aI0
aa(lp978
I10229
aI1
aa(lp979
I10229
aI2
aa(lp980
I10229
aI3
aa(lp981
I10229
aI4
aa(lp982
I10365
aI0
aa(lp983
I10365
aI3
aa(lp984
I10384
aI0
aa(lp985
I10384
aI1
aa(lp986
I10384
aI2
aa(lp987
I10384
aI4
aa(lp988
I10450
aI4
aa(lp989
I10598
aI0
aa(lp990
I10598
aI1
aa(lp991
I10598
aI3
aa(lp992
I10613
aI0
aa(lp993
I10613
aI1
aa(lp994
I10613
aI2
aa(lp995
I10641
aI0
aa(lp996
I10641
aI1
aa(lp997
I10641
aI2
aa(lp998
I10641
aI3
aa(lp999
I10641
aI4
aa(lp1000
I10653
aI1
aa(lp1001
I10653
aI2
aa(lp1002
I10653
aI3
aa(lp1003
I10653
aI4
aa(lp1004
I10691
aI0
aa(lp1005
I10691
aI1
aa(lp1006
I10691
aI2
aa(lp1007
I10727
aI0
aa(lp1008
I10727
aI1
aa(lp1009
I10727
aI2
aa(lp1010
I10727
aI4
aa(lp1011
I10754
aI0
aa(lp1012
I10754
aI1
aa(lp1013
I10754
aI2
aa(lp1014
I10754
aI4
aa(lp1015
I10809
aI2
aa(lp1016
I10849
aI4
aa(lp1017
I10874
aI1
aa(lp1018
I10874
aI2
aa(lp1019
I10874
aI3
aa(lp1020
I10874
aI4
aa(lp1021
I10889
aI0
aa(lp1022
I10889
aI2
aa(lp1023
I10889
aI3
aa(lp1024
I10912
aI0
aa(lp1025
I10912
aI1
aa(lp1026
I10912
aI2
aa(lp1027
I10912
aI3
aa(lp1028
I10912
aI4
aa(lp1029
I10914
aI0
aa(lp1030
I10914
aI1
aa(lp1031
I10914
aI3
aa(lp1032
I10940
aI0
aa(lp1033
I10940
aI2
aa(lp1034
I10940
aI3
aa(lp1035
I10940
aI4
aa(lp1036
I10994
aI0
aa(lp1037
I10994
aI2
aa(lp1038
I10994
aI3
aa(lp1039
I10994
aI4
aa(lp1040
I11008
aI0
aa(lp1041
I11008
aI1
aa(lp1042
I11008
aI2
aa(lp1043
I11008
aI3
aa(lp1044
I11008
aI4
aa(lp1045
I11169
aI0
aa(lp1046
I11169
aI1
aa(lp1047
I11169
aI2
aa(lp1048
I11169
aI3
aa(lp1049
I11210
aI0
aa(lp1050
I11210
aI1
aa(lp1051
I11210
aI2
aa(lp1052
I11260
aI0
aa(lp1053
I11260
aI1
aa(lp1054
I11260
aI2
aa(lp1055
I11260
aI3
aa(lp1056
I11260
aI4
aa(lp1057
I11321
aI0
aa(lp1058
I11321
aI1
aa(lp1059
I11321
aI2
aa(lp1060
I11321
aI3
aa(lp1061
I11321
aI4
aa(lp1062
I11348
aI0
aa(lp1063
I11348
aI1
aa(lp1064
I11392
aI0
aa(lp1065
I11392
aI1
aa(lp1066
I11392
aI2
aa(lp1067
I11392
aI3
aa(lp1068
I11392
aI4
aa(lp1069
I11439
aI0
aa(lp1070
I11489
aI0
aa(lp1071
I11489
aI1
aa(lp1072
I11489
aI2
aa(lp1073
I11489
aI3
aa(lp1074
I11504
aI0
aa(lp1075
I11504
aI2
aa(lp1076
I11504
aI3
aa(lp1077
I11504
aI4
aa(lp1078
I11591
aI0
aa(lp1079
I11591
aI1
aa(lp1080
I11591
aI2
aa(lp1081
I11591
aI3
aa(lp1082
I11605
aI0
aa(lp1083
I11605
aI1
aa(lp1084
I11605
aI3
aa(lp1085
I11605
aI4
aa(lp1086
I11611
aI0
aa(lp1087
I11611
aI2
aa(lp1088
I11650
aI0
aa(lp1089
I11650
aI1
aa(lp1090
I11650
aI2
aa(lp1091
I11650
aI3
aa(lp1092
I11650
aI4
aa(lp1093
I11735
aI1
aa(lp1094
I11735
aI2
aa(lp1095
I11802
aI1
aa(lp1096
I11920
aI0
aa(lp1097
I11920
aI4
aa(lp1098
I11993
aI0
aa(lp1099
I11993
aI2
aa(lp1100
I11993
aI3
aa(lp1101
I11993
aI4
aa(lp1102
I12047
aI0
aa(lp1103
I12047
aI1
aa(lp1104
I12047
aI2
aa(lp1105
I12047
aI3
aa(lp1106
I12089
aI0
aa(lp1107
I12089
aI2
aa(lp1108
I12089
aI3
aa(lp1109
I12089
aI4
aa(lp1110
I12185
aI3
aa(lp1111
I12312
aI0
aa(lp1112
I12312
aI1
aa(lp1113
I12312
aI2
aa(lp1114
I12312
aI3
aa(lp1115
I12312
aI4
aa(lp1116
I12324
aI2
aa(lp1117
I12342
aI1
aa(lp1118
I12342
aI2
aa(lp1119
I12342
aI3
aa(lp1120
I12342
aI4
aa(lp1121
I12462
aI0
aa(lp1122
I12462
aI1
aa(lp1123
I12462
aI2
aa(lp1124
I12462
aI4
aa(lp1125
I12511
aI0
aa(lp1126
I12511
aI1
aa(lp1127
I12511
aI2
aa(lp1128
I12511
aI3
aa(lp1129
I12574
aI0
aa(lp1130
I12574
aI1
aa(lp1131
I12574
aI2
aa(lp1132
I12574
aI3
aa(lp1133
I12574
aI4
aa(lp1134
I12630
aI0
aa(lp1135
I12630
aI1
aa(lp1136
I12630
aI2
aa(lp1137
I12630
aI3
aa(lp1138
I12630
aI4
aa(lp1139
I12635
aI0
aa(lp1140
I12635
aI1
aa(lp1141
I12635
aI2
aa(lp1142
I12665
aI0
aa(lp1143
I12665
aI1
aa(lp1144
I12665
aI2
aa(lp1145
I12665
aI3
aa(lp1146
I12665
aI4
aa(lp1147
I12671
aI0
aa(lp1148
I12671
aI3
aa(lp1149
I12671
aI4
aa(lp1150
I12680
aI0
aa(lp1151
I12680
aI1
aa(lp1152
I12680
aI3
aa(lp1153
I12680
aI4
aa(lp1154
I12693
aI0
aa(lp1155
I12693
aI2
aa(lp1156
I12696
aI1
aa(lp1157
I12696
aI2
aa(lp1158
I12696
aI3
aa(lp1159
I12696
aI4
aa(lp1160
I12706
aI0
aa(lp1161
I12706
aI1
aa(lp1162
I12706
aI2
aa(lp1163
I12706
aI3
aa(lp1164
I12706
aI4
aa(lp1165
I12774
aI2
aa(lp1166
I12823
aI0
aa(lp1167
I12823
aI1
aa(lp1168
I12823
aI2
aa(lp1169
I12823
aI3
aa(lp1170
I12823
aI4
aa(lp1171
I12858
aI0
aa(lp1172
I12858
aI1
aa(lp1173
I12858
aI2
aa(lp1174
I12858
aI3
aa(lp1175
I12858
aI4
aa(lp1176
I12912
aI0
aa(lp1177
I12912
aI4
aa(lp1178
I12923
aI0
aa(lp1179
I12923
aI3
aa(lp1180
I12923
aI4
aa(lp1181
I13162
aI2
aa(lp1182
I13162
aI3
aa(lp1183
I13162
aI4
aa(lp1184
I13193
aI0
aa(lp1185
I13193
aI2
aa(lp1186
I13199
aI0
aa(lp1187
I13268
aI0
aa(lp1188
I13268
aI1
aa(lp1189
I13268
aI2
aa(lp1190
I13268
aI4
aa(lp1191
I13314
aI0
aa(lp1192
I13314
aI1
aa(lp1193
I13314
aI3
aa(lp1194
I13314
aI4
aa(lp1195
I13384
aI0
aa(lp1196
I13404
aI0
aa(lp1197
I13404
aI1
aa(lp1198
I13404
aI3
aa(lp1199
I13404
aI4
aa(lp1200
I13406
aI0
aa(lp1201
I13406
aI2
aa(lp1202
I13409
aI4
aa(lp1203
I13459
aI1
aa(lp1204
I13461
aI0
aa(lp1205
I13461
aI1
aa(lp1206
I13461
aI2
aa(lp1207
I13461
aI3
aa(lp1208
I13461
aI4
aa(lp1209
I13472
aI0
aa(lp1210
I13472
aI3
aa(lp1211
I13472
aI4
aa(lp1212
I13483
aI0
aa(lp1213
I13483
aI1
aa(lp1214
I13483
aI2
aa(lp1215
I13483
aI3
aa(lp1216
I13483
aI4
aa(lp1217
I13522
aI0
aa(lp1218
I13522
aI1
aa(lp1219
I13522
aI2
aa(lp1220
I13522
aI3
aa(lp1221
I13535
aI0
aa(lp1222
I13535
aI1
aa(lp1223
I13535
aI2
aa(lp1224
I13535
aI3
aa(lp1225
I13535
aI4
aa(lp1226
I13560
aI0
aa(lp1227
I13560
aI2
aa(lp1228
I13572
aI0
aa(lp1229
I13572
aI1
aa(lp1230
I13572
aI2
aa(lp1231
I13572
aI3
aa(lp1232
I13595
aI0
aa(lp1233
I13595
aI4
aa(lp1234
I13719
aI0
aa(lp1235
I13719
aI1
aa(lp1236
I13719
aI2
aa(lp1237
I13719
aI3
aa(lp1238
I13719
aI4
aa(lp1239
I13760
aI0
aa(lp1240
I13760
aI3
aa(lp1241
I13760
aI4
aa(lp1242
I13767
aI0
aa(lp1243
I13767
aI1
aa(lp1244
I13767
aI2
aa(lp1245
I13767
aI3
aa(lp1246
I13767
aI4
aa(lp1247
I13868
aI0
aa(lp1248
I13868
aI1
aa(lp1249
I13868
aI2
aa(lp1250
I13868
aI3
aa(lp1251
I13868
aI4
aa(lp1252
I13951
aI0
aa(lp1253
I13951
aI1
aa(lp1254
I13951
aI2
aa(lp1255
I14004
aI4
aa(lp1256
I14024
aI0
aa(lp1257
I14024
aI1
aa(lp1258
I14024
aI2
aa(lp1259
I14024
aI3
aa(lp1260
I14083
aI0
aa(lp1261
I14083
aI2
aa(lp1262
I14083
aI3
aa(lp1263
I14189
aI0
aa(lp1264
I14189
aI1
aa(lp1265
I14189
aI2
aa(lp1266
I14189
aI3
aa(lp1267
I14189
aI4
aa(lp1268
I14236
aI0
aa(lp1269
I14236
aI1
aa(lp1270
I14236
aI2
aa(lp1271
I14236
aI3
aa(lp1272
I14236
aI4
aa(lp1273
I14301
aI1
aa(lp1274
I14301
aI2
aa(lp1275
I14301
aI4
aa(lp1276
I14325
aI0
aa(lp1277
I14325
aI3
aa(lp1278
I14403
aI2
aa(lp1279
I14403
aI4
aa(lp1280
I14425
aI0
aa(lp1281
I14425
aI1
aa(lp1282
I14425
aI2
aa(lp1283
I14425
aI3
aa(lp1284
I14425
aI4
aa(lp1285
I14437
aI0
aa(lp1286
I14437
aI1
aa(lp1287
I14437
aI2
aa(lp1288
I14437
aI3
aa(lp1289
I14437
aI4
aa(lp1290
I14444
aI0
aa(lp1291
I14444
aI1
aa(lp1292
I14444
aI2
aa(lp1293
I14444
aI3
aa(lp1294
I14444
aI4
aa(lp1295
I14464
aI0
aa(lp1296
I14469
aI0
aa(lp1297
I14469
aI1
aa(lp1298
I14469
aI3
aa(lp1299
I14469
aI4
aa(lp1300
I14509
aI0
aa(lp1301
I14509
aI1
aa(lp1302
I14509
aI3
aa(lp1303
I14527
aI0
aa(lp1304
I14527
aI2
aa(lp1305
I14527
aI3
aa(lp1306
I14527
aI4
aa(lp1307
I14595
aI0
aa(lp1308
I14595
aI1
aa(lp1309
I14595
aI2
aa(lp1310
I14595
aI3
aa(lp1311
I14595
aI4
aa(lp1312
I14774
aI0
aa(lp1313
I14774
aI4
aa(lp1314
I14831
aI3
aa(lp1315
I14831
aI4
aa(lp1316
I14857
aI0
aa(lp1317
I14857
aI1
aa(lp1318
I14857
aI2
aa(lp1319
I14857
aI3
aa(lp1320
I14857
aI4
aa(lp1321
I14898
aI2
aa(lp1322
I14898
aI3
aa(lp1323
I14908
aI0
aa(lp1324
I14908
aI1
aa(lp1325
I14908
aI2
aa(lp1326
I14908
aI3
aa(lp1327
I14908
aI4
aa(lp1328
I14919
aI1
aa(lp1329
I14919
aI2
aa(lp1330
I14919
aI3
aa(lp1331
I14985
aI1
aa(lp1332
I14987
aI0
aa(lp1333
I14987
aI1
aa(lp1334
I14987
aI2
aa(lp1335
I14987
aI3
aa(lp1336
I14987
aI4
aa(lp1337
I14996
aI1
aa(lp1338
I14996
aI2
aa(lp1339
I14996
aI3
aa(lp1340
I14996
aI4
aa(lp1341
I14998
aI0
aa(lp1342
I14998
aI1
aa(lp1343
I14998
aI2
aa(lp1344
I14998
aI3
aa(lp1345
I15015
aI0
aa(lp1346
I15015
aI1
aa(lp1347
I15015
aI2
aa(lp1348
I15015
aI3
aa(lp1349
I15015
aI4
aa(lp1350
I15023
aI1
aa(lp1351
I15023
aI2
aa(lp1352
I15023
aI3
aa(lp1353
I15023
aI4
aa(lp1354
I15026
aI2
aa(lp1355
I15026
aI4
aa(lp1356
I15031
aI1
aa(lp1357
I15031
aI2
aa(lp1358
I15199
aI4
aa(lp1359
I15205
aI1
aa(lp1360
I15205
aI2
aa(lp1361
I15205
aI4
aa(lp1362
I15206
aI0
aa(lp1363
I15206
aI1
aa(lp1364
I15243
aI0
aa(lp1365
I15243
aI1
aa(lp1366
I15243
aI2
aa(lp1367
I15243
aI3
aa(lp1368
I15243
aI4
aa(lp1369
I15244
aI0
aa(lp1370
I15244
aI1
aa(lp1371
I15244
aI2
aa(lp1372
I15244
aI3
aa(lp1373
I15244
aI4
aa(lp1374
I15406
aI0
aa(lp1375
I15406
aI1
aa(lp1376
I15406
aI2
aa(lp1377
I15406
aI3
aa(lp1378
I15406
aI4
aa(lp1379
I15408
aI0
aa(lp1380
I15408
aI1
aa(lp1381
I15408
aI2
aa(lp1382
I15408
aI3
aa(lp1383
I15408
aI4
aa(lp1384
I15469
aI0
aa(lp1385
I15469
aI1
aa(lp1386
I15469
aI2
aa(lp1387
I15469
aI3
aa(lp1388
I15469
aI4
aa(lp1389
I15473
aI0
aa(lp1390
I15473
aI1
aa(lp1391
I15473
aI3
aa(lp1392
I15473
aI4
aa(lp1393
I15500
aI1
aa(lp1394
I15546
aI0
aa(lp1395
I15546
aI1
aa(lp1396
I15546
aI2
aa(lp1397
I15546
aI3
aa(lp1398
I15546
aI4
aa(lp1399
I15568
aI0
aa(lp1400
I15568
aI1
aa(lp1401
I15568
aI3
aa(lp1402
I15568
aI4
aa(lp1403
I15634
aI1
aa(lp1404
I15634
aI2
aa(lp1405
I15651
aI0
aa(lp1406
I15651
aI2
aa(lp1407
I15651
aI4
aa(lp1408
I15716
aI0
aa(lp1409
I15716
aI1
aa(lp1410
I15716
aI2
aa(lp1411
I15716
aI3
aa(lp1412
I15716
aI4
aa(lp1413
I15740
aI0
aa(lp1414
I15740
aI4
aa(lp1415
I15759
aI0
aa(lp1416
I15759
aI2
aa(lp1417
I15759
aI3
aa(lp1418
I15787
aI0
aa(lp1419
I15787
aI1
aa(lp1420
I15787
aI2
aa(lp1421
I15787
aI3
aa(lp1422
I15787
aI4
aa(lp1423
I15789
aI2
aa(lp1424
I15808
aI2
aa(lp1425
I15808
aI4
aa(lp1426
I15811
aI0
aa(lp1427
I15811
aI1
aa(lp1428
I15811
aI2
aa(lp1429
I15811
aI3
aa(lp1430
I15811
aI4
aa(lp1431
I15815
aI1
aa(lp1432
I15830
aI0
aa(lp1433
I15830
aI4
aa(lp1434
I15844
aI0
aa(lp1435
I15844
aI1
aa(lp1436
I15844
aI2
aa(lp1437
I15844
aI3
aa(lp1438
I15844
aI4
aa(lp1439
I15855
aI1
aa(lp1440
I15855
aI2
aa(lp1441
I15855
aI4
aa(lp1442
I15865
aI0
aa(lp1443
I15865
aI2
aa(lp1444
I15865
aI3
aa(lp1445
I15865
aI4
aa(lp1446
I15900
aI1
aa(lp1447
I15923
aI1
aa(lp1448
I15923
aI4
aa(lp1449
I15930
aI1
aa(lp1450
I15930
aI3
aa(lp1451
I15980
aI1
aa(lp1452
I15980
aI2
aa(lp1453
I15980
aI3
aa(lp1454
I15980
aI4
aa(lp1455
I16043
aI0
aa(lp1456
I16043
aI1
aa(lp1457
I16043
aI2
aa(lp1458
I16043
aI3
aa(lp1459
I16043
aI4
aa(lp1460
I16057
aI0
aa(lp1461
I16057
aI3
aa(lp1462
I16057
aI4
aa(lp1463
I16083
aI0
aa(lp1464
I16099
aI0
aa(lp1465
I16099
aI1
aa(lp1466
I16099
aI2
aa(lp1467
I16099
aI3
aa(lp1468
I16099
aI4
aa(lp1469
I16112
aI0
aa(lp1470
I16233
aI4
aa(lp1471
I16240
aI4
aa(lp1472
I16277
aI0
aa(lp1473
I16277
aI1
aa(lp1474
I16277
aI3
aa(lp1475
I16277
aI4
aa(lp1476
I16300
aI0
aa(lp1477
I16300
aI1
aa(lp1478
I16300
aI2
aa(lp1479
I16357
aI0
aa(lp1480
I16357
aI1
aa(lp1481
I16357
aI2
aa(lp1482
I16357
aI3
aa(lp1483
I16357
aI4
aa(lp1484
I16364
aI0
aa(lp1485
I16364
aI1
aa(lp1486
I16364
aI2
aa(lp1487
I16364
aI3
aa(lp1488
I16389
aI0
aa(lp1489
I16389
aI1
aa(lp1490
I16389
aI2
aa(lp1491
I16389
aI3
aa(lp1492
I16389
aI4
aa(lp1493
I16399
aI0
aa(lp1494
I16399
aI1
aa(lp1495
I16399
aI2
aa(lp1496
I16399
aI3
aa(lp1497
I16399
aI4
aa(lp1498
I16403
aI1
aa(lp1499
I16432
aI0
aa(lp1500
I16432
aI1
aa(lp1501
I16432
aI4
aa(lp1502
I16590
aI0
aa(lp1503
I16590
aI1
aa(lp1504
I16590
aI2
aa(lp1505
I16590
aI3
aa(lp1506
I16590
aI4
aa(lp1507
I16620
aI2
aa(lp1508
I16645
aI3
aa(lp1509
I16717
aI0
aa(lp1510
I16717
aI1
aa(lp1511
I16717
aI2
aa(lp1512
I16717
aI3
aa(lp1513
I16717
aI4
aa(lp1514
I16765
aI0
aa(lp1515
I16765
aI1
aa(lp1516
I16765
aI2
aa(lp1517
I16765
aI3
aa(lp1518
I16765
aI4
aa(lp1519
I16780
aI0
aa(lp1520
I16780
aI1
aa(lp1521
I16780
aI2
aa(lp1522
I16780
aI3
aa(lp1523
I16780
aI4
aa(lp1524
I16828
aI0
aa(lp1525
I16828
aI1
aa(lp1526
I16828
aI2
aa(lp1527
I16828
aI3
aa(lp1528
I16828
aI4
aa(lp1529
I16852
aI0
aa(lp1530
I16852
aI1
aa(lp1531
I16852
aI3
aa(lp1532
I16852
aI4
aa(lp1533
I16853
aI0
aa(lp1534
I16853
aI1
aa(lp1535
I16853
aI2
aa(lp1536
I16853
aI3
aa(lp1537
I16853
aI4
aa(lp1538
I16865
aI0
aa(lp1539
I16865
aI1
aa(lp1540
I16865
aI2
aa(lp1541
I16865
aI3
aa(lp1542
I16865
aI4
aa(lp1543
I16889
aI0
aa(lp1544
I16889
aI2
aa(lp1545
I16889
aI3
aa(lp1546
I16889
aI4
aa(lp1547
I16892
aI0
aa(lp1548
I16892
aI1
aa(lp1549
I16892
aI2
aa(lp1550
I16892
aI4
aa(lp1551
I16955
aI0
aa(lp1552
I16955
aI2
aa(lp1553
I16977
aI0
aa(lp1554
I16977
aI1
aa(lp1555
I16977
aI2
aa(lp1556
I16977
aI3
aa(lp1557
I16977
aI4
aa(lp1558
I16992
aI0
aa(lp1559
I16992
aI3
aa(lp1560
I16992
aI4
aa(lp1561
I17010
aI0
aa(lp1562
I17010
aI1
aa(lp1563
I17010
aI2
aa(lp1564
I17010
aI3
aa(lp1565
I17010
aI4
aa(lp1566
I17027
aI0
aa(lp1567
I17027
aI1
aa(lp1568
I17027
aI2
aa(lp1569
I17027
aI4
aa(lp1570
I17043
aI1
aa(lp1571
I17043
aI3
aa(lp1572
I17043
aI4
aa(lp1573
I17056
aI0
aa(lp1574
I17056
aI1
aa(lp1575
I17056
aI2
aa(lp1576
I17056
aI3
aa(lp1577
I17056
aI4
aa(lp1578
I17140
aI0
aa(lp1579
I17140
aI1
aa(lp1580
I17140
aI2
aa(lp1581
I17140
aI3
aa(lp1582
I17140
aI4
aa(lp1583
I17187
aI0
aa(lp1584
I17211
aI0
aa(lp1585
I17211
aI1
aa(lp1586
I17211
aI2
aa(lp1587
I17211
aI3
aa(lp1588
I17211
aI4
aa(lp1589
I17268
aI0
aa(lp1590
I17268
aI1
aa(lp1591
I17268
aI2
aa(lp1592
I17268
aI4
aa(lp1593
I17271
aI0
aa(lp1594
I17271
aI1
aa(lp1595
I17271
aI2
aa(lp1596
I17271
aI3
aa(lp1597
I17271
aI4
aa(lp1598
I17320
aI2
aa(lp1599
I17407
aI0
aa(lp1600
I17407
aI1
aa(lp1601
I17407
aI2
aa(lp1602
I17407
aI3
aa(lp1603
I17407
aI4
aa(lp1604
I17537
aI1
aa(lp1605
I17537
aI2
aa(lp1606
I17537
aI3
aa(lp1607
I17537
aI4
aa(lp1608
I17587
aI4
aa(lp1609
I17666
aI0
aa(lp1610
I17666
aI1
aa(lp1611
I17666
aI2
aa(lp1612
I17666
aI3
aa(lp1613
I17666
aI4
aa(lp1614
I17780
aI1
aa(lp1615
I17780
aI2
aa(lp1616
I17780
aI4
aa(lp1617
I17785
aI0
aa(lp1618
I17785
aI1
aa(lp1619
I17785
aI2
aa(lp1620
I17785
aI3
aa(lp1621
I17785
aI4
aa(lp1622
I17786
aI0
aa(lp1623
I17786
aI1
aa(lp1624
I17786
aI2
aa(lp1625
I17786
aI4
aa(lp1626
I17790
aI0
aa(lp1627
I17790
aI2
aa(lp1628
I17790
aI4
aa(lp1629
I17961
aI0
aa(lp1630
I17961
aI1
aa(lp1631
I17961
aI3
aa(lp1632
I17961
aI4
aa(lp1633
I18010
aI0
aa(lp1634
I18010
aI1
aa(lp1635
I18010
aI3
aa(lp1636
I18010
aI4
aa(lp1637
I18042
aI0
aa(lp1638
I18042
aI1
aa(lp1639
I18042
aI4
aa(lp1640
I18070
aI0
aa(lp1641
I18070
aI1
aa(lp1642
I18070
aI3
aa(lp1643
I18070
aI4
aa(lp1644
I18099
aI0
aa(lp1645
I18135
aI0
aa(lp1646
I18135
aI2
aa(lp1647
I18135
aI3
aa(lp1648
I18135
aI4
aa(lp1649
I18185
aI0
aa(lp1650
I18185
aI1
aa(lp1651
I18185
aI3
aa(lp1652
I18185
aI4
aa(lp1653
I18228
aI3
aa(lp1654
I18228
aI4
aa(lp1655
I18235
aI1
aa(lp1656
I18235
aI3
aa(lp1657
I18235
aI4
aa(lp1658
I18316
aI2
aa(lp1659
I18319
aI0
aa(lp1660
I18319
aI1
aa(lp1661
I18319
aI2
aa(lp1662
I18319
aI3
aa(lp1663
I18319
aI4
aa(lp1664
I18370
aI0
aa(lp1665
I18370
aI1
aa(lp1666
I18370
aI2
aa(lp1667
I18370
aI3
aa(lp1668
I18370
aI4
aa(lp1669
I18429
aI0
aa(lp1670
I18429
aI1
aa(lp1671
I18429
aI2
aa(lp1672
I18429
aI3
aa(lp1673
I18429
aI4
aa(lp1674
I18536
aI0
aa(lp1675
I18536
aI1
aa(lp1676
I18536
aI2
aa(lp1677
I18536
aI3
aa(lp1678
I18536
aI4
aa(lp1679
I18579
aI0
aa(lp1680
I18579
aI1
aa(lp1681
I18579
aI2
aa(lp1682
I18579
aI3
aa(lp1683
I18579
aI4
aa(lp1684
I18592
aI0
aa(lp1685
I18592
aI1
aa(lp1686
I18592
aI2
aa(lp1687
I18592
aI3
aa(lp1688
I18637
aI0
aa(lp1689
I18637
aI4
aa(lp1690
I18653
aI1
aa(lp1691
I18653
aI2
aa(lp1692
I18653
aI3
aa(lp1693
I18653
aI4
aa(lp1694
I18662
aI2
aa(lp1695
I18671
aI0
aa(lp1696
I18671
aI1
aa(lp1697
I18671
aI2
aa(lp1698
I18671
aI4
aa(lp1699
I18723
aI0
aa(lp1700
I18723
aI4
aa(lp1701
I18737
aI0
aa(lp1702
I18737
aI1
aa(lp1703
I18737
aI2
aa(lp1704
I18737
aI3
aa(lp1705
I18737
aI4
aa(lp1706
I18773
aI0
aa(lp1707
I18773
aI1
aa(lp1708
I18773
aI2
aa(lp1709
I18773
aI3
aa(lp1710
I18838
aI1
aa(lp1711
I18852
aI0
aa(lp1712
I18852
aI1
aa(lp1713
I18852
aI4
aa(lp1714
I18893
aI0
aa(lp1715
I18893
aI3
aa(lp1716
I18893
aI4
aa(lp1717
I18940
aI0
aa(lp1718
I18940
aI1
aa(lp1719
I18940
aI2
aa(lp1720
I18940
aI3
aa(lp1721
I18940
aI4
aa(lp1722
I18965
aI0
aa(lp1723
I18965
aI2
aa(lp1724
I18965
aI3
aa(lp1725
I18965
aI4
aa(lp1726
I18967
aI0
aa(lp1727
I18967
aI1
aa(lp1728
I18967
aI2
aa(lp1729
I18967
aI3
aa(lp1730
I18967
aI4
aa(lp1731
I18993
aI0
aa(lp1732
I18993
aI1
aa(lp1733
I18993
aI2
aa(lp1734
I18993
aI3
aa(lp1735
I18993
aI4
aa(lp1736
I19006
aI0
aa(lp1737
I19006
aI2
aa(lp1738
I19006
aI3
aa(lp1739
I19006
aI4
aa(lp1740
I19046
aI0
aa(lp1741
I19046
aI1
aa(lp1742
I19046
aI2
aa(lp1743
I19046
aI3
aa(lp1744
I19046
aI4
aa(lp1745
I19120
aI0
aa(lp1746
I19120
aI1
aa(lp1747
I19120
aI2
aa(lp1748
I19120
aI3
aa(lp1749
I19120
aI4
aa(lp1750
I19131
aI1
aa(lp1751
I19131
aI2
aa(lp1752
I19131
aI4
aa(lp1753
I19148
aI3
aa(lp1754
I19148
aI4
aa(lp1755
I19166
aI2
aa(lp1756
I19250
aI0
aa(lp1757
I19250
aI2
aa(lp1758
I19250
aI3
aa(lp1759
I19250
aI4
aa(lp1760
I19292
aI0
aa(lp1761
I19292
aI1
aa(lp1762
I19292
aI2
aa(lp1763
I19292
aI3
aa(lp1764
I19292
aI4
aa(lp1765
I19298
aI0
aa(lp1766
I19298
aI1
aa(lp1767
I19298
aI2
aa(lp1768
I19298
aI3
aa(lp1769
I19298
aI4
aa(lp1770
I19305
aI0
aa(lp1771
I19305
aI1
aa(lp1772
I19305
aI2
aa(lp1773
I19305
aI3
aa(lp1774
I19305
aI4
aa(lp1775
I19464
aI0
aa(lp1776
I19464
aI1
aa(lp1777
I19464
aI2
aa(lp1778
I19464
aI3
aa(lp1779
I19464
aI4
aa(lp1780
I19481
aI2
aa(lp1781
I19481
aI3
aa(lp1782
I19481
aI4
aa(lp1783
I19495
aI0
aa(lp1784
I19495
aI1
aa(lp1785
I19495
aI2
aa(lp1786
I19495
aI3
aa(lp1787
I19495
aI4
aa(lp1788
I19518
aI1
aa(lp1789
I19518
aI3
aa(lp1790
I19526
aI0
aa(lp1791
I19526
aI1
aa(lp1792
I19526
aI2
aa(lp1793
I19526
aI3
aa(lp1794
I19526
aI4
aa(lp1795
I19635
aI0
aa(lp1796
I19635
aI1
aa(lp1797
I19635
aI2
aa(lp1798
I19635
aI3
aa(lp1799
I19635
aI4
aa(lp1800
I19646
aI0
aa(lp1801
I19646
aI1
aa(lp1802
I19646
aI2
aa(lp1803
I19646
aI3
aa(lp1804
I19696
aI3
aa(lp1805
I19696
aI4
aa(lp1806
I19922
aI0
aa(lp1807
I19922
aI1
aa(lp1808
I19922
aI2
aa(lp1809
I19922
aI3
aa(lp1810
I19962
aI0
aa(lp1811
I19962
aI1
aa(lp1812
I19962
aI2
aa(lp1813
I19962
aI3
aa(lp1814
I19984
aI0
aa(lp1815
I19984
aI1
aa(lp1816
I19984
aI2
aa(lp1817
I19984
aI3
aa(lp1818
I19984
aI4
aa(lp1819
I20044
aI0
aa(lp1820
I20044
aI1
aa(lp1821
I20044
aI2
aa(lp1822
I20044
aI3
aa(lp1823
I20044
aI4
aa(lp1824
I20060
aI0
aa(lp1825
I20060
aI1
aa(lp1826
I20060
aI2
aa(lp1827
I20060
aI3
aa(lp1828
I20060
aI4
aa(lp1829
I20111
aI0
aa(lp1830
I20111
aI1
aa(lp1831
I20111
aI2
aa(lp1832
I20111
aI3
aa(lp1833
I20111
aI4
aa(lp1834
I20143
aI0
aa(lp1835
I20143
aI1
aa(lp1836
I20143
aI2
aa(lp1837
I20143
aI3
aa(lp1838
I20143
aI4
aa(lp1839
I20165
aI0
aa(lp1840
I20165
aI1
aa(lp1841
I20165
aI2
aa(lp1842
I20165
aI3
aa(lp1843
I20165
aI4
aa(lp1844
I20204
aI0
aa(lp1845
I20204
aI1
aa(lp1846
I20227
aI0
aa(lp1847
I20227
aI1
aa(lp1848
I20227
aI2
aa(lp1849
I20227
aI3
aa(lp1850
I20227
aI4
aa(lp1851
I20387
aI0
aa(lp1852
I20387
aI1
aa(lp1853
I20387
aI2
aa(lp1854
I20387
aI3
aa(lp1855
I20387
aI4
aa(lp1856
I20412
aI0
aa(lp1857
I20412
aI1
aa(lp1858
I20412
aI2
aa(lp1859
I20412
aI3
aa(lp1860
I20412
aI4
aa(lp1861
I20414
aI1
aa(lp1862
I20414
aI2
aa(lp1863
I20415
aI0
aa(lp1864
I20415
aI1
aa(lp1865
I20415
aI2
aa(lp1866
I20415
aI3
aa(lp1867
I20415
aI4
aa(lp1868
I20418
aI0
aa(lp1869
I20418
aI1
aa(lp1870
I20418
aI2
aa(lp1871
I20418
aI3
aa(lp1872
I20418
aI4
aa(lp1873
I20460
aI0
aa(lp1874
I20460
aI2
aa(lp1875
I20460
aI3
aa(lp1876
I20460
aI4
aa(lp1877
I20641
aI0
aa(lp1878
I20641
aI1
aa(lp1879
I20641
aI2
aa(lp1880
I20641
aI3
aa(lp1881
I20641
aI4
aa(lp1882
I20655
aI0
aa(lp1883
I20655
aI1
aa(lp1884
I20655
aI4
aa(lp1885
I20657
aI0
aa(lp1886
I20657
aI1
aa(lp1887
I20657
aI2
aa(lp1888
I20657
aI3
aa(lp1889
I20657
aI4
aa(lp1890
I20774
aI1
aa(lp1891
I20774
aI2
aa(lp1892
I20774
aI4
aa(lp1893
I20777
aI0
aa(lp1894
I20801
aI0
aa(lp1895
I20801
aI1
aa(lp1896
I20801
aI2
aa(lp1897
I20801
aI3
aa(lp1898
I20801
aI4
aa(lp1899
I20806
aI1
aa(lp1900
I20812
aI0
aa(lp1901
I20812
aI1
aa(lp1902
I20812
aI2
aa(lp1903
I20812
aI3
aa(lp1904
I20812
aI4
aa(lp1905
I20816
aI0
aa(lp1906
I20816
aI1
aa(lp1907
I20816
aI2
aa(lp1908
I20816
aI3
aa(lp1909
I20816
aI4
aa(lp1910
I20824
aI2
aa(lp1911
I20824
aI3
aa(lp1912
I20846
aI0
aa(lp1913
I20846
aI1
aa(lp1914
I20846
aI2
aa(lp1915
I20846
aI3
aa(lp1916
I20846
aI4
aa(lp1917
I20847
aI3
aa(lp1918
I20883
aI3
aa(lp1919
I20894
aI0
aa(lp1920
I20894
aI4
aa(lp1921
I20919
aI0
aa(lp1922
I20919
aI1
aa(lp1923
I20919
aI2
aa(lp1924
I20919
aI3
aa(lp1925
I20919
aI4
aa(lp1926
I20956
aI0
aa(lp1927
I20956
aI1
aa(lp1928
I20956
aI3
aa(lp1929
I20956
aI4
aa(lp1930
I20994
aI0
aa(lp1931
I20994
aI1
aa(lp1932
I20994
aI3
aa(lp1933
I20994
aI4
aa(lp1934
I21040
aI0
aa(lp1935
I21040
aI1
aa(lp1936
I21040
aI2
aa(lp1937
I21040
aI3
aa(lp1938
I21040
aI4
aa(lp1939
I21040
aI5
aa(lp1940
I21101
aI1
aa(lp1941
I21101
aI2
aa(lp1942
I21101
aI3
aa(lp1943
I21101
aI4
aa(lp1944
I21118
aI0
aa(lp1945
I21118
aI3
aa(lp1946
I21176
aI1
aa(lp1947
I21176
aI2
aa(lp1948
I21176
aI3
aa(lp1949
I21176
aI4
aa(lp1950
I21215
aI0
aa(lp1951
I21215
aI1
aa(lp1952
I21215
aI4
aa(lp1953
I21344
aI2
aa(lp1954
I21399
aI1
aa(lp1955
I21399
aI3
aa(lp1956
I21399
aI4
aa(lp1957
I21406
aI0
aa(lp1958
I21406
aI1
aa(lp1959
I21406
aI2
aa(lp1960
I21406
aI3
aa(lp1961
I21406
aI4
aa(lp1962
I21458
aI0
aa(lp1963
I21458
aI1
aa(lp1964
I21458
aI2
aa(lp1965
I21458
aI3
aa(lp1966
I21458
aI4
aa(lp1967
I21481
aI0
aa(lp1968
I21481
aI1
aa(lp1969
I21481
aI2
aa(lp1970
I21481
aI4
aa(lp1971
I21555
aI1
aa(lp1972
I21555
aI2
aa(lp1973
I21555
aI3
aa(lp1974
I21555
aI4
aa(lp1975
I21579
aI2
aa(lp1976
I21579
aI3
aa(lp1977
I21589
aI3
aa(lp1978
I21593
aI0
aa(lp1979
I21593
aI1
aa(lp1980
I21593
aI2
aa(lp1981
I21693
aI0
aa(lp1982
I21693
aI2
aa(lp1983
I21693
aI3
aa(lp1984
I21693
aI4
aa(lp1985
I21698
aI0
aa(lp1986
I21698
aI1
aa(lp1987
I21698
aI2
aa(lp1988
I21698
aI3
aa(lp1989
I21698
aI4
aa(lp1990
I21805
aI0
aa(lp1991
I21805
aI1
aa(lp1992
I21805
aI2
aa(lp1993
I21805
aI3
aa(lp1994
I21805
aI4
aa(lp1995
I21834
aI0
aa(lp1996
I21834
aI3
aa(lp1997
I21834
aI4
aa(lp1998
I21924
aI0
aa(lp1999
I21924
aI1
aa(lp2000
I21924
aI2
aa(lp2001
I21924
aI3
aa(lp2002
I21924
aI4
aa(lp2003
I21957
aI0
aa(lp2004
I21957
aI1
aa(lp2005
I21957
aI2
aa(lp2006
I21957
aI4
aa(lp2007
I21991
aI0
aa(lp2008
I21991
aI1
aa(lp2009
I21991
aI2
aa(lp2010
I21991
aI3
aa(lp2011
I21991
aI4
aa(lp2012
I22115
aI0
aa(lp2013
I22115
aI1
aa(lp2014
I22115
aI2
aa(lp2015
I22115
aI3
aa(lp2016
I22115
aI4
aa(lp2017
I22164
aI3
aa(lp2018
I22169
aI0
aa(lp2019
I22169
aI1
aa(lp2020
I22169
aI4
aa(lp2021
I22177
aI1
aa(lp2022
I22177
aI4
aa(lp2023
I22194
aI0
aa(lp2024
I22194
aI1
aa(lp2025
I22194
aI2
aa(lp2026
I22194
aI3
aa(lp2027
I22218
aI0
aa(lp2028
I22218
aI3
aa(lp2029
I22218
aI4
aa(lp2030
I22223
aI0
aa(lp2031
I22223
aI1
aa(lp2032
I22223
aI2
aa(lp2033
I22223
aI3
aa(lp2034
I22223
aI4
aa(lp2035
I22269
aI0
aa(lp2036
I22269
aI1
aa(lp2037
I22269
aI2
aa(lp2038
I22269
aI3
aa(lp2039
I22269
aI4
aa(lp2040
I22293
aI4
aa(lp2041
I22350
aI0
aa(lp2042
I22350
aI1
aa(lp2043
I22350
aI2
aa(lp2044
I22350
aI3
aa(lp2045
I22406
aI0
aa(lp2046
I22406
aI1
aa(lp2047
I22406
aI2
aa(lp2048
I22415
aI0
aa(lp2049
I22415
aI1
aa(lp2050
I22415
aI2
aa(lp2051
I22415
aI3
aa(lp2052
I22415
aI4
aa(lp2053
I22429
aI2
aa(lp2054
I22429
aI3
aa(lp2055
I22477
aI0
aa(lp2056
I22477
aI1
aa(lp2057
I22477
aI2
aa(lp2058
I22477
aI3
aa(lp2059
I22477
aI4
aa(lp2060
I22507
aI0
aa(lp2061
I22507
aI1
aa(lp2062
I22507
aI2
aa(lp2063
I22507
aI3
aa(lp2064
I22507
aI4
aa(lp2065
I22520
aI0
aa(lp2066
I22520
aI2
aa(lp2067
I22520
aI4
aa(lp2068
I22553
aI0
aa(lp2069
I22553
aI2
aa(lp2070
I22553
aI3
aa(lp2071
I22553
aI4
aa(lp2072
I22590
aI0
aa(lp2073
I22590
aI1
aa(lp2074
I22590
aI2
aa(lp2075
I22590
aI3
aa(lp2076
I22590
aI4
aa(lp2077
I22598
aI0
aa(lp2078
I22598
aI1
aa(lp2079
I22598
aI2
aa(lp2080
I22598
aI3
aa(lp2081
I22598
aI4
aa(lp2082
I22731
aI0
aa(lp2083
I22731
aI1
aa(lp2084
I22731
aI2
aa(lp2085
I22731
aI3
aa(lp2086
I22731
aI4
aa(lp2087
I22761
aI0
aa(lp2088
I22761
aI1
aa(lp2089
I22761
aI2
aa(lp2090
I22761
aI3
aa(lp2091
I22761
aI4
aa(lp2092
I22801
aI0
aa(lp2093
I22801
aI1
aa(lp2094
I22801
aI2
aa(lp2095
I22801
aI3
aa(lp2096
I22801
aI4
aa(lp2097
I22823
aI0
aa(lp2098
I22823
aI1
aa(lp2099
I22823
aI2
aa(lp2100
I22835
aI0
aa(lp2101
I22835
aI2
aa(lp2102
I22835
aI3
aa(lp2103
I22835
aI4
aa(lp2104
I22856
aI2
aa(lp2105
I22856
aI4
aa(lp2106
I22870
aI0
aa(lp2107
I22870
aI2
aa(lp2108
I22870
aI3
aa(lp2109
I22870
aI4
aa(lp2110
I23024
aI0
aa(lp2111
I23024
aI1
aa(lp2112
I23024
aI2
aa(lp2113
I23024
aI3
aa(lp2114
I23024
aI4
aa(lp2115
I23081
aI0
aa(lp2116
I23081
aI1
aa(lp2117
I23081
aI2
aa(lp2118
I23081
aI3
aa(lp2119
I23081
aI4
aa(lp2120
I23104
aI0
aa(lp2121
I23104
aI1
aa(lp2122
I23104
aI2
aa(lp2123
I23104
aI3
aa(lp2124
I23104
aI4
aa(lp2125
I23124
aI1
aa(lp2126
I23138
aI0
aa(lp2127
I23168
aI1
aa(lp2128
I23194
aI1
aa(lp2129
I23363
aI0
aa(lp2130
I23363
aI1
aa(lp2131
I23363
aI2
aa(lp2132
I23363
aI3
aa(lp2133
I23363
aI4
aa(lp2134
I23421
aI0
aa(lp2135
I23421
aI2
aa(lp2136
I23421
aI3
aa(lp2137
I23434
aI0
aa(lp2138
I23434
aI4
aa(lp2139
I23461
aI0
aa(lp2140
I23461
aI1
aa(lp2141
I23461
aI2
aa(lp2142
I23461
aI3
aa(lp2143
I23461
aI4
aa(lp2144
I23504
aI0
aa(lp2145
I23504
aI1
aa(lp2146
I23504
aI2
aa(lp2147
I23504
aI3
aa(lp2148
I23504
aI4
aa(lp2149
I23505
aI0
aa(lp2150
I23505
aI1
aa(lp2151
I23505
aI2
aa(lp2152
I23505
aI3
aa(lp2153
I23505
aI4
aa(lp2154
I23548
aI0
aa(lp2155
I23548
aI1
aa(lp2156
I23548
aI2
aa(lp2157
I23548
aI4
aa(lp2158
I23578
aI0
aa(lp2159
I23578
aI1
aa(lp2160
I23578
aI2
aa(lp2161
I23578
aI3
aa(lp2162
I23578
aI4
aa(lp2163
I23585
aI1
aa(lp2164
I23605
aI0
aa(lp2165
I23689
aI0
aa(lp2166
I23689
aI1
aa(lp2167
I23689
aI2
aa(lp2168
I23689
aI3
aa(lp2169
I23689
aI4
aa(lp2170
I23732
aI0
aa(lp2171
I23732
aI1
aa(lp2172
I23732
aI2
aa(lp2173
I23732
aI3
aa(lp2174
I23732
aI4
aa(lp2175
I23759
aI0
aa(lp2176
I23759
aI2
aa(lp2177
I23759
aI3
aa(lp2178
I23895
aI0
aa(lp2179
I23895
aI1
aa(lp2180
I23895
aI2
aa(lp2181
I23895
aI3
aa(lp2182
I23895
aI4
aa(lp2183
I23992
aI1
aa(lp2184
I23992
aI2
aa(lp2185
I23992
aI3
aa(lp2186
I24018
aI1
aa(lp2187
I24057
aI0
aa(lp2188
I24057
aI1
aa(lp2189
I24057
aI2
aa(lp2190
I24057
aI3
aa(lp2191
I24057
aI4
aa(lp2192
I24063
aI1
aa(lp2193
I24063
aI3
aa(lp2194
I24063
aI4
aa(lp2195
I24085
aI4
aa(lp2196
I24109
aI4
aa(lp2197
I24126
aI0
aa(lp2198
I24126
aI1
aa(lp2199
I24126
aI2
aa(lp2200
I24126
aI3
aa(lp2201
I24126
aI4
aa(lp2202
I24218
aI0
aa(lp2203
I24218
aI1
aa(lp2204
I24218
aI2
aa(lp2205
I24218
aI3
aa(lp2206
I24218
aI4
aa(lp2207
I24266
aI1
aa(lp2208
I24266
aI2
aa(lp2209
I24266
aI3
aa(lp2210
I24331
aI0
aa(lp2211
I24331
aI1
aa(lp2212
I24331
aI2
aa(lp2213
I24331
aI3
aa(lp2214
I24331
aI4
aa(lp2215
I24332
aI0
aa(lp2216
I24332
aI3
aa(lp2217
I24332
aI4
aa(lp2218
I24367
aI0
aa(lp2219
I24367
aI1
aa(lp2220
I24367
aI2
aa(lp2221
I24367
aI3
aa(lp2222
I24367
aI4
aa(lp2223
I24423
aI3
aa(lp2224
I24423
aI4
aa(lp2225
I24450
aI0
aa(lp2226
I24450
aI1
aa(lp2227
I24450
aI2
aa(lp2228
I24450
aI3
aa(lp2229
I24450
aI4
aa(lp2230
I24541
aI0
aa(lp2231
I24541
aI1
aa(lp2232
I24541
aI2
aa(lp2233
I24541
aI3
aa(lp2234
I24541
aI4
aa(lp2235
I24615
aI3
aa(lp2236
I24621
aI4
aa(lp2237
I24624
aI0
aa(lp2238
I24624
aI2
aa(lp2239
I24624
aI3
aa(lp2240
I24624
aI4
aa(lp2241
I24646
aI0
aa(lp2242
I24646
aI1
aa(lp2243
I24646
aI2
aa(lp2244
I24646
aI3
aa(lp2245
I24646
aI4
aa(lp2246
I24649
aI1
aa(lp2247
I24649
aI3
aa(lp2248
I24649
aI4
aa(lp2249
I24716
aI0
aa(lp2250
I24716
aI2
aa(lp2251
I24716
aI3
aa(lp2252
I24716
aI4
aa(lp2253
I24775
aI0
aa(lp2254
I24775
aI2
aa(lp2255
I24775
aI4
aa(lp2256
I24854
aI0
aa(lp2257
I24854
aI1
aa(lp2258
I24960
aI0
aa(lp2259
I24960
aI1
aa(lp2260
I24960
aI2
aa(lp2261
I24960
aI3
aa(lp2262
I24960
aI4
aa(lp2263
I24974
aI0
aa(lp2264
I24974
aI1
aa(lp2265
I24974
aI2
aa(lp2266
I24974
aI3
aa(lp2267
I24974
aI4
aa(lp2268
I25057
aI1
aa(lp2269
I25057
aI2
aa(lp2270
I25057
aI3
aa(lp2271
I25113
aI3
aa(lp2272
I25119
aI2
aa(lp2273
I25119
aI3
aa(lp2274
I25119
aI4
aa(lp2275
I25172
aI0
aa(lp2276
I25172
aI1
aa(lp2277
I25172
aI2
aa(lp2278
I25172
aI3
aa(lp2279
I25172
aI4
aa(lp2280
I25209
aI0
aa(lp2281
I25209
aI1
aa(lp2282
I25209
aI2
aa(lp2283
I25209
aI3
aa(lp2284
I25209
aI4
aa(lp2285
I25212
aI0
aa(lp2286
I25212
aI1
aa(lp2287
I25212
aI2
aa(lp2288
I25212
aI3
aa(lp2289
I25212
aI4
aa(lp2290
I25224
aI0
aa(lp2291
I25224
aI1
aa(lp2292
I25224
aI2
aa(lp2293
I25224
aI3
aa(lp2294
I25224
aI4
aa(lp2295
I25243
aI0
aa(lp2296
I25243
aI1
aa(lp2297
I25243
aI2
aa(lp2298
I25243
aI3
aa(lp2299
I25243
aI4
aa(lp2300
I25269
aI0
aa(lp2301
I25269
aI2
aa(lp2302
I25269
aI3
aa(lp2303
I25269
aI4
aa(lp2304
I25312
aI0
aa(lp2305
I25342
aI1
aa(lp2306
I25342
aI2
aa(lp2307
I25342
aI3
aa(lp2308
I25422
aI0
aa(lp2309
I25422
aI2
aa(lp2310
I25422
aI3
aa(lp2311
I25423
aI3
aa(lp2312
I25433
aI0
aa(lp2313
I25433
aI1
aa(lp2314
I25433
aI2
aa(lp2315
I25433
aI3
aa(lp2316
I25433
aI4
aa(lp2317
I25481
aI0
aa(lp2318
I25481
aI1
aa(lp2319
I25481
aI2
aa(lp2320
I25481
aI3
aa(lp2321
I25481
aI4
aa(lp2322
I25494
aI0
aa(lp2323
I25494
aI1
aa(lp2324
I25494
aI2
aa(lp2325
I25494
aI3
aa(lp2326
I25494
aI4
aa(lp2327
I25504
aI0
aa(lp2328
I25504
aI1
aa(lp2329
I25504
aI2
aa(lp2330
I25504
aI3
aa(lp2331
I25504
aI4
aa(lp2332
I25585
aI2
aa(lp2333
I25586
aI1
aa(lp2334
I25586
aI4
aa(lp2335
I25607
aI4
aa(lp2336
I25612
aI0
aa(lp2337
I25612
aI1
aa(lp2338
I25612
aI4
aa(lp2339
I25666
aI0
aa(lp2340
I25666
aI1
aa(lp2341
I25666
aI2
aa(lp2342
I25666
aI4
aa(lp2343
I25691
aI0
aa(lp2344
I25691
aI1
aa(lp2345
I25691
aI2
aa(lp2346
I25691
aI3
aa(lp2347
I25691
aI4
aa(lp2348
I25746
aI0
aa(lp2349
I25746
aI1
aa(lp2350
I25746
aI2
aa(lp2351
I25746
aI3
aa(lp2352
I25810
aI0
aa(lp2353
I25810
aI2
aa(lp2354
I25810
aI3
aa(lp2355
I25810
aI4
aa(lp2356
I25849
aI0
aa(lp2357
I25849
aI2
aa(lp2358
I25849
aI4
aa(lp2359
I25887
aI4
aa(lp2360
I25899
aI2
aa(lp2361
I26019
aI0
aa(lp2362
I26019
aI1
aa(lp2363
I26019
aI2
aa(lp2364
I26019
aI3
aa(lp2365
I26019
aI4
aa(lp2366
I26029
aI0
aa(lp2367
I26029
aI1
aa(lp2368
I26029
aI2
aa(lp2369
I26029
aI3
aa(lp2370
I26029
aI4
aa(lp2371
I26029
aI5
aa(lp2372
I26033
aI0
aa(lp2373
I26033
aI1
aa(lp2374
I26033
aI2
aa(lp2375
I26033
aI4
aa(lp2376
I26257
aI0
aa(lp2377
I26257
aI1
aa(lp2378
I26257
aI2
aa(lp2379
I26257
aI3
aa(lp2380
I26257
aI4
aa(lp2381
I26263
aI0
aa(lp2382
I26263
aI1
aa(lp2383
I26266
aI0
aa(lp2384
I26266
aI1
aa(lp2385
I26266
aI2
aa(lp2386
I26266
aI3
aa(lp2387
I26266
aI4
aa(lp2388
I26288
aI3
aa(lp2389
I26338
aI0
aa(lp2390
I26338
aI1
aa(lp2391
I26338
aI2
aa(lp2392
I26338
aI3
aa(lp2393
I26338
aI4
aa(lp2394
I26356
aI0
aa(lp2395
I26356
aI1
aa(lp2396
I26403
aI2
aa(lp2397
I26403
aI3
aa(lp2398
I26420
aI1
aa(lp2399
I26461
aI4
aa(lp2400
I26469
aI1
aa(lp2401
I26469
aI2
aa(lp2402
I26469
aI3
aa(lp2403
I26469
aI4
aa(lp2404
I26474
aI0
aa(lp2405
I26474
aI1
aa(lp2406
I26474
aI3
aa(lp2407
I26474
aI4
aa(lp2408
I26493
aI0
aa(lp2409
I26493
aI1
aa(lp2410
I26493
aI2
aa(lp2411
I26493
aI4
aa(lp2412
I26541
aI2
aa(lp2413
I26541
aI4
aa(lp2414
I26571
aI4
aa(lp2415
I26698
aI0
aa(lp2416
I26768
aI0
aa(lp2417
I26768
aI1
aa(lp2418
I26768
aI3
aa(lp2419
I26768
aI4
aa(lp2420
I26785
aI0
aa(lp2421
I26785
aI1
aa(lp2422
I26785
aI2
aa(lp2423
I26785
aI3
aa(lp2424
I26785
aI4
aa(lp2425
I26803
aI0
aa(lp2426
I26803
aI1
aa(lp2427
I26803
aI2
aa(lp2428
I26803
aI3
aa(lp2429
I26817
aI0
aa(lp2430
I26817
aI2
aa(lp2431
I26891
aI0
aa(lp2432
I26891
aI1
aa(lp2433
I26891
aI2
aa(lp2434
I26891
aI3
aa(lp2435
I26891
aI4
aa(lp2436
I26906
aI1
aa(lp2437
I26911
aI0
aa(lp2438
I26911
aI1
aa(lp2439
I26911
aI3
aa(lp2440
I26911
aI4
aa(lp2441
I27013
aI0
aa(lp2442
I27013
aI1
aa(lp2443
I27013
aI3
aa(lp2444
I27013
aI4
aa(lp2445
I27065
aI2
aa(lp2446
I27097
aI1
aa(lp2447
I27097
aI2
aa(lp2448
I27097
aI4
aa(lp2449
I27131
aI0
aa(lp2450
I27131
aI1
aa(lp2451
I27131
aI3
aa(lp2452
I27131
aI4
aa(lp2453
I27190
aI0
aa(lp2454
I27190
aI1
aa(lp2455
I27190
aI2
aa(lp2456
I27190
aI3
aa(lp2457
I27190
aI4
aa(lp2458
I27312
aI0
aa(lp2459
I27312
aI1
aa(lp2460
I27312
aI2
aa(lp2461
I27312
aI3
aa(lp2462
I27312
aI4
aa(lp2463
I27529
aI2
aa(lp2464
I27636
aI0
aa(lp2465
I27636
aI1
aa(lp2466
I27636
aI4
aa(lp2467
I27653
aI0
aa(lp2468
I27653
aI1
aa(lp2469
I27653
aI2
aa(lp2470
I27653
aI3
aa(lp2471
I27653
aI4
aa(lp2472
I27660
aI4
aa(lp2473
I27676
aI0
aa(lp2474
I27676
aI1
aa(lp2475
I27676
aI2
aa(lp2476
I27676
aI3
aa(lp2477
I27676
aI4
aa(lp2478
I27694
aI0
aa(lp2479
I27694
aI1
aa(lp2480
I27694
aI3
aa(lp2481
I27694
aI4
aa(lp2482
I27777
aI0
aa(lp2483
I27777
aI1
aa(lp2484
I27777
aI2
aa(lp2485
I27777
aI3
aa(lp2486
I27777
aI4
aa(lp2487
I27813
aI0
aa(lp2488
I27813
aI2
aa(lp2489
I27836
aI0
aa(lp2490
I27836
aI2
aa(lp2491
I27836
aI3
aa(lp2492
I27836
aI4
aa(lp2493
I27914
aI0
aa(lp2494
I27914
aI1
aa(lp2495
I27914
aI3
aa(lp2496
I27914
aI4
aa(lp2497
I28124
aI0
aa(lp2498
I28124
aI1
aa(lp2499
I28124
aI3
aa(lp2500
I28124
aI4
aa(lp2501
I28163
aI0
aa(lp2502
I28163
aI2
aa(lp2503
I28163
aI3
aa(lp2504
I28163
aI4
aa(lp2505
I28208
aI1
aa(lp2506
I28208
aI2
aa(lp2507
I28208
aI3
aa(lp2508
I28208
aI4
aa(lp2509
I28256
aI0
aa(lp2510
I28256
aI1
aa(lp2511
I28256
aI2
aa(lp2512
I28256
aI3
aa(lp2513
I28256
aI4
aa(lp2514
I28350
aI0
aa(lp2515
I28350
aI1
aa(lp2516
I28350
aI4
aa(lp2517
I28375
aI0
aa(lp2518
I28375
aI1
aa(lp2519
I28375
aI2
aa(lp2520
I28375
aI3
aa(lp2521
I28375
aI4
aa(lp2522
I28385
aI0
aa(lp2523
I28385
aI2
aa(lp2524
I28385
aI3
aa(lp2525
I28385
aI4
aa(lp2526
I28397
aI0
aa(lp2527
I28397
aI1
aa(lp2528
I28397
aI2
aa(lp2529
I28397
aI3
aa(lp2530
I28397
aI4
aa(lp2531
I28432
aI0
aa(lp2532
I28432
aI1
aa(lp2533
I28432
aI4
aa(lp2534
I28459
aI1
aa(lp2535
I28459
aI2
aa(lp2536
I28459
aI3
aa(lp2537
I28459
aI4
aa(lp2538
I28468
aI0
aa(lp2539
I28468
aI2
aa(lp2540
I28468
aI4
aa(lp2541
I28500
aI1
aa(lp2542
I28500
aI2
aa(lp2543
I28500
aI3
aa(lp2544
I28500
aI4
aa(lp2545
I28524
aI0
aa(lp2546
I28524
aI1
aa(lp2547
I28524
aI2
aa(lp2548
I28524
aI3
aa(lp2549
I28620
aI1
aa(lp2550
I28620
aI2
aa(lp2551
I28620
aI3
aa(lp2552
I28620
aI4
aa(lp2553
I28690
aI0
aa(lp2554
I28690
aI1
aa(lp2555
I28690
aI2
aa(lp2556
I28690
aI3
aa(lp2557
I28690
aI4
aa(lp2558
I28691
aI0
aa(lp2559
I28691
aI3
aa(lp2560
I28845
aI2
aa(lp2561
I28845
aI4
aa(lp2562
I28880
aI0
aa(lp2563
I28880
aI1
aa(lp2564
I28880
aI2
aa(lp2565
I28880
aI3
aa(lp2566
I28891
aI0
aa(lp2567
I28891
aI1
aa(lp2568
I28891
aI2
aa(lp2569
I28891
aI3
aa(lp2570
I28891
aI4
aa(lp2571
I28897
aI3
aa(lp2572
I28907
aI0
aa(lp2573
I28907
aI1
aa(lp2574
I28907
aI2
aa(lp2575
I28907
aI3
aa(lp2576
I28907
aI4
aa(lp2577
I28975
aI2
aa(lp2578
I28978
aI0
aa(lp2579
I28978
aI1
aa(lp2580
I28978
aI2
aa(lp2581
I28978
aI3
aa(lp2582
I28978
aI4
aa(lp2583
I29022
aI0
aa(lp2584
I29022
aI4
aa(lp2585
I29083
aI0
aa(lp2586
I29083
aI1
aa(lp2587
I29083
aI2
aa(lp2588
I29083
aI3
aa(lp2589
I29083
aI4
aa(lp2590
I29105
aI3
aa(lp2591
I29105
aI4
aa(lp2592
I29123
aI0
aa(lp2593
I29123
aI2
aa(lp2594
I29202
aI0
aa(lp2595
I29202
aI2
aa(lp2596
I29202
aI3
aa(lp2597
I29202
aI4
aa(lp2598
I29233
aI0
aa(lp2599
I29233
aI3
aa(lp2600
I29251
aI0
aa(lp2601
I29251
aI1
aa(lp2602
I29251
aI2
aa(lp2603
I29251
aI3
aa(lp2604
I29251
aI4
aa(lp2605
I29258
aI0
aa(lp2606
I29258
aI1
aa(lp2607
I29258
aI3
aa(lp2608
I29288
aI3
aa(lp2609
I29294
aI0
aa(lp2610
I29294
aI2
aa(lp2611
I29318
aI0
aa(lp2612
I29318
aI1
aa(lp2613
I29318
aI3
aa(lp2614
I29318
aI4
aa(lp2615
I29421
aI0
aa(lp2616
I29421
aI1
aa(lp2617
I29421
aI2
aa(lp2618
I29421
aI3
aa(lp2619
I29421
aI4
aa(lp2620
I29450
aI0
aa(lp2621
I29450
aI1
aa(lp2622
I29450
aI2
aa(lp2623
I29450
aI3
aa(lp2624
I29450
aI4
aa(lp2625
I29457
aI0
aa(lp2626
I29460
aI0
aa(lp2627
I29460
aI1
aa(lp2628
I29460
aI2
aa(lp2629
I29460
aI3
aa(lp2630
I29460
aI4
aa(lp2631
I29533
aI0
aa(lp2632
I29536
aI0
aa(lp2633
I29536
aI1
aa(lp2634
I29536
aI2
aa(lp2635
I29574
aI0
aa(lp2636
I29574
aI1
aa(lp2637
I29574
aI2
aa(lp2638
I29574
aI3
aa(lp2639
I29574
aI4
aa(lp2640
I29579
aI0
aa(lp2641
I29579
aI1
aa(lp2642
I29579
aI2
aa(lp2643
I29579
aI3
aa(lp2644
I29579
aI4
aa(lp2645
I29590
aI0
aa(lp2646
I29590
aI1
aa(lp2647
I29590
aI2
aa(lp2648
I29590
aI3
aa(lp2649
I29590
aI4
aa(lp2650
I29784
aI0
aa(lp2651
I29784
aI1
aa(lp2652
I29784
aI3
aa(lp2653
I29784
aI4
aa(lp2654
I29824
aI0
aa(lp2655
I29824
aI1
aa(lp2656
I29824
aI2
aa(lp2657
I29824
aI3
aa(lp2658
I29824
aI4
aa(lp2659
I29840
aI2
aa(lp2660
I29840
aI3
aa(lp2661
I29876
aI1
aa(lp2662
I29876
aI2
aa(lp2663
I29876
aI4
aa(lp2664
I29879
aI0
aa(lp2665
I29879
aI1
aa(lp2666
I29879
aI2
aa(lp2667
I29879
aI3
aa(lp2668
I29879
aI4
aa(lp2669
I29888
aI0
aa(lp2670
I29888
aI1
aa(lp2671
I29888
aI2
aa(lp2672
I29888
aI3
aa(lp2673
I29888
aI4
aa(lp2674
I29916
aI1
aa(lp2675
I29916
aI2
aa(lp2676
I29916
aI4
aa(lp2677
I29917
aI2
aa(lp2678
I29924
aI0
aa(lp2679
I29924
aI1
aa(lp2680
I29924
aI2
aa(lp2681
I29924
aI3
aa(lp2682
I29924
aI4
aa(lp2683
I29931
aI0
aa(lp2684
I29931
aI1
aa(lp2685
I29931
aI2
aa(lp2686
I29931
aI3
aa(lp2687
I29931
aI4
aa(lp2688
I29946
aI2
aa(lp2689
I30008
aI0
aa(lp2690
I30008
aI1
aa(lp2691
I30008
aI2
aa(lp2692
I30008
aI3
aa(lp2693
I30008
aI4
aa(lp2694
I30092
aI0
aa(lp2695
I30092
aI1
aa(lp2696
I30092
aI2
aa(lp2697
I30092
aI3
aa(lp2698
I30092
aI4
aa(lp2699
I30096
aI1
aa(lp2700
I30096
aI2
aa(lp2701
I30096
aI3
aa(lp2702
I30096
aI4
aa(lp2703
I30144
aI0
aa(lp2704
I30144
aI1
aa(lp2705
I30144
aI2
aa(lp2706
I30144
aI3
aa(lp2707
I30144
aI4
aa(lp2708
I30188
aI0
aa(lp2709
I30188
aI1
aa(lp2710
I30188
aI2
aa(lp2711
I30188
aI3
aa(lp2712
I30188
aI4
aa(lp2713
I30305
aI0
aa(lp2714
I30305
aI1
aa(lp2715
I30305
aI2
aa(lp2716
I30305
aI3
aa(lp2717
I30331
aI0
aa(lp2718
I30331
aI1
aa(lp2719
I30340
aI0
aa(lp2720
I30340
aI1
aa(lp2721
I30340
aI3
aa(lp2722
I30395
aI4
aa(lp2723
I30411
aI3
aa(lp2724
I30481
aI3
aa(lp2725
I30552
aI0
aa(lp2726
I30552
aI1
aa(lp2727
I30552
aI2
aa(lp2728
I30552
aI3
aa(lp2729
I30552
aI4
aa(lp2730
I30561
aI0
aa(lp2731
I30561
aI2
aa(lp2732
I30561
aI3
aa(lp2733
I30561
aI4
aa(lp2734
I30607
aI0
aa(lp2735
I30607
aI1
aa(lp2736
I30607
aI2
aa(lp2737
I30607
aI3
aa(lp2738
I30607
aI4
aa(lp2739
I30686
aI0
aa(lp2740
I30686
aI2
aa(lp2741
I30686
aI3
aa(lp2742
I30686
aI4
aa(lp2743
I30748
aI0
aa(lp2744
I30748
aI3
aa(lp2745
I30812
aI3
aa(lp2746
I30817
aI1
aa(lp2747
I30817
aI2
aa(lp2748
I30817
aI4
aa(lp2749
I30820
aI0
aa(lp2750
I30820
aI1
aa(lp2751
I30820
aI2
aa(lp2752
I30820
aI3
aa(lp2753
I30820
aI4
aa(lp2754
I30833
aI0
aa(lp2755
I30833
aI1
aa(lp2756
I30833
aI2
aa(lp2757
I30833
aI4
aa(lp2758
I30870
aI1
aa(lp2759
I30870
aI2
aa(lp2760
I30870
aI3
aa(lp2761
I30870
aI4
aa(lp2762
I30906
aI0
aa(lp2763
I30906
aI1
aa(lp2764
I30906
aI4
aa(lp2765
I30980
aI0
aa(lp2766
I30980
aI1
aa(lp2767
I30980
aI2
aa(lp2768
I30980
aI3
aa(lp2769
I30980
aI4
aa(lp2770
I31009
aI0
aa(lp2771
I31009
aI1
aa(lp2772
I31009
aI2
aa(lp2773
I31009
aI3
aa(lp2774
I31009
aI4
aa(lp2775
I31015
aI0
aa(lp2776
I31015
aI1
aa(lp2777
I31015
aI2
aa(lp2778
I31015
aI3
aa(lp2779
I31020
aI0
aa(lp2780
I31020
aI1
aa(lp2781
I31020
aI2
aa(lp2782
I31020
aI3
aa(lp2783
I31020
aI4
aa(lp2784
I31063
aI1
aa(lp2785
I31063
aI3
aa(lp2786
I31063
aI4
aa(lp2787
I31070
aI0
aa(lp2788
I31098
aI1
aa(lp2789
I31098
aI2
aa(lp2790
I31098
aI4
aa(lp2791
I31143
aI0
aa(lp2792
I31143
aI4
aa(lp2793
I31177
aI0
aa(lp2794
I31177
aI1
aa(lp2795
I31177
aI2
aa(lp2796
I31177
aI4
aa(lp2797
I31203
aI0
aa(lp2798
I31203
aI1
aa(lp2799
I31203
aI2
aa(lp2800
I31203
aI3
aa(lp2801
I31203
aI4
aa(lp2802
I31253
aI0
aa(lp2803
I31253
aI1
aa(lp2804
I31253
aI2
aa(lp2805
I31253
aI3
aa(lp2806
I31253
aI4
aa(lp2807
I31271
aI1
aa(lp2808
I31291
aI3
aa(lp2809
I31291
aI4
aa(lp2810
I31303
aI1
aa(lp2811
I31339
aI0
aa(lp2812
I31339
aI1
aa(lp2813
I31339
aI2
aa(lp2814
I31339
aI3
aa(lp2815
I31339
aI4
aa(lp2816
I31346
aI3
aa(lp2817
I31371
aI0
aa(lp2818
I31387
aI2
aa(lp2819
I31387
aI4
aa(lp2820
I31399
aI4
aa(lp2821
I31405
aI0
aa(lp2822
I31405
aI1
aa(lp2823
I31405
aI2
aa(lp2824
I31405
aI3
aa(lp2825
I31405
aI4
aa(lp2826
I31486
aI2
aa(lp2827
I31486
aI3
aa(lp2828
I31488
aI0
aa(lp2829
I31488
aI1
aa(lp2830
I31488
aI3
aa(lp2831
I31488
aI4
aa(lp2832
I31624
aI0
aa(lp2833
I31624
aI1
aa(lp2834
I31624
aI2
aa(lp2835
I31624
aI3
aa(lp2836
I31624
aI4
aa(lp2837
I31657
aI0
aa(lp2838
I31657
aI1
aa(lp2839
I31657
aI2
aa(lp2840
I31657
aI3
aa(lp2841
I31657
aI4
aa(lp2842
I31681
aI0
aa(lp2843
I31681
aI1
aa(lp2844
I31681
aI2
aa(lp2845
I31709
aI3
aa(lp2846
I31709
aI4
aa(lp2847
I31709
aI5
aa(lp2848
I31777
aI0
aa(lp2849
I31777
aI3
aa(lp2850
I31777
aI4
aa(lp2851
I31785
aI0
aa(lp2852
I31785
aI2
aa(lp2853
I31785
aI4
aa(lp2854
I31868
aI0
aa(lp2855
I31868
aI1
aa(lp2856
I31868
aI2
aa(lp2857
I31868
aI3
aa(lp2858
I31868
aI4
aa(lp2859
I31892
aI0
aa(lp2860
I31892
aI1
aa(lp2861
I31892
aI2
aa(lp2862
I31892
aI3
aa(lp2863
I31902
aI0
aa(lp2864
I31902
aI4
aa(lp2865
I31903
aI0
aa(lp2866
I31903
aI1
aa(lp2867
I31903
aI2
aa(lp2868
I31903
aI3
aa(lp2869
I31903
aI4
aa(lp2870
I31958
aI0
aa(lp2871
I31958
aI1
aa(lp2872
I31958
aI2
aa(lp2873
I31958
aI4
aa(lp2874
I32048
aI0
aa(lp2875
I32048
aI1
aa(lp2876
I32048
aI2
aa(lp2877
I32048
aI3
aa(lp2878
I32048
aI4
aa(lp2879
I32068
aI0
aa(lp2880
I32068
aI2
aa(lp2881
I32080
aI1
aa(lp2882
I32123
aI0
aa(lp2883
I32123
aI1
aa(lp2884
I32123
aI2
aa(lp2885
I32123
aI3
aa(lp2886
I32143
aI0
aa(lp2887
I32143
aI1
aa(lp2888
I32143
aI2
aa(lp2889
I32143
aI3
aa(lp2890
I32143
aI4
aa(lp2891
I32173
aI4
aa(lp2892
I32321
aI0
aa(lp2893
I32321
aI1
aa(lp2894
I32321
aI2
aa(lp2895
I32321
aI3
aa(lp2896
I32321
aI4
aa(lp2897
I32335
aI0
aa(lp2898
I32335
aI1
aa(lp2899
I32335
aI2
aa(lp2900
I32335
aI3
aa(lp2901
I32335
aI4
aa(lp2902
I32382
aI0
aa(lp2903
I32382
aI1
aa(lp2904
I32382
aI2
aa(lp2905
I32382
aI3
aa(lp2906
I32382
aI4
aa(lp2907
I32391
aI0
aa(lp2908
I32391
aI1
aa(lp2909
I32391
aI2
aa(lp2910
I32391
aI3
aa(lp2911
I32391
aI4
aa(lp2912
I32407
aI0
aa(lp2913
I32407
aI1
aa(lp2914
I32407
aI2
aa(lp2915
I32407
aI3
aa(lp2916
I32407
aI4
aa(lp2917
I32470
aI1
aa(lp2918
I32470
aI2
aa(lp2919
I32470
aI3
aa(lp2920
I32470
aI4
aa(lp2921
I32497
aI0
aa(lp2922
I32497
aI1
aa(lp2923
I32497
aI2
aa(lp2924
I32497
aI3
aa(lp2925
I32497
aI4
aa(lp2926
I32505
aI0
aa(lp2927
I32505
aI1
aa(lp2928
I32505
aI2
aa(lp2929
I32505
aI3
aa(lp2930
I32505
aI4
aa(lp2931
I32519
aI0
aa(lp2932
I32519
aI1
aa(lp2933
I32519
aI2
aa(lp2934
I32519
aI3
aa(lp2935
I32519
aI4
aa(lp2936
I32581
aI1
aa(lp2937
I32581
aI2
aa(lp2938
I32581
aI3
aa(lp2939
I32581
aI4
aa(lp2940
I32653
aI1
aa(lp2941
I32653
aI2
aa(lp2942
I32653
aI4
aa(lp2943
I32655
aI4
aa(lp2944
I32658
aI0
aa(lp2945
I32658
aI1
aa(lp2946
I32677
aI1
aa(lp2947
I32696
aI0
aa(lp2948
I32696
aI1
aa(lp2949
I32696
aI2
aa(lp2950
I32696
aI3
aa(lp2951
I32696
aI4
aa(lp2952
I32699
aI0
aa(lp2953
I32699
aI4
aa(lp2954
I32877
aI0
aa(lp2955
I32877
aI1
aa(lp2956
I32877
aI2
aa(lp2957
I32877
aI3
aa(lp2958
I32877
aI4
aa(lp2959
I32886
aI0
aa(lp2960
I32886
aI1
aa(lp2961
I32886
aI2
aa(lp2962
I32886
aI3
aa(lp2963
I32886
aI4
aa(lp2964
I32911
aI4
aa(lp2965
I32916
aI0
aa(lp2966
I32916
aI3
aa(lp2967
I32925
aI0
aa(lp2968
I32925
aI1
aa(lp2969
I32925
aI2
aa(lp2970
I32925
aI3
aa(lp2971
I32925
aI4
aa(lp2972
I33006
aI0
aa(lp2973
I33006
aI1
aa(lp2974
I33006
aI2
aa(lp2975
I33006
aI4
aa(lp2976
I33057
aI1
aa(lp2977
I33057
aI3
aa(lp2978
I33057
aI4
aa(lp2979
I33075
aI0
aa(lp2980
I33122
aI0
aa(lp2981
I33122
aI1
aa(lp2982
I33122
aI2
aa(lp2983
I33122
aI3
aa(lp2984
I33122
aI4
aa(lp2985
I33151
aI0
aa(lp2986
I33151
aI1
aa(lp2987
I33151
aI2
aa(lp2988
I33151
aI3
aa(lp2989
I33151
aI4
aa(lp2990
I33174
aI0
aa(lp2991
I33174
aI2
aa(lp2992
I33174
aI3
aa(lp2993
I33205
aI0
aa(lp2994
I33205
aI1
aa(lp2995
I33205
aI2
aa(lp2996
I33205
aI3
aa(lp2997
I33205
aI4
aa(lp2998
I33257
aI0
aa(lp2999
I33257
aI1
aa(lp3000
I33257
aI4
aa(lp3001
I33281
aI4
aa(lp3002
I33312
aI0
aa(lp3003
I33312
aI1
aa(lp3004
I33312
aI2
aa(lp3005
I33312
aI3
aa(lp3006
I33312
aI4
aa(lp3007
I33321
aI0
aa(lp3008
I33321
aI1
aa(lp3009
I33321
aI2
aa(lp3010
I33321
aI3
aa(lp3011
I33321
aI4
aa(lp3012
I33384
aI1
aa(lp3013
I33384
aI3
aa(lp3014
I33384
aI4
aa(lp3015
I33393
aI0
aa(lp3016
I33393
aI2
aa(lp3017
I33393
aI3
aa(lp3018
I33393
aI4
aa(lp3019
I33414
aI2
aa(lp3020
I33414
aI3
aa(lp3021
I33414
aI4
aa(lp3022
I33416
aI0
aa(lp3023
I33416
aI1
aa(lp3024
I33416
aI2
aa(lp3025
I33427
aI0
aa(lp3026
I33427
aI1
aa(lp3027
I33427
aI2
aa(lp3028
I33427
aI3
aa(lp3029
I33427
aI4
aa(lp3030
I33494
aI0
aa(lp3031
I33494
aI1
aa(lp3032
I33494
aI2
aa(lp3033
I33494
aI3
aa(lp3034
I33510
aI4
aa(lp3035
I33520
aI3
aa(lp3036
I33520
aI4
aa(lp3037
I33522
aI0
aa(lp3038
I33522
aI1
aa(lp3039
I33522
aI2
aa(lp3040
I33522
aI3
aa(lp3041
I33522
aI4
aa(lp3042
I33567
aI0
aa(lp3043
I33567
aI1
aa(lp3044
I33567
aI2
aa(lp3045
I33567
aI3
aa(lp3046
I33567
aI4
aa(lp3047
I33613
aI0
aa(lp3048
I33613
aI1
aa(lp3049
I33613
aI2
aa(lp3050
I33613
aI3
aa(lp3051
I33613
aI4
aa(lp3052
I33639
aI0
aa(lp3053
I33639
aI1
aa(lp3054
I33639
aI2
aa(lp3055
I33639
aI3
aa(lp3056
I33656
aI1
aa(lp3057
I33656
aI3
aa(lp3058
I33656
aI4
aa(lp3059
I33687
aI0
aa(lp3060
I33687
aI1
aa(lp3061
I33687
aI2
aa(lp3062
I33687
aI3
aa(lp3063
I33687
aI4
aa(lp3064
I33690
aI0
aa(lp3065
I33690
aI2
aa(lp3066
I33690
aI3
aa(lp3067
I33690
aI4
aa(lp3068
I33733
aI0
aa(lp3069
I33733
aI1
aa(lp3070
I33733
aI2
aa(lp3071
I33733
aI3
aa(lp3072
I33733
aI4
aa(lp3073
I33750
aI1
aa(lp3074
I33750
aI5
aa(lp3075
I33794
aI0
aa(lp3076
I33794
aI1
aa(lp3077
I33794
aI2
aa(lp3078
I33794
aI3
aa(lp3079
I33794
aI4
aa(lp3080
I33882
aI0
aa(lp3081
I33882
aI1
aa(lp3082
I33882
aI2
aa(lp3083
I33882
aI3
aa(lp3084
I33882
aI4
aa(lp3085
I33918
aI0
aa(lp3086
I33918
aI2
aa(lp3087
I33918
aI3
aa(lp3088
I33960
aI0
aa(lp3089
I33960
aI1
aa(lp3090
I33960
aI2
aa(lp3091
I33960
aI3
aa(lp3092
I33960
aI4
aa(lp3093
I34026
aI0
aa(lp3094
I34026
aI1
aa(lp3095
I34026
aI2
aa(lp3096
I34026
aI3
aa(lp3097
I34026
aI4
aa(lp3098
I34101
aI2
aa(lp3099
I34130
aI2
aa(lp3100
I34130
aI4
aa(lp3101
I34135
aI0
aa(lp3102
I34135
aI1
aa(lp3103
I34135
aI4
aa(lp3104
I34146
aI0
aa(lp3105
I34146
aI2
aa(lp3106
I34146
aI3
aa(lp3107
I34146
aI4
aa(lp3108
I34363
aI0
aa(lp3109
I34363
aI1
aa(lp3110
I34363
aI2
aa(lp3111
I34363
aI3
aa(lp3112
I34363
aI4
aa(lp3113
I34442
aI0
aa(lp3114
I34442
aI1
aa(lp3115
I34442
aI2
aa(lp3116
I34442
aI3
aa(lp3117
I34442
aI4
aa(lp3118
I34455
aI0
aa(lp3119
I34455
aI1
aa(lp3120
I34455
aI2
aa(lp3121
I34455
aI3
aa(lp3122
I34543
aI0
aa(lp3123
I34543
aI1
aa(lp3124
I34543
aI2
aa(lp3125
I34543
aI4
aa(lp3126
I34572
aI1
aa(lp3127
I34572
aI2
aa(lp3128
I34572
aI3
aa(lp3129
I34572
aI4
aa(lp3130
I34589
aI0
aa(lp3131
I34589
aI1
aa(lp3132
I34589
aI2
aa(lp3133
I34589
aI3
aa(lp3134
I34589
aI4
aa(lp3135
I34591
aI0
aa(lp3136
I34591
aI1
aa(lp3137
I34591
aI2
aa(lp3138
I34591
aI3
aa(lp3139
I34626
aI0
aa(lp3140
I34626
aI2
aa(lp3141
I34626
aI3
aa(lp3142
I34626
aI4
aa(lp3143
I34633
aI0
aa(lp3144
I34633
aI1
aa(lp3145
I34633
aI2
aa(lp3146
I34633
aI3
aa(lp3147
I34633
aI4
aa(lp3148
I34637
aI0
aa(lp3149
I34637
aI1
aa(lp3150
I34637
aI2
aa(lp3151
I34637
aI3
aa(lp3152
I34637
aI4
aa(lp3153
I34669
aI0
aa(lp3154
I34669
aI1
aa(lp3155
I34669
aI2
aa(lp3156
I34669
aI3
aa(lp3157
I34669
aI4
aa(lp3158
I34709
aI0
aa(lp3159
I34709
aI1
aa(lp3160
I34709
aI2
aa(lp3161
I34709
aI3
aa(lp3162
I34709
aI4
aa(lp3163
I34712
aI0
aa(lp3164
I34712
aI2
aa(lp3165
I34712
aI3
aa(lp3166
I34712
aI4
aa(lp3167
I34785
aI0
aa(lp3168
I34785
aI1
aa(lp3169
I34785
aI2
aa(lp3170
I34785
aI3
aa(lp3171
I34785
aI4
aa(lp3172
I34861
aI0
aa(lp3173
I34861
aI1
aa(lp3174
I34861
aI2
aa(lp3175
I34861
aI3
aa(lp3176
I34861
aI4
aa(lp3177
I34906
aI0
aa(lp3178
I34906
aI1
aa(lp3179
I34906
aI2
aa(lp3180
I34906
aI3
aa(lp3181
I35023
aI0
aa(lp3182
I35023
aI3
aa(lp3183
I35071
aI0
aa(lp3184
I35071
aI1
aa(lp3185
I35071
aI2
aa(lp3186
I35071
aI3
aa(lp3187
I35182
aI0
aa(lp3188
I35182
aI1
aa(lp3189
I35182
aI2
aa(lp3190
I35182
aI3
aa(lp3191
I35182
aI4
aa(lp3192
I35223
aI0
aa(lp3193
I35223
aI1
aa(lp3194
I35223
aI2
aa(lp3195
I35223
aI3
aa(lp3196
I35223
aI4
aa(lp3197
I35271
aI1
aa(lp3198
I35271
aI2
aa(lp3199
I35271
aI3
aa(lp3200
I35271
aI4
aa(lp3201
I35276
aI0
aa(lp3202
I35276
aI2
aa(lp3203
I35276
aI3
aa(lp3204
I35276
aI4
aa(lp3205
I35381
aI0
aa(lp3206
I35381
aI2
aa(lp3207
I35381
aI3
aa(lp3208
I35381
aI4
aa(lp3209
I35391
aI0
aa(lp3210
I35391
aI1
aa(lp3211
I35391
aI2
aa(lp3212
I35391
aI3
aa(lp3213
I35391
aI4
aa(lp3214
I35420
aI0
aa(lp3215
I35420
aI1
aa(lp3216
I35420
aI2
aa(lp3217
I35420
aI3
aa(lp3218
I35430
aI0
aa(lp3219
I35430
aI1
aa(lp3220
I35430
aI2
aa(lp3221
I35430
aI3
aa(lp3222
I35430
aI4
aa(lp3223
I35447
aI0
aa(lp3224
I35447
aI1
aa(lp3225
I35447
aI2
aa(lp3226
I35447
aI4
aa(lp3227
I35470
aI0
aa(lp3228
I35470
aI1
aa(lp3229
I35470
aI2
aa(lp3230
I35470
aI3
aa(lp3231
I35470
aI4
aa(lp3232
I35566
aI0
aa(lp3233
I35566
aI2
aa(lp3234
I35566
aI3
aa(lp3235
I35566
aI4
aa(lp3236
I35618
aI0
aa(lp3237
I35618
aI2
aa(lp3238
I35618
aI4
aa(lp3239
I35633
aI0
aa(lp3240
I35633
aI1
aa(lp3241
I35633
aI2
aa(lp3242
I35633
aI3
aa(lp3243
I35633
aI4
aa(lp3244
I35695
aI0
aa(lp3245
I35695
aI2
aa(lp3246
I35695
aI3
aa(lp3247
I35695
aI4
aa(lp3248
I35719
aI0
aa(lp3249
I35719
aI1
aa(lp3250
I35719
aI2
aa(lp3251
I35719
aI3
aa(lp3252
I35719
aI4
aa(lp3253
I35925
aI1
aa(lp3254
I36068
aI0
aa(lp3255
I36068
aI1
aa(lp3256
I36068
aI2
aa(lp3257
I36068
aI3
aa(lp3258
I36068
aI4
aa(lp3259
I36078
aI0
aa(lp3260
I36078
aI1
aa(lp3261
I36078
aI2
aa(lp3262
I36078
aI3
aa(lp3263
I36078
aI4
aa(lp3264
I36103
aI0
aa(lp3265
I36103
aI1
aa(lp3266
I36103
aI2
aa(lp3267
I36103
aI3
aa(lp3268
I36103
aI4
aa(lp3269
I36236
aI1
aa(lp3270
I36236
aI2
aa(lp3271
I36236
aI3
aa(lp3272
I36236
aI4
aa(lp3273
I36263
aI3
aa(lp3274
I36263
aI4
aa(lp3275
I36286
aI0
aa(lp3276
I36286
aI1
aa(lp3277
I36286
aI2
aa(lp3278
I36286
aI3
aa(lp3279
I36286
aI4
aa(lp3280
I36314
aI0
aa(lp3281
I36314
aI1
aa(lp3282
I36454
aI0
aa(lp3283
I36454
aI1
aa(lp3284
I36454
aI2
aa(lp3285
I36454
aI3
aa(lp3286
I36454
aI4
aa(lp3287
I36522
aI4
aa(lp3288
I36561
aI0
aa(lp3289
I36561
aI1
aa(lp3290
I36561
aI2
aa(lp3291
I36561
aI4
aa(lp3292
I36567
aI2
aa(lp3293
I36567
aI4
aa(lp3294
I36596
aI0
aa(lp3295
I36596
aI1
aa(lp3296
I36596
aI2
aa(lp3297
I36596
aI3
aa(lp3298
I36596
aI4
aa(lp3299
I36599
aI0
aa(lp3300
I36599
aI1
aa(lp3301
I36599
aI2
aa(lp3302
I36599
aI3
aa(lp3303
I36607
aI0
aa(lp3304
I36607
aI1
aa(lp3305
I36607
aI2
aa(lp3306
I36607
aI3
aa(lp3307
I36607
aI4
aa(lp3308
I36649
aI0
aa(lp3309
I36649
aI1
aa(lp3310
I36649
aI3
aa(lp3311
I36709
aI0
aa(lp3312
I36709
aI1
aa(lp3313
I36709
aI3
aa(lp3314
I36709
aI4
aa(lp3315
I36767
aI1
aa(lp3316
I36767
aI3
aa(lp3317
I36778
aI2
aa(lp3318
I36778
aI4
aa(lp3319
I36790
aI0
aa(lp3320
I36790
aI1
aa(lp3321
I36790
aI2
aa(lp3322
I36790
aI3
aa(lp3323
I36790
aI4
aa(lp3324
I36812
aI0
aa(lp3325
I36812
aI1
aa(lp3326
I36812
aI2
aa(lp3327
I36812
aI3
aa(lp3328
I36812
aI4
aa(lp3329
I36872
aI2
aa(lp3330
I36942
aI1
aa(lp3331
I36942
aI3
aa(lp3332
I36942
aI4
aa(lp3333
I37012
aI0
aa(lp3334
I37012
aI1
aa(lp3335
I37012
aI2
aa(lp3336
I37012
aI3
aa(lp3337
I37012
aI4
aa(lp3338
I37039
aI1
aa(lp3339
I37039
aI4
aa(lp3340
I37050
aI1
aa(lp3341
I37050
aI2
aa(lp3342
I37077
aI4
aa(lp3343
I37116
aI0
aa(lp3344
I37116
aI1
aa(lp3345
I37116
aI2
aa(lp3346
I37116
aI4
aa(lp3347
I37144
aI0
aa(lp3348
I37144
aI1
aa(lp3349
I37144
aI2
aa(lp3350
I37144
aI4
aa(lp3351
I37163
aI0
aa(lp3352
I37163
aI1
aa(lp3353
I37163
aI2
aa(lp3354
I37163
aI3
aa(lp3355
I37163
aI4
aa(lp3356
I37175
aI0
aa(lp3357
I37175
aI1
aa(lp3358
I37175
aI2
aa(lp3359
I37175
aI3
aa(lp3360
I37175
aI4
aa(lp3361
I37305
aI0
aa(lp3362
I37305
aI1
aa(lp3363
I37305
aI2
aa(lp3364
I37305
aI4
aa(lp3365
I37484
aI0
aa(lp3366
I37484
aI1
aa(lp3367
I37484
aI2
aa(lp3368
I37484
aI3
aa(lp3369
I37484
aI4
aa(lp3370
I37502
aI0
aa(lp3371
I37502
aI1
aa(lp3372
I37502
aI2
aa(lp3373
I37502
aI3
aa(lp3374
I37502
aI4
aa(lp3375
I37507
aI0
aa(lp3376
I37507
aI1
aa(lp3377
I37507
aI2
aa(lp3378
I37507
aI3
aa(lp3379
I37507
aI4
aa(lp3380
I37540
aI1
aa(lp3381
I37641
aI0
aa(lp3382
I37641
aI1
aa(lp3383
I37641
aI2
aa(lp3384
I37641
aI3
aa(lp3385
I37641
aI4
aa(lp3386
I37707
aI0
aa(lp3387
I37707
aI1
aa(lp3388
I37707
aI2
aa(lp3389
I37707
aI3
aa(lp3390
I37707
aI4
aa(lp3391
I37863
aI0
aa(lp3392
I37863
aI1
aa(lp3393
I37863
aI2
aa(lp3394
I37863
aI3
aa(lp3395
I37863
aI4
aa(lp3396
I37928
aI0
aa(lp3397
I37928
aI1
aa(lp3398
I37928
aI2
aa(lp3399
I37928
aI3
aa(lp3400
I37928
aI4
aa(lp3401
I37982
aI0
aa(lp3402
I37982
aI1
aa(lp3403
I37982
aI2
aa(lp3404
I37982
aI3
aa(lp3405
I37982
aI4
aa(lp3406
I37987
aI1
aa(lp3407
I37987
aI2
aa(lp3408
I37987
aI3
aa(lp3409
I38108
aI2
aa(lp3410
I38108
aI3
aa(lp3411
I38108
aI4
aa(lp3412
I38127
aI0
aa(lp3413
I38127
aI1
aa(lp3414
I38127
aI2
aa(lp3415
I38127
aI3
aa(lp3416
I38127
aI4
aa(lp3417
I38134
aI0
aa(lp3418
I38134
aI1
aa(lp3419
I38134
aI2
aa(lp3420
I38134
aI3
aa(lp3421
I38134
aI4
aa(lp3422
I38188
aI0
aa(lp3423
I38188
aI1
aa(lp3424
I38188
aI2
aa(lp3425
I38188
aI3
aa(lp3426
I38188
aI4
aa(lp3427
I38226
aI0
aa(lp3428
I38226
aI1
aa(lp3429
I38226
aI3
aa(lp3430
I38240
aI1
aa(lp3431
I38261
aI0
aa(lp3432
I38261
aI1
aa(lp3433
I38280
aI0
aa(lp3434
I38280
aI1
aa(lp3435
I38280
aI2
aa(lp3436
I38280
aI4
aa(lp3437
I38297
aI0
aa(lp3438
I38297
aI1
aa(lp3439
I38297
aI2
aa(lp3440
I38297
aI3
aa(lp3441
I38297
aI4
aa(lp3442
I38318
aI0
aa(lp3443
I38318
aI2
aa(lp3444
I38318
aI4
aa(lp3445
I38371
aI0
aa(lp3446
I38371
aI1
aa(lp3447
I38371
aI2
aa(lp3448
I38371
aI3
aa(lp3449
I38371
aI4
aa(lp3450
I38373
aI0
aa(lp3451
I38373
aI1
aa(lp3452
I38373
aI2
aa(lp3453
I38373
aI3
aa(lp3454
I38373
aI4
aa(lp3455
I38392
aI0
aa(lp3456
I38392
aI3
aa(lp3457
I38392
aI4
aa(lp3458
I38412
aI1
aa(lp3459
I38412
aI2
aa(lp3460
I38412
aI3
aa(lp3461
I38446
aI4
aa(lp3462
I38455
aI0
aa(lp3463
I38455
aI2
aa(lp3464
I38455
aI3
aa(lp3465
I38455
aI4
aa(lp3466
I38463
aI0
aa(lp3467
I38463
aI1
aa(lp3468
I38463
aI2
aa(lp3469
I38463
aI3
aa(lp3470
I38463
aI4
aa(lp3471
I38504
aI0
aa(lp3472
I38504
aI1
aa(lp3473
I38504
aI2
aa(lp3474
I38504
aI4
aa(lp3475
I38548
aI0
aa(lp3476
I38548
aI1
aa(lp3477
I38548
aI2
aa(lp3478
I38548
aI3
aa(lp3479
I38548
aI4
aa(lp3480
I38623
aI1
aa(lp3481
I38623
aI2
aa(lp3482
I38623
aI3
aa(lp3483
I38623
aI4
aa(lp3484
I38640
aI2
aa(lp3485
I38640
aI3
aa(lp3486
I38640
aI4
aa(lp3487
I38700
aI3
aa(lp3488
I38713
aI1
aa(lp3489
I38713
aI4
aa(lp3490
I38734
aI0
aa(lp3491
I38734
aI1
aa(lp3492
I38734
aI2
aa(lp3493
I38734
aI3
aa(lp3494
I38734
aI4
aa(lp3495
I38807
aI2
aa(lp3496
I38807
aI3
aa(lp3497
I38807
aI4
aa(lp3498
I38821
aI0
aa(lp3499
I38821
aI4
aa(lp3500
I38828
aI0
aa(lp3501
I38828
aI1
aa(lp3502
I38828
aI2
aa(lp3503
I38828
aI3
aa(lp3504
I38828
aI4
aa(lp3505
I38842
aI0
aa(lp3506
I38842
aI1
aa(lp3507
I38842
aI2
aa(lp3508
I38842
aI3
aa(lp3509
I38842
aI4
aa(lp3510
I38858
aI0
aa(lp3511
I38858
aI1
aa(lp3512
I38858
aI2
aa(lp3513
I38858
aI3
aa(lp3514
I38860
aI0
aa(lp3515
I38860
aI1
aa(lp3516
I38860
aI2
aa(lp3517
I38860
aI3
aa(lp3518
I38860
aI4
aa(lp3519
I38929
aI0
aa(lp3520
I38929
aI1
aa(lp3521
I38929
aI2
aa(lp3522
I38929
aI3
aa(lp3523
I38929
aI4
aa(lp3524
I38933
aI0
aa(lp3525
I38933
aI1
aa(lp3526
I38933
aI2
aa(lp3527
I38933
aI3
aa(lp3528
I38933
aI4
aa(lp3529
I38981
aI2
aa(lp3530
I38997
aI0
aa(lp3531
I38997
aI2
aa(lp3532
I38997
aI3
aa(lp3533
I38997
aI4
aa(lp3534
I39025
aI0
aa(lp3535
I39025
aI1
aa(lp3536
I39025
aI2
aa(lp3537
I39025
aI3
aa(lp3538
I39043
aI0
aa(lp3539
I39043
aI3
aa(lp3540
I39043
aI4
aa(lp3541
I39045
aI0
aa(lp3542
I39045
aI1
aa(lp3543
I39045
aI2
aa(lp3544
I39045
aI3
aa(lp3545
I39045
aI4
aa(lp3546
I39084
aI1
aa(lp3547
I39084
aI2
aa(lp3548
I39084
aI3
aa(lp3549
I39136
aI0
aa(lp3550
I39136
aI1
aa(lp3551
I39136
aI2
aa(lp3552
I39136
aI3
aa(lp3553
I39136
aI4
aa(lp3554
I39226
aI0
aa(lp3555
I39226
aI1
aa(lp3556
I39226
aI2
aa(lp3557
I39226
aI3
aa(lp3558
I39226
aI4
aa(lp3559
I39249
aI0
aa(lp3560
I39314
aI0
aa(lp3561
I39314
aI1
aa(lp3562
I39314
aI2
aa(lp3563
I39314
aI3
aa(lp3564
I39314
aI4
aa(lp3565
I39356
aI0
aa(lp3566
I39356
aI1
aa(lp3567
I39356
aI3
aa(lp3568
I39381
aI2
aa(lp3569
I39381
aI3
aa(lp3570
I39381
aI4
aa(lp3571
I39397
aI0
aa(lp3572
I39397
aI1
aa(lp3573
I39397
aI2
aa(lp3574
I39397
aI3
aa(lp3575
I39397
aI4
aa(lp3576
I39555
aI0
aa(lp3577
I39555
aI1
aa(lp3578
I39555
aI2
aa(lp3579
I39555
aI3
aa(lp3580
I39555
aI4
aa(lp3581
I39642
aI0
aa(lp3582
I39642
aI1
aa(lp3583
I39668
aI0
aa(lp3584
I39668
aI1
aa(lp3585
I39668
aI2
aa(lp3586
I39668
aI3
aa(lp3587
I39726
aI1
aa(lp3588
I39726
aI2
aa(lp3589
I39726
aI3
aa(lp3590
I39745
aI0
aa(lp3591
I39745
aI1
aa(lp3592
I39745
aI4
aa(lp3593
I39839
aI0
aa(lp3594
I39839
aI1
aa(lp3595
I39839
aI2
aa(lp3596
I39839
aI4
aa(lp3597
I39924
aI0
aa(lp3598
I39924
aI2
aa(lp3599
I39924
aI3
aa(lp3600
I39924
aI4
aa(lp3601
I40013
aI0
aa(lp3602
I40013
aI2
aa(lp3603
I40046
aI0
aa(lp3604
I40046
aI1
aa(lp3605
I40046
aI2
aa(lp3606
I40046
aI3
aa(lp3607
I40046
aI4
aa(lp3608
I40067
aI0
aa(lp3609
I40067
aI1
aa(lp3610
I40067
aI2
aa(lp3611
I40067
aI3
aa(lp3612
I40067
aI4
aa(lp3613
I40114
aI1
aa(lp3614
I40114
aI2
aa(lp3615
I40114
aI3
aa(lp3616
I40114
aI4
aa(lp3617
I40125
aI0
aa(lp3618
I40125
aI1
aa(lp3619
I40125
aI2
aa(lp3620
I40125
aI3
aa(lp3621
I40125
aI4
aa(lp3622
I40238
aI0
aa(lp3623
I40238
aI2
aa(lp3624
I40238
aI3
aa(lp3625
I40238
aI4
aa(lp3626
I40254
aI0
aa(lp3627
I40254
aI1
aa(lp3628
I40254
aI2
aa(lp3629
I40254
aI3
aa(lp3630
I40254
aI4
aa(lp3631
I40287
aI1
aa(lp3632
I40287
aI2
aa(lp3633
I40287
aI3
aa(lp3634
I40287
aI4
aa(lp3635
I40335
aI2
aa(lp3636
I40335
aI3
aa(lp3637
I40352
aI2
aa(lp3638
I40352
aI4
aa(lp3639
I40355
aI0
aa(lp3640
I40355
aI2
aa(lp3641
I40355
aI3
aa(lp3642
I40355
aI4
aa(lp3643
I40372
aI0
aa(lp3644
I40372
aI1
aa(lp3645
I40372
aI2
aa(lp3646
I40372
aI3
aa(lp3647
I40372
aI4
aa(lp3648
I40398
aI1
aa(lp3649
I40398
aI2
aa(lp3650
I40398
aI3
aa(lp3651
I40398
aI4
aa(lp3652
I40451
aI0
aa(lp3653
I40451
aI1
aa(lp3654
I40451
aI2
aa(lp3655
I40451
aI3
aa.