(lp0
(lp1
I71
aI1
aa(lp2
I157
aI2
aa(lp3
I320
aI1
aa(lp4
I346
aI0
aa(lp5
I346
aI1
aa(lp6
I346
aI3
aa(lp7
I346
aI4
aa(lp8
I407
aI1
aa(lp9
I555
aI0
aa(lp10
I628
aI0
aa(lp11
I712
aI3
aa(lp12
I712
aI4
aa(lp13
I804
aI1
aa(lp14
I873
aI1
aa(lp15
I890
aI0
aa(lp16
I890
aI1
aa(lp17
I890
aI4
aa(lp18
I958
aI2
aa(lp19
I966
aI0
aa(lp20
I995
aI4
aa(lp21
I1034
aI0
aa(lp22
I1034
aI1
aa(lp23
I1035
aI4
aa(lp24
I1075
aI2
aa(lp25
I1075
aI3
aa(lp26
I1075
aI4
aa(lp27
I1091
aI0
aa(lp28
I1378
aI1
aa(lp29
I1378
aI3
aa(lp30
I1478
aI0
aa(lp31
I1498
aI0
aa(lp32
I1498
aI1
aa(lp33
I1498
aI2
aa(lp34
I1498
aI3
aa(lp35
I1498
aI4
aa(lp36
I1560
aI1
aa(lp37
I1630
aI0
aa(lp38
I1630
aI3
aa(lp39
I1655
aI2
aa(lp40
I1655
aI3
aa(lp41
I1743
aI1
aa(lp42
I1833
aI1
aa(lp43
I1833
aI2
aa(lp44
I1833
aI4
aa(lp45
I1853
aI3
aa(lp46
I1853
aI4
aa(lp47
I2062
aI3
aa(lp48
I2147
aI1
aa(lp49
I2480
aI0
aa(lp50
I2583
aI1
aa(lp51
I2604
aI1
aa(lp52
I2604
aI3
aa(lp53
I2661
aI2
aa(lp54
I2661
aI3
aa(lp55
I2669
aI1
aa(lp56
I2669
aI2
aa(lp57
I2669
aI3
aa(lp58
I2669
aI4
aa(lp59
I2735
aI1
aa(lp60
I2793
aI1
aa(lp61
I2793
aI2
aa(lp62
I2854
aI1
aa(lp63
I2867
aI2
aa(lp64
I3337
aI1
aa(lp65
I3472
aI4
aa(lp66
I3560
aI3
aa(lp67
I3572
aI0
aa(lp68
I3572
aI1
aa(lp69
I3621
aI4
aa(lp70
I3946
aI0
aa(lp71
I3946
aI2
aa(lp72
I4012
aI1
aa(lp73
I4041
aI0
aa(lp74
I4041
aI2
aa(lp75
I4049
aI0
aa(lp76
I4049
aI3
aa(lp77
I4064
aI2
aa(lp78
I4186
aI0
aa(lp79
I4186
aI1
aa(lp80
I4186
aI4
aa(lp81
I4187
aI1
aa(lp82
I4187
aI2
aa(lp83
I4187
aI4
aa(lp84
I4347
aI1
aa(lp85
I4432
aI1
aa(lp86
I4544
aI0
aa(lp87
I4650
aI0
aa(lp88
I4650
aI2
aa(lp89
I4650
aI3
aa(lp90
I4666
aI0
aa(lp91
I4668
aI4
aa(lp92
I4716
aI0
aa(lp93
I4716
aI1
aa(lp94
I4716
aI3
aa(lp95
I4716
aI4
aa(lp96
I4744
aI2
aa(lp97
I4880
aI4
aa(lp98
I4914
aI1
aa(lp99
I4914
aI3
aa(lp100
I5049
aI0
aa(lp101
I5071
aI2
aa(lp102
I5110
aI3
aa(lp103
I5110
aI4
aa(lp104
I5152
aI1
aa(lp105
I5190
aI1
aa(lp106
I5476
aI2
aa(lp107
I5694
aI0
aa(lp108
I5694
aI1
aa(lp109
I5851
aI2
aa(lp110
I5851
aI4
aa(lp111
I5945
aI1
aa(lp112
I5945
aI3
aa(lp113
I6316
aI4
aa(lp114
I6388
aI3
aa(lp115
I6422
aI0
aa(lp116
I6443
aI0
aa(lp117
I6585
aI0
aa(lp118
I6585
aI3
aa(lp119
I6585
aI4
aa(lp120
I6638
aI2
aa(lp121
I6899
aI3
aa(lp122
I6986
aI3
aa(lp123
I7028
aI1
aa(lp124
I7028
aI3
aa(lp125
I7040
aI2
aa(lp126
I7089
aI1
aa(lp127
I7165
aI0
aa(lp128
I7165
aI1
aa(lp129
I7165
aI2
aa(lp130
I7165
aI3
aa(lp131
I7165
aI4
aa(lp132
I7190
aI0
aa(lp133
I7190
aI1
aa(lp134
I7190
aI4
aa(lp135
I7284
aI0
aa(lp136
I7319
aI0
aa(lp137
I7390
aI4
aa(lp138
I7437
aI1
aa(lp139
I7437
aI4
aa(lp140
I7457
aI0
aa(lp141
I7457
aI1
aa(lp142
I7457
aI2
aa(lp143
I7457
aI3
aa(lp144
I7483
aI1
aa(lp145
I7484
aI1
aa(lp146
I7514
aI0
aa(lp147
I7522
aI2
aa(lp148
I7522
aI3
aa(lp149
I7533
aI4
aa(lp150
I7540
aI2
aa(lp151
I7540
aI3
aa(lp152
I7577
aI1
aa(lp153
I7583
aI0
aa(lp154
I7583
aI1
aa(lp155
I7590
aI0
aa(lp156
I7754
aI2
aa(lp157
I7776
aI0
aa(lp158
I7776
aI1
aa(lp159
I7776
aI3
aa(lp160
I7858
aI0
aa(lp161
I7916
aI0
aa(lp162
I7916
aI2
aa(lp163
I7916
aI3
aa(lp164
I7916
aI4
aa(lp165
I7996
aI0
aa(lp166
I7996
aI3
aa(lp167
I8013
aI0
aa(lp168
I8115
aI1
aa(lp169
I8147
aI0
aa(lp170
I8147
aI2
aa(lp171
I8147
aI4
aa(lp172
I8148
aI1
aa(lp173
I8153
aI0
aa(lp174
I8153
aI1
aa(lp175
I8265
aI0
aa(lp176
I8265
aI3
aa(lp177
I8265
aI4
aa(lp178
I8358
aI4
aa(lp179
I8508
aI0
aa(lp180
I8508
aI1
aa(lp181
I8508
aI3
aa(lp182
I8749
aI4
aa(lp183
I8957
aI2
aa(lp184
I8957
aI3
aa(lp185
I8957
aI4
aa(lp186
I9149
aI1
aa(lp187
I9169
aI2
aa(lp188
I9169
aI3
aa(lp189
I9252
aI1
aa(lp190
I9300
aI0
aa(lp191
I9300
aI2
aa(lp192
I9300
aI3
aa(lp193
I9340
aI0
aa(lp194
I9395
aI4
aa(lp195
I9432
aI0
aa(lp196
I9432
aI3
aa(lp197
I9458
aI0
aa(lp198
I9458
aI1
aa(lp199
I9458
aI2
aa(lp200
I9458
aI4
aa(lp201
I9539
aI1
aa(lp202
I9539
aI4
aa(lp203
I9653
aI3
aa(lp204
I9731
aI0
aa(lp205
I9731
aI1
aa(lp206
I9731
aI2
aa(lp207
I9731
aI3
aa(lp208
I9731
aI4
aa(lp209
I9756
aI4
aa(lp210
I9810
aI4
aa(lp211
I9878
aI4
aa(lp212
I9880
aI4
aa(lp213
I9920
aI0
aa(lp214
I9920
aI1
aa(lp215
I9920
aI2
aa(lp216
I10031
aI2
aa(lp217
I10300
aI0
aa(lp218
I10304
aI0
aa(lp219
I10304
aI1
aa(lp220
I10304
aI2
aa(lp221
I10304
aI3
aa(lp222
I10414
aI0
aa(lp223
I10488
aI0
aa(lp224
I10488
aI1
aa(lp225
I10488
aI2
aa(lp226
I10629
aI0
aa(lp227
I10629
aI2
aa(lp228
I10662
aI4
aa(lp229
I10814
aI4
aa(lp230
I10840
aI3
aa(lp231
I11068
aI2
aa(lp232
I11068
aI4
aa(lp233
I11156
aI1
aa(lp234
I11265
aI4
aa(lp235
I11306
aI1
aa(lp236
I11306
aI2
aa(lp237
I11306
aI4
aa(lp238
I11526
aI1
aa(lp239
I11661
aI1
aa(lp240
I11691
aI0
aa(lp241
I11691
aI1
aa(lp242
I11691
aI2
aa(lp243
I11691
aI3
aa(lp244
I11691
aI4
aa(lp245
I11715
aI1
aa(lp246
I11715
aI2
aa(lp247
I11715
aI4
aa(lp248
I11772
aI2
aa(lp249
I11772
aI3
aa(lp250
I11838
aI4
aa(lp251
I11870
aI3
aa(lp252
I12072
aI0
aa(lp253
I12072
aI4
aa(lp254
I12193
aI0
aa(lp255
I12193
aI1
aa(lp256
I12193
aI2
aa(lp257
I12193
aI3
aa(lp258
I12193
aI4
aa(lp259
I12257
aI0
aa(lp260
I12328
aI2
aa(lp261
I12328
aI4
aa(lp262
I12490
aI0
aa(lp263
I12762
aI1
aa(lp264
I12812
aI0
aa(lp265
I12812
aI1
aa(lp266
I12823
aI0
aa(lp267
I12879
aI3
aa(lp268
I12892
aI1
aa(lp269
I12892
aI2
aa(lp270
I13344
aI4
aa(lp271
I13450
aI1
aa(lp272
I13450
aI2
aa(lp273
I13450
aI3
aa(lp274
I13450
aI4
aa(lp275
I13459
aI0
aa(lp276
I13459
aI3
aa(lp277
I13507
aI2
aa(lp278
I13644
aI1
aa(lp279
I13793
aI2
aa(lp280
I13921
aI3
aa(lp281
I13937
aI1
aa(lp282
I13937
aI3
aa(lp283
I13937
aI4
aa(lp284
I14184
aI2
aa(lp285
I14184
aI3
aa(lp286
I14184
aI4
aa(lp287
I14189
aI1
aa(lp288
I14282
aI3
aa(lp289
I14282
aI4
aa(lp290
I14327
aI2
aa(lp291
I14327
aI4
aa(lp292
I14564
aI4
aa(lp293
I14694
aI0
aa(lp294
I14694
aI1
aa(lp295
I14694
aI2
aa(lp296
I14694
aI4
aa(lp297
I14797
aI0
aa(lp298
I14797
aI2
aa(lp299
I14797
aI4
aa(lp300
I14988
aI0
aa(lp301
I15125
aI1
aa(lp302
I15125
aI3
aa(lp303
I15152
aI2
aa(lp304
I15152
aI4
aa(lp305
I15279
aI1
aa(lp306
I15282
aI0
aa(lp307
I15282
aI1
aa(lp308
I15282
aI2
aa(lp309
I15412
aI3
aa(lp310
I15428
aI3
aa(lp311
I15607
aI3
aa(lp312
I15786
aI1
aa(lp313
I15786
aI2
aa(lp314
I16123
aI0
aa(lp315
I16123
aI1
aa(lp316
I16123
aI3
aa(lp317
I16123
aI4
aa(lp318
I16141
aI1
aa(lp319
I16141
aI2
aa(lp320
I16150
aI2
aa(lp321
I16180
aI0
aa(lp322
I16180
aI3
aa(lp323
I16283
aI4
aa(lp324
I16436
aI1
aa(lp325
I16436
aI2
aa(lp326
I16436
aI3
aa(lp327
I16712
aI4
aa(lp328
I16842
aI4
aa(lp329
I16882
aI4
aa(lp330
I16903
aI1
aa(lp331
I16903
aI3
aa(lp332
I16903
aI4
aa(lp333
I16920
aI0
aa(lp334
I17021
aI2
aa(lp335
I17121
aI0
aa(lp336
I17140
aI0
aa(lp337
I17228
aI1
aa(lp338
I17228
aI3
aa(lp339
I17271
aI0
aa(lp340
I17271
aI3
aa(lp341
I17342
aI0
aa(lp342
I17342
aI1
aa(lp343
I17342
aI3
aa(lp344
I17359
aI0
aa(lp345
I17359
aI1
aa(lp346
I17398
aI2
aa(lp347
I17517
aI2
aa(lp348
I17555
aI0
aa(lp349
I17555
aI1
aa(lp350
I17555
aI2
aa(lp351
I17555
aI3
aa(lp352
I17555
aI4
aa(lp353
I17580
aI1
aa(lp354
I17580
aI2
aa(lp355
I17580
aI3
aa(lp356
I17580
aI4
aa(lp357
I17645
aI1
aa(lp358
I17718
aI3
aa(lp359
I17728
aI0
aa(lp360
I17728
aI1
aa(lp361
I17728
aI4
aa(lp362
I17887
aI1
aa(lp363
I17887
aI4
aa(lp364
I17982
aI3
aa(lp365
I18006
aI0
aa(lp366
I18006
aI2
aa(lp367
I18006
aI3
aa(lp368
I18006
aI4
aa(lp369
I18065
aI2
aa(lp370
I18065
aI3
aa(lp371
I18216
aI3
aa(lp372
I18250
aI0
aa(lp373
I18250
aI1
aa(lp374
I18250
aI2
aa(lp375
I18250
aI3
aa(lp376
I18336
aI4
aa(lp377
I18387
aI1
aa(lp378
I18387
aI4
aa(lp379
I18388
aI2
aa(lp380
I18393
aI2
aa(lp381
I18393
aI3
aa(lp382
I18435
aI1
aa(lp383
I18601
aI4
aa(lp384
I18664
aI1
aa(lp385
I18679
aI1
aa(lp386
I18679
aI4
aa(lp387
I18739
aI2
aa(lp388
I18925
aI0
aa(lp389
I18925
aI1
aa(lp390
I18925
aI2
aa(lp391
I18925
aI3
aa(lp392
I18925
aI4
aa(lp393
I18984
aI0
aa(lp394
I18984
aI2
aa(lp395
I18984
aI3
aa(lp396
I19014
aI0
aa(lp397
I19014
aI3
aa(lp398
I19014
aI4
aa(lp399
I19085
aI4
aa(lp400
I19272
aI0
aa(lp401
I19272
aI3
aa(lp402
I19272
aI4
aa(lp403
I19273
aI0
aa(lp404
I19391
aI1
aa(lp405
I19391
aI3
aa(lp406
I19506
aI3
aa(lp407
I19604
aI0
aa(lp408
I19604
aI2
aa(lp409
I19712
aI0
aa(lp410
I19712
aI3
aa(lp411
I19827
aI3
aa(lp412
I19844
aI2
aa(lp413
I20004
aI0
aa(lp414
I20004
aI1
aa(lp415
I20004
aI3
aa(lp416
I20004
aI4
aa(lp417
I20056
aI0
aa(lp418
I20056
aI1
aa(lp419
I20056
aI2
aa(lp420
I20056
aI4
aa(lp421
I20151
aI3
aa(lp422
I20189
aI3
aa(lp423
I20219
aI0
aa(lp424
I20219
aI1
aa(lp425
I20219
aI4
aa(lp426
I20232
aI1
aa(lp427
I20232
aI2
aa(lp428
I20232
aI3
aa(lp429
I20275
aI2
aa(lp430
I20507
aI0
aa(lp431
I20507
aI1
aa(lp432
I20507
aI2
aa(lp433
I20647
aI4
aa(lp434
I20735
aI2
aa(lp435
I20783
aI0
aa(lp436
I20783
aI2
aa(lp437
I20783
aI3
aa(lp438
I20783
aI4
aa(lp439
I20797
aI0
aa(lp440
I20797
aI1
aa(lp441
I20797
aI2
aa(lp442
I20845
aI1
aa(lp443
I20861
aI0
aa(lp444
I20861
aI1
aa(lp445
I20861
aI2
aa(lp446
I20861
aI3
aa(lp447
I20861
aI4
aa(lp448
I20864
aI0
aa(lp449
I20864
aI2
aa(lp450
I20864
aI3
aa(lp451
I20864
aI4
aa(lp452
I21240
aI1
aa(lp453
I21240
aI4
aa(lp454
I21392
aI0
aa(lp455
I21392
aI1
aa(lp456
I21392
aI2
aa(lp457
I21392
aI3
aa(lp458
I21392
aI4
aa(lp459
I21402
aI0
aa(lp460
I21411
aI2
aa(lp461
I21412
aI3
aa(lp462
I21530
aI3
aa(lp463
I21573
aI1
aa(lp464
I21579
aI3
aa(lp465
I21632
aI1
aa(lp466
I21761
aI0
aa(lp467
I21769
aI2
aa(lp468
I21769
aI4
aa(lp469
I21966
aI0
aa(lp470
I21966
aI3
aa(lp471
I21966
aI4
aa(lp472
I22037
aI0
aa(lp473
I22139
aI1
aa(lp474
I22159
aI4
aa(lp475
I22183
aI3
aa(lp476
I22336
aI1
aa(lp477
I22336
aI2
aa(lp478
I22336
aI4
aa(lp479
I22349
aI1
aa(lp480
I22349
aI4
aa(lp481
I22412
aI0
aa(lp482
I22412
aI2
aa(lp483
I22412
aI4
aa(lp484
I22638
aI1
aa(lp485
I22638
aI3
aa(lp486
I22813
aI0
aa(lp487
I22813
aI4
aa(lp488
I22816
aI0
aa(lp489
I22897
aI0
aa(lp490
I22900
aI2
aa(lp491
I22909
aI1
aa(lp492
I22909
aI2
aa(lp493
I22909
aI3
aa(lp494
I22998
aI1
aa(lp495
I23043
aI3
aa(lp496
I23043
aI4
aa(lp497
I23124
aI1
aa(lp498
I23174
aI4
aa(lp499
I23268
aI1
aa(lp500
I23301
aI4
aa(lp501
I23482
aI0
aa(lp502
I23482
aI3
aa(lp503
I23482
aI4
aa(lp504
I23498
aI3
aa(lp505
I23578
aI3
aa(lp506
I23578
aI4
aa(lp507
I23667
aI0
aa(lp508
I23667
aI2
aa(lp509
I23667
aI3
aa(lp510
I23730
aI1
aa(lp511
I23797
aI0
aa(lp512
I23797
aI1
aa(lp513
I23797
aI2
aa(lp514
I23797
aI3
aa(lp515
I23797
aI4
aa(lp516
I23804
aI0
aa(lp517
I23965
aI3
aa(lp518
I24000
aI0
aa(lp519
I24051
aI4
aa(lp520
I24128
aI2
aa(lp521
I24140
aI0
aa(lp522
I24140
aI2
aa(lp523
I24140
aI3
aa(lp524
I24167
aI3
aa(lp525
I24237
aI4
aa(lp526
I24318
aI0
aa(lp527
I24318
aI3
aa(lp528
I24318
aI4
aa(lp529
I24344
aI4
aa(lp530
I24351
aI0
aa(lp531
I24351
aI1
aa(lp532
I24351
aI4
aa(lp533
I24689
aI0
aa(lp534
I24689
aI4
aa(lp535
I24820
aI3
aa(lp536
I24838
aI3
aa(lp537
I25142
aI1
aa(lp538
I25159
aI1
aa(lp539
I25218
aI1
aa(lp540
I25490
aI0
aa(lp541
I25490
aI4
aa(lp542
I25522
aI0
aa(lp543
I25522
aI2
aa(lp544
I25522
aI3
aa(lp545
I25522
aI4
aa(lp546
I25538
aI1
aa(lp547
I25538
aI2
aa(lp548
I25586
aI4
aa(lp549
I25883
aI0
aa(lp550
I25883
aI2
aa(lp551
I25883
aI3
aa(lp552
I25887
aI1
aa(lp553
I25946
aI1
aa(lp554
I25946
aI2
aa(lp555
I25946
aI3
aa(lp556
I25946
aI4
aa(lp557
I25955
aI0
aa(lp558
I26125
aI3
aa(lp559
I26130
aI2
aa(lp560
I26168
aI4
aa(lp561
I26181
aI2
aa(lp562
I26187
aI3
aa(lp563
I26246
aI2
aa(lp564
I26324
aI1
aa(lp565
I26546
aI2
aa(lp566
I26566
aI0
aa(lp567
I26904
aI3
aa(lp568
I26906
aI4
aa(lp569
I26984
aI2
aa(lp570
I27023
aI1
aa(lp571
I27032
aI0
aa(lp572
I27049
aI2
aa(lp573
I27049
aI3
aa(lp574
I27049
aI4
aa(lp575
I27106
aI1
aa(lp576
I27106
aI3
aa(lp577
I27118
aI2
aa(lp578
I27143
aI3
aa(lp579
I27172
aI2
aa(lp580
I27199
aI4
aa(lp581
I27254
aI2
aa(lp582
I27287
aI2
aa(lp583
I27296
aI1
aa(lp584
I27296
aI3
aa(lp585
I27296
aI4
aa(lp586
I27322
aI2
aa(lp587
I27378
aI4
aa(lp588
I27423
aI4
aa(lp589
I27467
aI0
aa(lp590
I27467
aI4
aa(lp591
I27531
aI0
aa(lp592
I27531
aI1
aa(lp593
I27531
aI2
aa(lp594
I27531
aI3
aa(lp595
I27570
aI0
aa(lp596
I27570
aI2
aa(lp597
I27570
aI3
aa(lp598
I27623
aI0
aa(lp599
I27774
aI0
aa(lp600
I27849
aI1
aa(lp601
I27849
aI2
aa(lp602
I27849
aI4
aa(lp603
I27883
aI0
aa(lp604
I27938
aI0
aa(lp605
I27938
aI1
aa(lp606
I27938
aI2
aa(lp607
I27938
aI4
aa(lp608
I27970
aI3
aa(lp609
I28158
aI0
aa(lp610
I28207
aI0
aa(lp611
I28207
aI3
aa(lp612
I28207
aI4
aa(lp613
I28335
aI1
aa(lp614
I28400
aI0
aa(lp615
I28400
aI3
aa(lp616
I28415
aI1
aa(lp617
I28415
aI2
aa(lp618
I28415
aI3
aa(lp619
I28415
aI4
aa(lp620
I28497
aI3
aa(lp621
I28866
aI2
aa(lp622
I28866
aI4
aa(lp623
I29012
aI0
aa(lp624
I29012
aI1
aa(lp625
I29012
aI4
aa(lp626
I29016
aI0
aa(lp627
I29132
aI2
aa(lp628
I29132
aI3
aa(lp629
I29132
aI4
aa(lp630
I29170
aI0
aa(lp631
I29170
aI2
aa(lp632
I29170
aI3
aa(lp633
I29170
aI4
aa(lp634
I29249
aI2
aa(lp635
I29317
aI3
aa(lp636
I29324
aI0
aa(lp637
I29324
aI1
aa(lp638
I29324
aI2
aa(lp639
I29324
aI3
aa(lp640
I29324
aI4
aa(lp641
I29457
aI4
aa(lp642
I29476
aI0
aa(lp643
I29512
aI2
aa(lp644
I29512
aI3
aa(lp645
I29655
aI4
aa(lp646
I29661
aI0
aa(lp647
I29789
aI0
aa(lp648
I29846
aI2
aa(lp649
I29909
aI2
aa(lp650
I29952
aI1
aa(lp651
I29977
aI1
aa(lp652
I29994
aI0
aa(lp653
I29994
aI3
aa(lp654
I30161
aI4
aa(lp655
I30219
aI0
aa(lp656
I30219
aI1
aa(lp657
I30219
aI2
aa(lp658
I30224
aI0
aa(lp659
I30224
aI2
aa(lp660
I30224
aI3
aa(lp661
I30224
aI4
aa(lp662
I30405
aI1
aa(lp663
I30405
aI3
aa(lp664
I30570
aI4
aa(lp665
I30623
aI1
aa(lp666
I30623
aI2
aa(lp667
I30632
aI1
aa(lp668
I30703
aI1
aa(lp669
I30703
aI4
aa(lp670
I30715
aI4
aa(lp671
I30909
aI0
aa(lp672
I30909
aI1
aa(lp673
I30909
aI2
aa(lp674
I30909
aI3
aa(lp675
I30956
aI0
aa(lp676
I30969
aI4
aa(lp677
I30975
aI0
aa(lp678
I30975
aI1
aa(lp679
I30975
aI2
aa(lp680
I30975
aI3
aa(lp681
I31059
aI3
aa(lp682
I31091
aI2
aa(lp683
I31182
aI1
aa(lp684
I31182
aI3
aa(lp685
I31238
aI4
aa(lp686
I31312
aI0
aa(lp687
I31312
aI1
aa(lp688
I31312
aI3
aa(lp689
I31312
aI4
aa(lp690
I31316
aI0
aa(lp691
I31316
aI2
aa(lp692
I31409
aI0
aa(lp693
I31409
aI3
aa(lp694
I31426
aI4
aa(lp695
I31597
aI3
aa(lp696
I31629
aI0
aa(lp697
I31686
aI3
aa(lp698
I31693
aI1
aa(lp699
I31897
aI0
aa(lp700
I31922
aI0
aa(lp701
I32005
aI0
aa(lp702
I32005
aI1
aa(lp703
I32005
aI3
aa(lp704
I32067
aI2
aa(lp705
I32067
aI4
aa(lp706
I32118
aI3
aa(lp707
I32118
aI4
aa(lp708
I32152
aI1
aa(lp709
I32322
aI3
aa(lp710
I32322
aI4
aa(lp711
I32415
aI0
aa(lp712
I32415
aI2
aa(lp713
I32415
aI3
aa(lp714
I32450
aI0
aa(lp715
I32450
aI1
aa(lp716
I32450
aI4
aa(lp717
I32477
aI2
aa(lp718
I32505
aI3
aa(lp719
I32515
aI3
aa(lp720
I32556
aI0
aa(lp721
I32556
aI2
aa(lp722
I32556
aI3
aa(lp723
I32692
aI0
aa(lp724
I32692
aI2
aa(lp725
I32925
aI0
aa(lp726
I32993
aI3
aa(lp727
I33012
aI3
aa(lp728
I33136
aI4
aa(lp729
I33219
aI4
aa(lp730
I33268
aI3
aa(lp731
I33268
aI4
aa(lp732
I33291
aI4
aa(lp733
I33330
aI0
aa(lp734
I33330
aI2
aa(lp735
I33330
aI3
aa(lp736
I33330
aI4
aa(lp737
I33336
aI4
aa(lp738
I33431
aI0
aa(lp739
I33431
aI1
aa(lp740
I33431
aI2
aa(lp741
I33431
aI4
aa(lp742
I33604
aI0
aa(lp743
I33604
aI1
aa(lp744
I33604
aI2
aa(lp745
I33604
aI3
aa(lp746
I33604
aI4
aa(lp747
I33605
aI2
aa(lp748
I33605
aI3
aa(lp749
I33675
aI2
aa(lp750
I33675
aI3
aa(lp751
I33833
aI3
aa(lp752
I33917
aI0
aa(lp753
I33917
aI1
aa(lp754
I33917
aI4
aa(lp755
I34036
aI0
aa(lp756
I34036
aI1
aa(lp757
I34036
aI2
aa(lp758
I34036
aI4
aa(lp759
I34206
aI3
aa(lp760
I34275
aI1
aa(lp761
I34281
aI1
aa(lp762
I34325
aI1
aa(lp763
I34325
aI2
aa(lp764
I34394
aI4
aa(lp765
I34469
aI0
aa(lp766
I34472
aI2
aa(lp767
I34794
aI1
aa(lp768
I34794
aI2
aa(lp769
I34794
aI3
aa(lp770
I34794
aI4
aa(lp771
I35050
aI0
aa(lp772
I35050
aI1
aa(lp773
I35050
aI2
aa(lp774
I35050
aI4
aa(lp775
I35203
aI2
aa(lp776
I35216
aI3
aa(lp777
I35322
aI1
aa(lp778
I35322
aI2
aa(lp779
I35369
aI3
aa(lp780
I35612
aI3
aa(lp781
I35765
aI0
aa(lp782
I35868
aI0
aa(lp783
I35936
aI0
aa(lp784
I35962
aI1
aa(lp785
I35962
aI2
aa(lp786
I35962
aI3
aa(lp787
I35962
aI4
aa(lp788
I35973
aI0
aa(lp789
I35973
aI2
aa(lp790
I35973
aI3
aa(lp791
I36048
aI4
aa(lp792
I36157
aI4
aa(lp793
I36167
aI1
aa(lp794
I36167
aI4
aa(lp795
I36283
aI1
aa(lp796
I36283
aI4
aa(lp797
I36287
aI2
aa(lp798
I36294
aI0
aa(lp799
I36360
aI2
aa(lp800
I36470
aI1
aa(lp801
I36472
aI1
aa(lp802
I36472
aI2
aa(lp803
I36472
aI3
aa(lp804
I36472
aI4
aa(lp805
I36490
aI2
aa(lp806
I36610
aI0
aa(lp807
I36610
aI1
aa(lp808
I36610
aI3
aa(lp809
I36639
aI3
aa(lp810
I36659
aI0
aa(lp811
I36659
aI3
aa(lp812
I36666
aI2
aa(lp813
I36681
aI1
aa(lp814
I36681
aI3
aa(lp815
I36712
aI2
aa(lp816
I36745
aI0
aa(lp817
I36745
aI1
aa(lp818
I36800
aI2
aa(lp819
I36919
aI0
aa(lp820
I37074
aI1
aa(lp821
I37124
aI0
aa(lp822
I37124
aI1
aa(lp823
I37124
aI2
aa(lp824
I37124
aI3
aa(lp825
I37124
aI4
aa(lp826
I37145
aI1
aa(lp827
I37418
aI2
aa(lp828
I37422
aI1
aa(lp829
I37422
aI2
aa(lp830
I37554
aI0
aa(lp831
I37579
aI0
aa(lp832
I37579
aI1
aa(lp833
I37579
aI2
aa(lp834
I37579
aI3
aa(lp835
I37579
aI4
aa(lp836
I37583
aI1
aa(lp837
I37585
aI0
aa(lp838
I37585
aI1
aa(lp839
I37585
aI2
aa(lp840
I37585
aI3
aa(lp841
I37585
aI4
aa(lp842
I37750
aI3
aa(lp843
I37801
aI0
aa(lp844
I37801
aI4
aa(lp845
I37917
aI1
aa(lp846
I38090
aI3
aa(lp847
I38127
aI4
aa(lp848
I38317
aI4
aa(lp849
I38572
aI0
aa(lp850
I38572
aI1
aa(lp851
I38572
aI2
aa(lp852
I38572
aI3
aa(lp853
I38572
aI4
aa(lp854
I38583
aI4
aa(lp855
I38631
aI0
aa(lp856
I38719
aI0
aa(lp857
I38852
aI4
aa(lp858
I38903
aI0
aa(lp859
I38934
aI1
aa(lp860
I38982
aI4
aa(lp861
I39086
aI4
aa(lp862
I39163
aI1
aa(lp863
I39163
aI3
aa(lp864
I39164
aI1
aa(lp865
I39194
aI3
aa(lp866
I39224
aI1
aa(lp867
I39270
aI0
aa(lp868
I39270
aI1
aa(lp869
I39270
aI2
aa(lp870
I39270
aI3
aa(lp871
I39270
aI4
aa(lp872
I39297
aI1
aa(lp873
I39297
aI3
aa(lp874
I39446
aI1
aa(lp875
I39446
aI3
aa(lp876
I39446
aI4
aa(lp877
I39456
aI1
aa(lp878
I39456
aI4
aa(lp879
I39658
aI0
aa(lp880
I39658
aI2
aa(lp881
I39710
aI0
aa(lp882
I39710
aI3
aa(lp883
I39761
aI2
aa(lp884
I39855
aI3
aa(lp885
I39889
aI0
aa(lp886
I39889
aI1
aa(lp887
I39889
aI2
aa(lp888
I39961
aI3
aa(lp889
I40164
aI0
aa(lp890
I40359
aI0
aa(lp891
I40359
aI1
aa(lp892
I40359
aI2
aa(lp893
I40359
aI3
aa(lp894
I40359
aI4
aa(lp895
I40425
aI2
aa(lp896
I40425
aI3
aa(lp897
I40445
aI0
aa(lp898
I40445
aI1
aa(lp899
I40448
aI0
aa(lp900
I40448
aI1
aa(lp901
I40448
aI3
aa(lp902
I40448
aI4
aa.