(lp0
(lp1
I317
aI0
aa(lp2
I317
aI2
aa(lp3
I430
aI1
aa(lp4
I447
aI0
aa(lp5
I447
aI1
aa(lp6
I447
aI2
aa(lp7
I447
aI3
aa(lp8
I447
aI4
aa(lp9
I618
aI3
aa(lp10
I618
aI4
aa(lp11
I637
aI2
aa(lp12
I637
aI3
aa(lp13
I680
aI0
aa(lp14
I680
aI1
aa(lp15
I680
aI2
aa(lp16
I680
aI4
aa(lp17
I744
aI1
aa(lp18
I744
aI4
aa(lp19
I750
aI1
aa(lp20
I750
aI2
aa(lp21
I750
aI3
aa(lp22
I1037
aI0
aa(lp23
I1037
aI1
aa(lp24
I1037
aI2
aa(lp25
I1037
aI3
aa(lp26
I1629
aI1
aa(lp27
I1629
aI3
aa(lp28
I1780
aI0
aa(lp29
I1780
aI1
aa(lp30
I1780
aI2
aa(lp31
I1780
aI3
aa(lp32
I1780
aI4
aa(lp33
I1801
aI3
aa(lp34
I1862
aI0
aa(lp35
I1862
aI2
aa(lp36
I1862
aI3
aa(lp37
I1862
aI4
aa(lp38
I1969
aI0
aa(lp39
I2154
aI0
aa(lp40
I2154
aI1
aa(lp41
I2154
aI3
aa(lp42
I2154
aI4
aa(lp43
I2238
aI0
aa(lp44
I2238
aI2
aa(lp45
I2321
aI0
aa(lp46
I2360
aI2
aa(lp47
I2360
aI4
aa(lp48
I2439
aI0
aa(lp49
I2453
aI1
aa(lp50
I2453
aI3
aa(lp51
I2491
aI1
aa(lp52
I2491
aI2
aa(lp53
I2491
aI3
aa(lp54
I3148
aI0
aa(lp55
I3148
aI1
aa(lp56
I3148
aI2
aa(lp57
I3148
aI3
aa(lp58
I3148
aI4
aa(lp59
I3368
aI0
aa(lp60
I3368
aI1
aa(lp61
I3368
aI2
aa(lp62
I3368
aI3
aa(lp63
I3368
aI4
aa(lp64
I3393
aI0
aa(lp65
I3393
aI3
aa(lp66
I3502
aI1
aa(lp67
I3502
aI4
aa(lp68
I3601
aI0
aa(lp69
I3601
aI1
aa(lp70
I3601
aI2
aa(lp71
I3601
aI3
aa(lp72
I3601
aI4
aa(lp73
I3663
aI0
aa(lp74
I3749
aI0
aa(lp75
I3749
aI1
aa(lp76
I3749
aI2
aa(lp77
I3749
aI3
aa(lp78
I3749
aI4
aa(lp79
I3752
aI2
aa(lp80
I3752
aI3
aa(lp81
I3756
aI0
aa(lp82
I3756
aI1
aa(lp83
I3756
aI2
aa(lp84
I3756
aI4
aa(lp85
I3896
aI0
aa(lp86
I3896
aI3
aa(lp87
I3896
aI4
aa(lp88
I3960
aI0
aa(lp89
I3960
aI2
aa(lp90
I3960
aI3
aa(lp91
I4001
aI0
aa(lp92
I4001
aI3
aa(lp93
I4001
aI4
aa(lp94
I4133
aI0
aa(lp95
I4133
aI1
aa(lp96
I4133
aI2
aa(lp97
I4133
aI3
aa(lp98
I4133
aI4
aa(lp99
I4300
aI4
aa(lp100
I4356
aI0
aa(lp101
I4535
aI0
aa(lp102
I4535
aI2
aa(lp103
I4535
aI4
aa(lp104
I4538
aI3
aa(lp105
I4580
aI1
aa(lp106
I4580
aI2
aa(lp107
I4580
aI3
aa(lp108
I4918
aI2
aa(lp109
I4918
aI3
aa(lp110
I4956
aI2
aa(lp111
I4956
aI3
aa(lp112
I4974
aI3
aa(lp113
I5109
aI0
aa(lp114
I5136
aI3
aa(lp115
I5253
aI0
aa(lp116
I5253
aI1
aa(lp117
I5253
aI2
aa(lp118
I5253
aI3
aa(lp119
I5253
aI4
aa(lp120
I5258
aI0
aa(lp121
I5258
aI1
aa(lp122
I5258
aI2
aa(lp123
I5258
aI3
aa(lp124
I5258
aI4
aa(lp125
I5338
aI1
aa(lp126
I5821
aI0
aa(lp127
I5821
aI1
aa(lp128
I5821
aI2
aa(lp129
I5821
aI3
aa(lp130
I5821
aI4
aa(lp131
I5828
aI3
aa(lp132
I5869
aI0
aa(lp133
I5869
aI1
aa(lp134
I5869
aI2
aa(lp135
I5869
aI3
aa(lp136
I5869
aI4
aa(lp137
I5870
aI0
aa(lp138
I5870
aI2
aa(lp139
I5870
aI4
aa(lp140
I6085
aI0
aa(lp141
I6085
aI1
aa(lp142
I6085
aI2
aa(lp143
I6087
aI1
aa(lp144
I6087
aI2
aa(lp145
I6087
aI3
aa(lp146
I6087
aI4
aa(lp147
I6098
aI0
aa(lp148
I6098
aI1
aa(lp149
I6098
aI2
aa(lp150
I6098
aI3
aa(lp151
I6171
aI1
aa(lp152
I6171
aI2
aa(lp153
I6264
aI1
aa(lp154
I6264
aI2
aa(lp155
I6264
aI3
aa(lp156
I6288
aI1
aa(lp157
I6288
aI3
aa(lp158
I6385
aI2
aa(lp159
I6385
aI3
aa(lp160
I6385
aI4
aa(lp161
I6492
aI0
aa(lp162
I6492
aI1
aa(lp163
I6492
aI2
aa(lp164
I6492
aI3
aa(lp165
I6492
aI4
aa(lp166
I6634
aI0
aa(lp167
I6705
aI2
aa(lp168
I7169
aI0
aa(lp169
I7169
aI2
aa(lp170
I7169
aI4
aa(lp171
I7181
aI0
aa(lp172
I7181
aI2
aa(lp173
I7181
aI3
aa(lp174
I7194
aI0
aa(lp175
I7194
aI1
aa(lp176
I7194
aI4
aa(lp177
I7444
aI0
aa(lp178
I7444
aI1
aa(lp179
I7444
aI2
aa(lp180
I7444
aI3
aa(lp181
I7444
aI4
aa(lp182
I7505
aI1
aa(lp183
I7646
aI2
aa(lp184
I7757
aI2
aa(lp185
I7757
aI3
aa(lp186
I7778
aI0
aa(lp187
I7778
aI1
aa(lp188
I7778
aI2
aa(lp189
I7778
aI3
aa(lp190
I7778
aI4
aa(lp191
I7796
aI0
aa(lp192
I7796
aI1
aa(lp193
I7796
aI2
aa(lp194
I7796
aI3
aa(lp195
I7796
aI4
aa(lp196
I8126
aI0
aa(lp197
I8126
aI2
aa(lp198
I8126
aI3
aa(lp199
I8126
aI4
aa(lp200
I8134
aI0
aa(lp201
I8134
aI4
aa(lp202
I8365
aI0
aa(lp203
I8365
aI2
aa(lp204
I8471
aI0
aa(lp205
I8471
aI1
aa(lp206
I8471
aI2
aa(lp207
I8471
aI3
aa(lp208
I8471
aI4
aa(lp209
I8541
aI2
aa(lp210
I8754
aI1
aa(lp211
I8754
aI2
aa(lp212
I8754
aI4
aa(lp213
I8767
aI0
aa(lp214
I8767
aI3
aa(lp215
I8911
aI1
aa(lp216
I8911
aI2
aa(lp217
I8911
aI3
aa(lp218
I8911
aI4
aa(lp219
I9101
aI0
aa(lp220
I9101
aI3
aa(lp221
I9182
aI0
aa(lp222
I9182
aI2
aa(lp223
I9182
aI4
aa(lp224
I9210
aI0
aa(lp225
I9210
aI3
aa(lp226
I9217
aI4
aa(lp227
I9271
aI1
aa(lp228
I9271
aI2
aa(lp229
I9271
aI3
aa(lp230
I9271
aI4
aa(lp231
I9330
aI0
aa(lp232
I9330
aI1
aa(lp233
I9330
aI2
aa(lp234
I9330
aI4
aa(lp235
I9374
aI1
aa(lp236
I9374
aI3
aa(lp237
I9440
aI2
aa(lp238
I9452
aI0
aa(lp239
I9452
aI4
aa(lp240
I9559
aI0
aa(lp241
I9559
aI2
aa(lp242
I9559
aI3
aa(lp243
I9753
aI3
aa(lp244
I9786
aI0
aa(lp245
I9786
aI1
aa(lp246
I9892
aI1
aa(lp247
I9892
aI4
aa(lp248
I9928
aI3
aa(lp249
I9993
aI1
aa(lp250
I9993
aI3
aa(lp251
I9993
aI4
aa(lp252
I10189
aI1
aa(lp253
I10300
aI1
aa(lp254
I10300
aI3
aa(lp255
I10482
aI1
aa(lp256
I10482
aI2
aa(lp257
I10482
aI3
aa(lp258
I10482
aI4
aa(lp259
I10592
aI0
aa(lp260
I10592
aI3
aa(lp261
I10592
aI4
aa(lp262
I10700
aI1
aa(lp263
I10700
aI2
aa(lp264
I10893
aI3
aa(lp265
I11030
aI0
aa(lp266
I11030
aI1
aa(lp267
I11030
aI2
aa(lp268
I11030
aI3
aa(lp269
I11030
aI4
aa(lp270
I11119
aI2
aa(lp271
I11119
aI4
aa(lp272
I11248
aI0
aa(lp273
I11248
aI1
aa(lp274
I11248
aI2
aa(lp275
I11248
aI3
aa(lp276
I11248
aI4
aa(lp277
I11301
aI0
aa(lp278
I11301
aI5
aa(lp279
I11922
aI0
aa(lp280
I11922
aI1
aa(lp281
I11922
aI2
aa(lp282
I11922
aI4
aa(lp283
I12037
aI3
aa(lp284
I12110
aI4
aa(lp285
I12227
aI2
aa(lp286
I12227
aI3
aa(lp287
I12416
aI0
aa(lp288
I12416
aI2
aa(lp289
I12458
aI0
aa(lp290
I12458
aI3
aa(lp291
I12508
aI0
aa(lp292
I12508
aI1
aa(lp293
I12508
aI3
aa(lp294
I12508
aI4
aa(lp295
I12931
aI0
aa(lp296
I12931
aI1
aa(lp297
I12931
aI2
aa(lp298
I12931
aI3
aa(lp299
I12931
aI4
aa(lp300
I13010
aI0
aa(lp301
I13010
aI1
aa(lp302
I13010
aI2
aa(lp303
I13010
aI3
aa(lp304
I13010
aI4
aa(lp305
I13071
aI2
aa(lp306
I13160
aI0
aa(lp307
I13172
aI1
aa(lp308
I13172
aI2
aa(lp309
I13172
aI4
aa(lp310
I13432
aI1
aa(lp311
I13432
aI2
aa(lp312
I13432
aI4
aa(lp313
I13497
aI1
aa(lp314
I13866
aI0
aa(lp315
I13866
aI1
aa(lp316
I14038
aI0
aa(lp317
I14038
aI1
aa(lp318
I14038
aI2
aa(lp319
I14038
aI3
aa(lp320
I14038
aI4
aa(lp321
I14104
aI0
aa(lp322
I14104
aI2
aa(lp323
I14141
aI2
aa(lp324
I14680
aI0
aa(lp325
I14888
aI0
aa(lp326
I15052
aI3
aa(lp327
I15059
aI2
aa(lp328
I15139
aI0
aa(lp329
I15139
aI1
aa(lp330
I15139
aI2
aa(lp331
I15139
aI3
aa(lp332
I15139
aI4
aa(lp333
I15441
aI0
aa(lp334
I15441
aI1
aa(lp335
I15441
aI2
aa(lp336
I15441
aI3
aa(lp337
I15441
aI4
aa(lp338
I15475
aI0
aa(lp339
I15475
aI1
aa(lp340
I15475
aI2
aa(lp341
I15475
aI4
aa(lp342
I15506
aI1
aa(lp343
I15506
aI2
aa(lp344
I15566
aI0
aa(lp345
I15566
aI3
aa(lp346
I15566
aI4
aa(lp347
I15624
aI0
aa(lp348
I15624
aI2
aa(lp349
I15624
aI3
aa(lp350
I15775
aI0
aa(lp351
I15775
aI1
aa(lp352
I15775
aI2
aa(lp353
I15775
aI3
aa(lp354
I15775
aI4
aa(lp355
I15799
aI0
aa(lp356
I15799
aI2
aa(lp357
I15799
aI4
aa(lp358
I15800
aI1
aa(lp359
I15943
aI0
aa(lp360
I15943
aI1
aa(lp361
I15943
aI2
aa(lp362
I15943
aI3
aa(lp363
I15943
aI4
aa(lp364
I16062
aI0
aa(lp365
I16062
aI2
aa(lp366
I16062
aI3
aa(lp367
I16062
aI4
aa(lp368
I16067
aI0
aa(lp369
I16067
aI2
aa(lp370
I16067
aI3
aa(lp371
I16067
aI4
aa(lp372
I16128
aI0
aa(lp373
I16128
aI2
aa(lp374
I16157
aI0
aa(lp375
I16157
aI1
aa(lp376
I16157
aI2
aa(lp377
I16157
aI3
aa(lp378
I16157
aI4
aa(lp379
I16246
aI0
aa(lp380
I16246
aI1
aa(lp381
I16246
aI2
aa(lp382
I16246
aI4
aa(lp383
I16259
aI0
aa(lp384
I16438
aI0
aa(lp385
I16502
aI0
aa(lp386
I16502
aI1
aa(lp387
I16502
aI2
aa(lp388
I16682
aI0
aa(lp389
I16682
aI1
aa(lp390
I16682
aI2
aa(lp391
I16682
aI3
aa(lp392
I16682
aI4
aa(lp393
I16708
aI0
aa(lp394
I16708
aI1
aa(lp395
I16708
aI2
aa(lp396
I16708
aI3
aa(lp397
I16708
aI4
aa(lp398
I16768
aI0
aa(lp399
I16768
aI1
aa(lp400
I16800
aI3
aa(lp401
I16800
aI4
aa(lp402
I16887
aI2
aa(lp403
I16887
aI3
aa(lp404
I16961
aI0
aa(lp405
I17044
aI1
aa(lp406
I17044
aI4
aa(lp407
I17083
aI0
aa(lp408
I17083
aI1
aa(lp409
I17083
aI2
aa(lp410
I17083
aI3
aa(lp411
I17083
aI4
aa(lp412
I17104
aI0
aa(lp413
I17396
aI0
aa(lp414
I17396
aI1
aa(lp415
I17396
aI2
aa(lp416
I17396
aI3
aa(lp417
I17396
aI4
aa(lp418
I17404
aI0
aa(lp419
I17404
aI1
aa(lp420
I17404
aI2
aa(lp421
I17404
aI4
aa(lp422
I17477
aI4
aa(lp423
I17550
aI3
aa(lp424
I17578
aI0
aa(lp425
I17578
aI1
aa(lp426
I17578
aI4
aa(lp427
I17659
aI2
aa(lp428
I17659
aI3
aa(lp429
I17659
aI4
aa(lp430
I17717
aI1
aa(lp431
I17717
aI3
aa(lp432
I17717
aI4
aa(lp433
I17722
aI0
aa(lp434
I17722
aI1
aa(lp435
I17722
aI2
aa(lp436
I17914
aI1
aa(lp437
I17914
aI2
aa(lp438
I17914
aI4
aa(lp439
I18123
aI3
aa(lp440
I18126
aI1
aa(lp441
I18126
aI3
aa(lp442
I18442
aI0
aa(lp443
I18442
aI1
aa(lp444
I18442
aI3
aa(lp445
I18442
aI4
aa(lp446
I18698
aI0
aa(lp447
I18698
aI1
aa(lp448
I18698
aI2
aa(lp449
I18698
aI3
aa(lp450
I18698
aI4
aa(lp451
I18838
aI0
aa(lp452
I18838
aI2
aa(lp453
I18838
aI3
aa(lp454
I18838
aI4
aa(lp455
I18973
aI0
aa(lp456
I18973
aI1
aa(lp457
I18973
aI2
aa(lp458
I18973
aI3
aa(lp459
I18973
aI4
aa(lp460
I19185
aI0
aa(lp461
I19185
aI1
aa(lp462
I19185
aI2
aa(lp463
I19185
aI3
aa(lp464
I19329
aI0
aa(lp465
I19329
aI1
aa(lp466
I19329
aI2
aa(lp467
I19410
aI0
aa(lp468
I19410
aI1
aa(lp469
I19568
aI0
aa(lp470
I19568
aI1
aa(lp471
I19568
aI3
aa(lp472
I19631
aI0
aa(lp473
I19631
aI1
aa(lp474
I19631
aI4
aa(lp475
I19660
aI0
aa(lp476
I19660
aI1
aa(lp477
I19660
aI2
aa(lp478
I19660
aI3
aa(lp479
I19660
aI4
aa(lp480
I19876
aI0
aa(lp481
I19876
aI4
aa(lp482
I20197
aI0
aa(lp483
I20197
aI2
aa(lp484
I20197
aI3
aa(lp485
I20278
aI1
aa(lp486
I20278
aI3
aa(lp487
I20278
aI4
aa(lp488
I20328
aI0
aa(lp489
I20328
aI1
aa(lp490
I20328
aI3
aa(lp491
I20328
aI4
aa(lp492
I20369
aI0
aa(lp493
I20369
aI3
aa(lp494
I20369
aI4
aa(lp495
I20492
aI0
aa(lp496
I20509
aI2
aa(lp497
I20509
aI3
aa(lp498
I20563
aI1
aa(lp499
I20563
aI2
aa(lp500
I20563
aI3
aa(lp501
I20563
aI4
aa(lp502
I20578
aI1
aa(lp503
I20580
aI1
aa(lp504
I20580
aI2
aa(lp505
I20580
aI3
aa(lp506
I20580
aI4
aa(lp507
I20623
aI0
aa(lp508
I20623
aI1
aa(lp509
I20623
aI2
aa(lp510
I20623
aI3
aa(lp511
I20623
aI4
aa(lp512
I20851
aI4
aa(lp513
I20858
aI0
aa(lp514
I20858
aI1
aa(lp515
I20858
aI2
aa(lp516
I20858
aI3
aa(lp517
I20858
aI4
aa(lp518
I20882
aI0
aa(lp519
I20882
aI1
aa(lp520
I20882
aI3
aa(lp521
I20947
aI0
aa(lp522
I21066
aI3
aa(lp523
I21272
aI1
aa(lp524
I21272
aI3
aa(lp525
I21294
aI0
aa(lp526
I21294
aI1
aa(lp527
I21294
aI2
aa(lp528
I21294
aI3
aa(lp529
I21294
aI4
aa(lp530
I21311
aI0
aa(lp531
I21311
aI1
aa(lp532
I21311
aI2
aa(lp533
I21311
aI4
aa(lp534
I21501
aI1
aa(lp535
I21501
aI2
aa(lp536
I21501
aI3
aa(lp537
I21501
aI4
aa(lp538
I21544
aI3
aa(lp539
I21573
aI0
aa(lp540
I21573
aI2
aa(lp541
I21573
aI3
aa(lp542
I21606
aI0
aa(lp543
I21606
aI1
aa(lp544
I21606
aI2
aa(lp545
I21606
aI3
aa(lp546
I21625
aI0
aa(lp547
I21656
aI0
aa(lp548
I21656
aI1
aa(lp549
I21656
aI2
aa(lp550
I21656
aI3
aa(lp551
I21656
aI4
aa(lp552
I21666
aI1
aa(lp553
I21666
aI4
aa(lp554
I22108
aI0
aa(lp555
I22108
aI3
aa(lp556
I22135
aI1
aa(lp557
I22178
aI2
aa(lp558
I22178
aI4
aa(lp559
I22202
aI0
aa(lp560
I22315
aI1
aa(lp561
I22510
aI0
aa(lp562
I22510
aI1
aa(lp563
I22510
aI2
aa(lp564
I22512
aI0
aa(lp565
I22512
aI2
aa(lp566
I22512
aI3
aa(lp567
I22512
aI4
aa(lp568
I22670
aI3
aa(lp569
I23257
aI4
aa(lp570
I23495
aI1
aa(lp571
I23495
aI2
aa(lp572
I23601
aI0
aa(lp573
I23601
aI4
aa(lp574
I23770
aI2
aa(lp575
I23898
aI3
aa(lp576
I23898
aI4
aa(lp577
I23996
aI1
aa(lp578
I23996
aI2
aa(lp579
I23996
aI3
aa(lp580
I23996
aI4
aa(lp581
I24111
aI3
aa(lp582
I24234
aI3
aa(lp583
I24345
aI1
aa(lp584
I24401
aI0
aa(lp585
I24401
aI1
aa(lp586
I24401
aI2
aa(lp587
I24401
aI3
aa(lp588
I24401
aI4
aa(lp589
I24517
aI2
aa(lp590
I24547
aI0
aa(lp591
I24547
aI1
aa(lp592
I24888
aI4
aa(lp593
I24919
aI0
aa(lp594
I24919
aI1
aa(lp595
I24919
aI2
aa(lp596
I24919
aI3
aa(lp597
I24919
aI4
aa(lp598
I24935
aI0
aa(lp599
I24935
aI1
aa(lp600
I25025
aI2
aa(lp601
I25071
aI0
aa(lp602
I25071
aI1
aa(lp603
I25071
aI2
aa(lp604
I25071
aI3
aa(lp605
I25071
aI4
aa(lp606
I25181
aI0
aa(lp607
I25181
aI1
aa(lp608
I25181
aI2
aa(lp609
I25181
aI3
aa(lp610
I25181
aI4
aa(lp611
I25368
aI0
aa(lp612
I25368
aI1
aa(lp613
I25368
aI2
aa(lp614
I25368
aI3
aa(lp615
I25368
aI4
aa(lp616
I25382
aI2
aa(lp617
I25413
aI0
aa(lp618
I25413
aI2
aa(lp619
I25471
aI0
aa(lp620
I25471
aI1
aa(lp621
I25471
aI2
aa(lp622
I25471
aI3
aa(lp623
I25471
aI4
aa(lp624
I25493
aI0
aa(lp625
I25493
aI1
aa(lp626
I25493
aI2
aa(lp627
I25493
aI3
aa(lp628
I25493
aI4
aa(lp629
I25560
aI3
aa(lp630
I25581
aI0
aa(lp631
I25581
aI2
aa(lp632
I25581
aI3
aa(lp633
I25581
aI4
aa(lp634
I25833
aI1
aa(lp635
I25833
aI2
aa(lp636
I26151
aI0
aa(lp637
I26151
aI1
aa(lp638
I26151
aI2
aa(lp639
I26151
aI3
aa(lp640
I26151
aI4
aa(lp641
I26249
aI0
aa(lp642
I26249
aI2
aa(lp643
I26249
aI3
aa(lp644
I26249
aI4
aa(lp645
I26288
aI0
aa(lp646
I26288
aI3
aa(lp647
I26297
aI0
aa(lp648
I26297
aI2
aa(lp649
I26482
aI1
aa(lp650
I26482
aI3
aa(lp651
I26515
aI2
aa(lp652
I26629
aI0
aa(lp653
I26629
aI1
aa(lp654
I26629
aI2
aa(lp655
I26629
aI3
aa(lp656
I26629
aI4
aa(lp657
I26915
aI0
aa(lp658
I26915
aI4
aa(lp659
I26996
aI1
aa(lp660
I26996
aI2
aa(lp661
I27061
aI0
aa(lp662
I27061
aI1
aa(lp663
I27061
aI2
aa(lp664
I27061
aI3
aa(lp665
I27061
aI4
aa(lp666
I27159
aI2
aa(lp667
I27372
aI0
aa(lp668
I27430
aI0
aa(lp669
I27430
aI1
aa(lp670
I27430
aI2
aa(lp671
I27430
aI3
aa(lp672
I27430
aI4
aa(lp673
I27775
aI0
aa(lp674
I27775
aI1
aa(lp675
I27775
aI2
aa(lp676
I27775
aI3
aa(lp677
I27775
aI4
aa(lp678
I27901
aI0
aa(lp679
I27901
aI1
aa(lp680
I27920
aI0
aa(lp681
I27920
aI2
aa(lp682
I27920
aI3
aa(lp683
I27920
aI4
aa(lp684
I28079
aI0
aa(lp685
I28079
aI4
aa(lp686
I28234
aI0
aa(lp687
I28234
aI3
aa(lp688
I28298
aI0
aa(lp689
I28298
aI1
aa(lp690
I28298
aI2
aa(lp691
I28298
aI3
aa(lp692
I28380
aI0
aa(lp693
I28380
aI1
aa(lp694
I28380
aI3
aa(lp695
I28596
aI1
aa(lp696
I28601
aI1
aa(lp697
I28601
aI4
aa(lp698
I28602
aI3
aa(lp699
I28614
aI4
aa(lp700
I28759
aI0
aa(lp701
I28759
aI1
aa(lp702
I28759
aI3
aa(lp703
I28759
aI4
aa(lp704
I28870
aI0
aa(lp705
I28870
aI2
aa(lp706
I28870
aI3
aa(lp707
I28870
aI4
aa(lp708
I28882
aI2
aa(lp709
I28915
aI2
aa(lp710
I29053
aI0
aa(lp711
I29053
aI2
aa(lp712
I29053
aI4
aa(lp713
I29406
aI3
aa(lp714
I29406
aI4
aa(lp715
I29532
aI0
aa(lp716
I29532
aI1
aa(lp717
I29532
aI2
aa(lp718
I29532
aI3
aa(lp719
I29532
aI4
aa(lp720
I29551
aI0
aa(lp721
I29551
aI1
aa(lp722
I29551
aI2
aa(lp723
I29551
aI3
aa(lp724
I29551
aI4
aa(lp725
I29555
aI1
aa(lp726
I29591
aI0
aa(lp727
I29611
aI4
aa(lp728
I29671
aI0
aa(lp729
I29671
aI1
aa(lp730
I29671
aI2
aa(lp731
I29671
aI4
aa(lp732
I30146
aI3
aa(lp733
I30151
aI1
aa(lp734
I30151
aI3
aa(lp735
I30232
aI1
aa(lp736
I30263
aI4
aa(lp737
I30529
aI0
aa(lp738
I30529
aI1
aa(lp739
I30548
aI0
aa(lp740
I30548
aI3
aa(lp741
I30548
aI4
aa(lp742
I30579
aI1
aa(lp743
I30579
aI3
aa(lp744
I30579
aI4
aa(lp745
I30645
aI1
aa(lp746
I30828
aI1
aa(lp747
I30905
aI0
aa(lp748
I30905
aI2
aa(lp749
I30905
aI3
aa(lp750
I30905
aI4
aa(lp751
I30994
aI0
aa(lp752
I30994
aI1
aa(lp753
I30994
aI2
aa(lp754
I30994
aI3
aa(lp755
I30994
aI4
aa(lp756
I31133
aI0
aa(lp757
I31133
aI1
aa(lp758
I31133
aI2
aa(lp759
I31133
aI3
aa(lp760
I31133
aI4
aa(lp761
I31147
aI0
aa(lp762
I31147
aI1
aa(lp763
I31147
aI4
aa(lp764
I31230
aI1
aa(lp765
I31230
aI4
aa(lp766
I31250
aI0
aa(lp767
I31250
aI1
aa(lp768
I31250
aI2
aa(lp769
I31250
aI3
aa(lp770
I31250
aI4
aa(lp771
I31375
aI0
aa(lp772
I31375
aI1
aa(lp773
I31375
aI2
aa(lp774
I31375
aI3
aa(lp775
I31375
aI4
aa(lp776
I31378
aI0
aa(lp777
I31378
aI1
aa(lp778
I31378
aI2
aa(lp779
I31378
aI3
aa(lp780
I31378
aI4
aa(lp781
I31466
aI4
aa(lp782
I31480
aI0
aa(lp783
I31480
aI1
aa(lp784
I31480
aI3
aa(lp785
I31726
aI2
aa(lp786
I31726
aI3
aa(lp787
I31726
aI4
aa(lp788
I31737
aI3
aa(lp789
I31783
aI0
aa(lp790
I31783
aI1
aa(lp791
I31783
aI4
aa(lp792
I31821
aI1
aa(lp793
I31821
aI3
aa(lp794
I31821
aI4
aa(lp795
I31832
aI0
aa(lp796
I31845
aI2
aa(lp797
I32002
aI2
aa(lp798
I32246
aI3
aa(lp799
I32380
aI0
aa(lp800
I32380
aI2
aa(lp801
I32380
aI3
aa(lp802
I32380
aI4
aa(lp803
I32455
aI1
aa(lp804
I32508
aI0
aa(lp805
I32508
aI3
aa(lp806
I32596
aI3
aa(lp807
I32666
aI1
aa(lp808
I32666
aI3
aa(lp809
I32763
aI0
aa(lp810
I33351
aI0
aa(lp811
I33351
aI1
aa(lp812
I33351
aI3
aa(lp813
I33378
aI3
aa(lp814
I33378
aI4
aa(lp815
I33439
aI0
aa(lp816
I33620
aI0
aa(lp817
I33620
aI2
aa(lp818
I33632
aI0
aa(lp819
I33921
aI0
aa(lp820
I33921
aI1
aa(lp821
I33921
aI2
aa(lp822
I33921
aI3
aa(lp823
I33997
aI0
aa(lp824
I33997
aI1
aa(lp825
I33997
aI2
aa(lp826
I33997
aI3
aa(lp827
I33997
aI4
aa(lp828
I34037
aI0
aa(lp829
I34037
aI1
aa(lp830
I34037
aI2
aa(lp831
I34037
aI3
aa(lp832
I34037
aI4
aa(lp833
I34051
aI2
aa(lp834
I34253
aI0
aa(lp835
I34253
aI1
aa(lp836
I34253
aI2
aa(lp837
I34253
aI3
aa(lp838
I34253
aI4
aa(lp839
I34464
aI4
aa(lp840
I34820
aI0
aa(lp841
I34820
aI1
aa(lp842
I34820
aI2
aa(lp843
I34820
aI3
aa(lp844
I34820
aI4
aa(lp845
I34976
aI0
aa(lp846
I34976
aI2
aa(lp847
I34976
aI3
aa(lp848
I34976
aI4
aa(lp849
I35196
aI2
aa(lp850
I35364
aI3
aa(lp851
I35413
aI0
aa(lp852
I35413
aI1
aa(lp853
I35413
aI2
aa(lp854
I35599
aI0
aa(lp855
I35687
aI2
aa(lp856
I35687
aI3
aa(lp857
I35897
aI0
aa(lp858
I35897
aI1
aa(lp859
I35897
aI3
aa(lp860
I35897
aI4
aa(lp861
I35943
aI0
aa(lp862
I35943
aI1
aa(lp863
I35943
aI2
aa(lp864
I35943
aI3
aa(lp865
I35943
aI4
aa(lp866
I36020
aI0
aa(lp867
I36144
aI0
aa(lp868
I36144
aI1
aa(lp869
I36144
aI4
aa(lp870
I36302
aI0
aa(lp871
I36538
aI0
aa(lp872
I36765
aI0
aa(lp873
I36765
aI1
aa(lp874
I36765
aI2
aa(lp875
I36877
aI1
aa(lp876
I36880
aI0
aa(lp877
I37058
aI0
aa(lp878
I37065
aI0
aa(lp879
I37065
aI1
aa(lp880
I37209
aI0
aa(lp881
I37311
aI3
aa(lp882
I37322
aI2
aa(lp883
I37391
aI0
aa(lp884
I37391
aI1
aa(lp885
I37391
aI2
aa(lp886
I37391
aI3
aa(lp887
I37391
aI4
aa(lp888
I37532
aI2
aa(lp889
I37532
aI3
aa(lp890
I37532
aI4
aa(lp891
I37592
aI0
aa(lp892
I37592
aI2
aa(lp893
I37592
aI3
aa(lp894
I37618
aI2
aa(lp895
I37618
aI3
aa(lp896
I37693
aI0
aa(lp897
I37693
aI1
aa(lp898
I37693
aI4
aa(lp899
I37742
aI1
aa(lp900
I37915
aI1
aa(lp901
I38089
aI3
aa(lp902
I38089
aI4
aa(lp903
I38147
aI0
aa(lp904
I38164
aI0
aa(lp905
I38164
aI1
aa(lp906
I38164
aI2
aa(lp907
I38164
aI3
aa(lp908
I38164
aI4
aa(lp909
I38506
aI0
aa(lp910
I38506
aI2
aa(lp911
I38506
aI3
aa(lp912
I38506
aI4
aa(lp913
I38618
aI0
aa(lp914
I38618
aI1
aa(lp915
I38618
aI2
aa(lp916
I38618
aI3
aa(lp917
I38618
aI4
aa(lp918
I38677
aI2
aa(lp919
I38677
aI4
aa(lp920
I38728
aI4
aa(lp921
I38732
aI0
aa(lp922
I38823
aI1
aa(lp923
I38823
aI2
aa(lp924
I38823
aI4
aa(lp925
I38863
aI4
aa(lp926
I38874
aI0
aa(lp927
I38874
aI2
aa(lp928
I38874
aI3
aa(lp929
I39206
aI0
aa(lp930
I39206
aI3
aa(lp931
I39228
aI0
aa(lp932
I39521
aI0
aa(lp933
I39521
aI2
aa(lp934
I39656
aI0
aa(lp935
I39656
aI4
aa(lp936
I39700
aI1
aa(lp937
I39700
aI2
aa(lp938
I39700
aI3
aa(lp939
I39700
aI4
aa(lp940
I39946
aI3
aa(lp941
I39946
aI4
aa(lp942
I40293
aI0
aa(lp943
I40293
aI1
aa(lp944
I40293
aI3
aa(lp945
I40293
aI4
aa(lp946
I40333
aI3
aa(lp947
I40349
aI1
aa(lp948
I40349
aI2
aa(lp949
I40349
aI3
aa.