(lp0
(lp1
I321
aI0
aa(lp2
I408
aI1
aa(lp3
I695
aI4
aa(lp4
I783
aI4
aa(lp5
I1454
aI0
aa(lp6
I1454
aI2
aa(lp7
I1866
aI1
aa(lp8
I2748
aI1
aa(lp9
I5060
aI0
aa(lp10
I7586
aI0
aa(lp11
I7586
aI1
aa(lp12
I7586
aI2
aa(lp13
I7586
aI3
aa(lp14
I7586
aI4
aa(lp15
I7765
aI3
aa(lp16
I7765
aI4
aa(lp17
I8750
aI2
aa(lp18
I11672
aI1
aa(lp19
I11672
aI2
aa(lp20
I11918
aI0
aa(lp21
I11918
aI2
aa(lp22
I12660
aI0
aa(lp23
I12660
aI3
aa(lp24
I12683
aI1
aa(lp25
I12683
aI4
aa(lp26
I15000
aI1
aa(lp27
I15000
aI3
aa(lp28
I15471
aI0
aa(lp29
I15471
aI3
aa(lp30
I15909
aI3
aa(lp31
I18096
aI2
aa(lp32
I18241
aI0
aa(lp33
I18559
aI2
aa(lp34
I19370
aI0
aa(lp35
I19370
aI2
aa(lp36
I19738
aI2
aa(lp37
I20735
aI1
aa(lp38
I20735
aI4
aa(lp39
I23467
aI2
aa(lp40
I23549
aI0
aa(lp41
I23549
aI3
aa(lp42
I23549
aI4
aa(lp43
I25623
aI1
aa(lp44
I25748
aI0
aa(lp45
I26172
aI1
aa(lp46
I26172
aI2
aa(lp47
I26341
aI1
aa(lp48
I26388
aI4
aa(lp49
I26634
aI4
aa(lp50
I26839
aI1
aa(lp51
I26938
aI3
aa(lp52
I27771
aI4
aa(lp53
I27849
aI1
aa(lp54
I27849
aI3
aa(lp55
I28275
aI0
aa(lp56
I32495
aI3
aa(lp57
I32495
aI4
aa(lp58
I33145
aI2
aa(lp59
I33544
aI0
aa(lp60
I33544
aI3
aa(lp61
I33544
aI4
aa(lp62
I34091
aI3
aa(lp63
I34262
aI0
aa(lp64
I34262
aI1
aa(lp65
I34262
aI4
aa(lp66
I36904
aI0
aa(lp67
I36904
aI3
aa(lp68
I36904
aI4
aa(lp69
I37244
aI0
aa(lp70
I38367
aI1
aa(lp71
I38367
aI3
aa(lp72
I38508
aI0
aa.