(lp0
(lp1
I215
aI0
aa(lp2
I215
aI2
aa(lp3
I215
aI3
aa(lp4
I215
aI4
aa(lp5
I349
aI1
aa(lp6
I457
aI3
aa(lp7
I1118
aI2
aa(lp8
I1170
aI2
aa(lp9
I1295
aI3
aa(lp10
I1295
aI4
aa(lp11
I1381
aI0
aa(lp12
I1381
aI2
aa(lp13
I1381
aI3
aa(lp14
I1381
aI4
aa(lp15
I1559
aI3
aa(lp16
I1559
aI4
aa(lp17
I1627
aI2
aa(lp18
I1719
aI1
aa(lp19
I1874
aI4
aa(lp20
I2387
aI1
aa(lp21
I2442
aI2
aa(lp22
I2500
aI1
aa(lp23
I2500
aI2
aa(lp24
I2500
aI3
aa(lp25
I2621
aI3
aa(lp26
I2696
aI3
aa(lp27
I2833
aI3
aa(lp28
I3254
aI2
aa(lp29
I3254
aI3
aa(lp30
I3254
aI4
aa(lp31
I3821
aI1
aa(lp32
I3821
aI2
aa(lp33
I3821
aI3
aa(lp34
I4110
aI2
aa(lp35
I4286
aI0
aa(lp36
I4432
aI1
aa(lp37
I5036
aI3
aa(lp38
I5071
aI2
aa(lp39
I5139
aI3
aa(lp40
I5872
aI1
aa(lp41
I5872
aI2
aa(lp42
I5872
aI3
aa(lp43
I5872
aI4
aa(lp44
I6001
aI1
aa(lp45
I6001
aI2
aa(lp46
I6001
aI4
aa(lp47
I6305
aI3
aa(lp48
I6326
aI0
aa(lp49
I6326
aI2
aa(lp50
I6326
aI3
aa(lp51
I6356
aI1
aa(lp52
I6475
aI4
aa(lp53
I6529
aI4
aa(lp54
I6868
aI0
aa(lp55
I7328
aI1
aa(lp56
I7328
aI3
aa(lp57
I7522
aI0
aa(lp58
I7522
aI1
aa(lp59
I7792
aI2
aa(lp60
I7814
aI1
aa(lp61
I7814
aI2
aa(lp62
I8212
aI3
aa(lp63
I8679
aI0
aa(lp64
I8680
aI2
aa(lp65
I8711
aI4
aa(lp66
I8817
aI4
aa(lp67
I9370
aI3
aa(lp68
I10501
aI0
aa(lp69
I10944
aI0
aa(lp70
I11304
aI0
aa(lp71
I11714
aI4
aa(lp72
I12147
aI1
aa(lp73
I12147
aI2
aa(lp74
I12147
aI3
aa(lp75
I12363
aI0
aa(lp76
I12462
aI3
aa(lp77
I12572
aI0
aa(lp78
I12572
aI3
aa(lp79
I12934
aI1
aa(lp80
I14424
aI1
aa(lp81
I14867
aI0
aa(lp82
I14883
aI4
aa(lp83
I15371
aI1
aa(lp84
I15567
aI4
aa(lp85
I15965
aI1
aa(lp86
I15965
aI2
aa(lp87
I16271
aI1
aa(lp88
I16271
aI3
aa(lp89
I16271
aI4
aa(lp90
I16447
aI2
aa(lp91
I16486
aI4
aa(lp92
I16528
aI1
aa(lp93
I16528
aI2
aa(lp94
I16577
aI0
aa(lp95
I16577
aI2
aa(lp96
I16600
aI1
aa(lp97
I16727
aI1
aa(lp98
I16740
aI2
aa(lp99
I17056
aI2
aa(lp100
I17188
aI2
aa(lp101
I17853
aI2
aa(lp102
I18551
aI2
aa(lp103
I18551
aI4
aa(lp104
I18893
aI2
aa(lp105
I19291
aI0
aa(lp106
I19291
aI3
aa(lp107
I19534
aI3
aa(lp108
I20736
aI0
aa(lp109
I20813
aI3
aa(lp110
I21071
aI0
aa(lp111
I21076
aI4
aa(lp112
I21689
aI1
aa(lp113
I21689
aI2
aa(lp114
I21957
aI2
aa(lp115
I21957
aI3
aa(lp116
I21981
aI0
aa(lp117
I22399
aI3
aa(lp118
I22441
aI1
aa(lp119
I22701
aI0
aa(lp120
I23041
aI0
aa(lp121
I23041
aI1
aa(lp122
I23257
aI1
aa(lp123
I23401
aI2
aa(lp124
I23448
aI4
aa(lp125
I23604
aI0
aa(lp126
I23604
aI3
aa(lp127
I23604
aI4
aa(lp128
I23823
aI3
aa(lp129
I23823
aI4
aa(lp130
I23909
aI3
aa(lp131
I23928
aI2
aa(lp132
I23928
aI3
aa(lp133
I23934
aI1
aa(lp134
I23934
aI3
aa(lp135
I23998
aI1
aa(lp136
I23998
aI4
aa(lp137
I24372
aI4
aa(lp138
I24504
aI1
aa(lp139
I24504
aI4
aa(lp140
I24695
aI2
aa(lp141
I24942
aI0
aa(lp142
I24942
aI1
aa(lp143
I25191
aI0
aa(lp144
I25302
aI3
aa(lp145
I25757
aI2
aa(lp146
I25762
aI4
aa(lp147
I25805
aI0
aa(lp148
I25987
aI4
aa(lp149
I26105
aI2
aa(lp150
I26105
aI3
aa(lp151
I26246
aI2
aa(lp152
I26246
aI4
aa(lp153
I26996
aI4
aa(lp154
I27303
aI3
aa(lp155
I27303
aI4
aa(lp156
I27474
aI4
aa(lp157
I27902
aI3
aa(lp158
I28256
aI1
aa(lp159
I28256
aI2
aa(lp160
I28256
aI3
aa(lp161
I28288
aI1
aa(lp162
I28288
aI3
aa(lp163
I28288
aI4
aa(lp164
I28449
aI0
aa(lp165
I28449
aI1
aa(lp166
I28449
aI3
aa(lp167
I28502
aI2
aa(lp168
I28502
aI3
aa(lp169
I28502
aI4
aa(lp170
I28558
aI1
aa(lp171
I28558
aI4
aa(lp172
I28617
aI4
aa(lp173
I28694
aI0
aa(lp174
I28694
aI1
aa(lp175
I28694
aI2
aa(lp176
I28694
aI4
aa(lp177
I28707
aI1
aa(lp178
I28707
aI4
aa(lp179
I29124
aI0
aa(lp180
I29216
aI3
aa(lp181
I29674
aI1
aa(lp182
I29674
aI3
aa(lp183
I29674
aI4
aa(lp184
I29924
aI0
aa(lp185
I29954
aI0
aa(lp186
I29954
aI2
aa(lp187
I30059
aI0
aa(lp188
I30059
aI4
aa(lp189
I30291
aI1
aa(lp190
I30302
aI1
aa(lp191
I30810
aI0
aa(lp192
I30810
aI1
aa(lp193
I30810
aI3
aa(lp194
I30810
aI4
aa(lp195
I30826
aI0
aa(lp196
I30950
aI3
aa(lp197
I30950
aI4
aa(lp198
I31286
aI1
aa(lp199
I31286
aI3
aa(lp200
I31286
aI4
aa(lp201
I31314
aI1
aa(lp202
I31695
aI0
aa(lp203
I31695
aI1
aa(lp204
I31695
aI4
aa(lp205
I31761
aI1
aa(lp206
I31906
aI3
aa(lp207
I31996
aI3
aa(lp208
I32258
aI1
aa(lp209
I32292
aI1
aa(lp210
I32377
aI0
aa(lp211
I32377
aI1
aa(lp212
I32377
aI3
aa(lp213
I32809
aI1
aa(lp214
I32897
aI4
aa(lp215
I33005
aI0
aa(lp216
I33226
aI0
aa(lp217
I33327
aI0
aa(lp218
I33327
aI1
aa(lp219
I33327
aI2
aa(lp220
I33327
aI3
aa(lp221
I33327
aI4
aa(lp222
I33532
aI0
aa(lp223
I33675
aI2
aa(lp224
I34179
aI2
aa(lp225
I34232
aI4
aa(lp226
I34877
aI0
aa(lp227
I35203
aI1
aa(lp228
I35241
aI1
aa(lp229
I35268
aI2
aa(lp230
I35475
aI0
aa(lp231
I35488
aI0
aa(lp232
I35488
aI2
aa(lp233
I35488
aI4
aa(lp234
I35532
aI3
aa(lp235
I35532
aI4
aa(lp236
I35713
aI0
aa(lp237
I36210
aI0
aa(lp238
I36210
aI1
aa(lp239
I36210
aI3
aa(lp240
I36379
aI0
aa(lp241
I36463
aI0
aa(lp242
I36463
aI2
aa(lp243
I36919
aI3
aa(lp244
I37434
aI1
aa(lp245
I37434
aI2
aa(lp246
I37434
aI3
aa(lp247
I38750
aI1
aa(lp248
I38948
aI0
aa(lp249
I38998
aI2
aa(lp250
I38998
aI3
aa(lp251
I39249
aI2
aa(lp252
I39309
aI2
aa(lp253
I39353
aI0
aa(lp254
I39353
aI1
aa(lp255
I39353
aI2
aa(lp256
I39353
aI4
aa(lp257
I39384
aI0
aa(lp258
I39384
aI1
aa(lp259
I39384
aI3
aa(lp260
I39483
aI1
aa(lp261
I39483
aI3
aa(lp262
I39924
aI0
aa(lp263
I39924
aI3
aa(lp264
I39955
aI2
aa.