(lp0
(lp1
I42
aI0
aa(lp2
I42
aI3
aa(lp3
I42
aI4
aa(lp4
I64
aI2
aa(lp5
I64
aI3
aa(lp6
I64
aI4
aa(lp7
I103
aI3
aa(lp8
I427
aI0
aa(lp9
I427
aI1
aa(lp10
I427
aI3
aa(lp11
I427
aI4
aa(lp12
I583
aI1
aa(lp13
I610
aI1
aa(lp14
I610
aI4
aa(lp15
I624
aI1
aa(lp16
I624
aI2
aa(lp17
I624
aI4
aa(lp18
I716
aI1
aa(lp19
I716
aI2
aa(lp20
I724
aI1
aa(lp21
I724
aI2
aa(lp22
I842
aI1
aa(lp23
I842
aI4
aa(lp24
I905
aI0
aa(lp25
I989
aI0
aa(lp26
I1012
aI3
aa(lp27
I1012
aI4
aa(lp28
I1249
aI1
aa(lp29
I1537
aI0
aa(lp30
I1537
aI3
aa(lp31
I1690
aI0
aa(lp32
I1690
aI1
aa(lp33
I1690
aI3
aa(lp34
I1690
aI4
aa(lp35
I1814
aI3
aa(lp36
I1868
aI0
aa(lp37
I1868
aI3
aa(lp38
I1915
aI2
aa(lp39
I1989
aI3
aa(lp40
I2040
aI4
aa(lp41
I2208
aI2
aa(lp42
I2243
aI0
aa(lp43
I2243
aI3
aa(lp44
I2243
aI4
aa(lp45
I2289
aI1
aa(lp46
I2289
aI3
aa(lp47
I2320
aI2
aa(lp48
I2359
aI4
aa(lp49
I2398
aI2
aa(lp50
I2398
aI4
aa(lp51
I2401
aI3
aa(lp52
I2443
aI0
aa(lp53
I2443
aI4
aa(lp54
I2445
aI0
aa(lp55
I2445
aI4
aa(lp56
I2674
aI4
aa(lp57
I2692
aI1
aa(lp58
I2692
aI2
aa(lp59
I2692
aI3
aa(lp60
I2692
aI4
aa(lp61
I2725
aI0
aa(lp62
I3020
aI0
aa(lp63
I3060
aI1
aa(lp64
I3076
aI3
aa(lp65
I3076
aI4
aa(lp66
I3095
aI0
aa(lp67
I3095
aI3
aa(lp68
I3125
aI0
aa(lp69
I3125
aI4
aa(lp70
I3153
aI4
aa(lp71
I3219
aI1
aa(lp72
I3219
aI2
aa(lp73
I3246
aI3
aa(lp74
I3268
aI0
aa(lp75
I3268
aI1
aa(lp76
I3268
aI2
aa(lp77
I3303
aI3
aa(lp78
I3303
aI4
aa(lp79
I3377
aI0
aa(lp80
I3377
aI1
aa(lp81
I3377
aI4
aa(lp82
I3411
aI0
aa(lp83
I3411
aI1
aa(lp84
I3411
aI2
aa(lp85
I3411
aI3
aa(lp86
I3411
aI4
aa(lp87
I3453
aI3
aa(lp88
I3609
aI3
aa(lp89
I3886
aI0
aa(lp90
I3900
aI2
aa(lp91
I3900
aI3
aa(lp92
I4077
aI0
aa(lp93
I4077
aI1
aa(lp94
I4113
aI0
aa(lp95
I4160
aI1
aa(lp96
I4160
aI4
aa(lp97
I4201
aI0
aa(lp98
I4201
aI1
aa(lp99
I4201
aI3
aa(lp100
I4201
aI4
aa(lp101
I4246
aI1
aa(lp102
I4391
aI0
aa(lp103
I4420
aI0
aa(lp104
I4420
aI2
aa(lp105
I4516
aI1
aa(lp106
I4516
aI2
aa(lp107
I4516
aI3
aa(lp108
I4571
aI0
aa(lp109
I4571
aI2
aa(lp110
I4571
aI3
aa(lp111
I4571
aI4
aa(lp112
I4654
aI1
aa(lp113
I4654
aI2
aa(lp114
I4696
aI2
aa(lp115
I4710
aI0
aa(lp116
I4710
aI2
aa(lp117
I4737
aI0
aa(lp118
I4737
aI1
aa(lp119
I4785
aI0
aa(lp120
I4785
aI1
aa(lp121
I4785
aI2
aa(lp122
I4785
aI3
aa(lp123
I4785
aI4
aa(lp124
I4867
aI1
aa(lp125
I4867
aI3
aa(lp126
I4946
aI0
aa(lp127
I4946
aI1
aa(lp128
I4946
aI2
aa(lp129
I4948
aI0
aa(lp130
I4948
aI2
aa(lp131
I5164
aI1
aa(lp132
I5164
aI3
aa(lp133
I5164
aI4
aa(lp134
I5203
aI3
aa(lp135
I5242
aI1
aa(lp136
I5350
aI1
aa(lp137
I5350
aI2
aa(lp138
I5350
aI3
aa(lp139
I5350
aI4
aa(lp140
I5502
aI0
aa(lp141
I5502
aI1
aa(lp142
I5502
aI2
aa(lp143
I5502
aI3
aa(lp144
I5502
aI4
aa(lp145
I5562
aI1
aa(lp146
I5618
aI0
aa(lp147
I5618
aI2
aa(lp148
I5618
aI3
aa(lp149
I5758
aI0
aa(lp150
I5758
aI1
aa(lp151
I5758
aI4
aa(lp152
I5947
aI1
aa(lp153
I5947
aI4
aa(lp154
I6032
aI2
aa(lp155
I6032
aI3
aa(lp156
I6063
aI0
aa(lp157
I6063
aI2
aa(lp158
I6063
aI3
aa(lp159
I6156
aI0
aa(lp160
I6156
aI4
aa(lp161
I6199
aI1
aa(lp162
I6199
aI3
aa(lp163
I6231
aI0
aa(lp164
I6231
aI1
aa(lp165
I6231
aI3
aa(lp166
I6262
aI0
aa(lp167
I6262
aI1
aa(lp168
I6262
aI4
aa(lp169
I6271
aI0
aa(lp170
I6271
aI4
aa(lp171
I6296
aI0
aa(lp172
I6296
aI1
aa(lp173
I6296
aI3
aa(lp174
I6296
aI4
aa(lp175
I6403
aI1
aa(lp176
I6403
aI2
aa(lp177
I6403
aI3
aa(lp178
I6403
aI4
aa(lp179
I6558
aI2
aa(lp180
I6558
aI4
aa(lp181
I6646
aI3
aa(lp182
I6691
aI0
aa(lp183
I6698
aI0
aa(lp184
I6698
aI4
aa(lp185
I6704
aI4
aa(lp186
I6712
aI2
aa(lp187
I6712
aI3
aa(lp188
I6968
aI2
aa(lp189
I7002
aI1
aa(lp190
I7010
aI1
aa(lp191
I7010
aI3
aa(lp192
I7164
aI1
aa(lp193
I7164
aI2
aa(lp194
I7164
aI3
aa(lp195
I7164
aI4
aa(lp196
I7283
aI0
aa(lp197
I7283
aI1
aa(lp198
I7283
aI3
aa(lp199
I7496
aI0
aa(lp200
I7496
aI1
aa(lp201
I7496
aI2
aa(lp202
I7499
aI2
aa(lp203
I7499
aI4
aa(lp204
I7631
aI0
aa(lp205
I7631
aI1
aa(lp206
I7631
aI3
aa(lp207
I7631
aI4
aa(lp208
I7699
aI1
aa(lp209
I7699
aI2
aa(lp210
I7699
aI4
aa(lp211
I7717
aI2
aa(lp212
I7879
aI1
aa(lp213
I7879
aI2
aa(lp214
I7989
aI4
aa(lp215
I8227
aI4
aa(lp216
I8294
aI0
aa(lp217
I8386
aI2
aa(lp218
I8479
aI2
aa(lp219
I8479
aI3
aa(lp220
I8523
aI0
aa(lp221
I8523
aI1
aa(lp222
I8523
aI2
aa(lp223
I8523
aI3
aa(lp224
I8533
aI1
aa(lp225
I8538
aI1
aa(lp226
I8557
aI2
aa(lp227
I8606
aI4
aa(lp228
I8614
aI4
aa(lp229
I8667
aI2
aa(lp230
I8667
aI3
aa(lp231
I8667
aI4
aa(lp232
I8784
aI1
aa(lp233
I8942
aI4
aa(lp234
I9104
aI0
aa(lp235
I9199
aI1
aa(lp236
I9199
aI2
aa(lp237
I9363
aI2
aa(lp238
I9548
aI1
aa(lp239
I9548
aI4
aa(lp240
I9621
aI0
aa(lp241
I9621
aI4
aa(lp242
I9664
aI1
aa(lp243
I9664
aI2
aa(lp244
I9685
aI0
aa(lp245
I9685
aI1
aa(lp246
I9740
aI0
aa(lp247
I9740
aI1
aa(lp248
I9740
aI3
aa(lp249
I9793
aI4
aa(lp250
I10117
aI0
aa(lp251
I10121
aI0
aa(lp252
I10121
aI1
aa(lp253
I10121
aI2
aa(lp254
I10121
aI3
aa(lp255
I10121
aI4
aa(lp256
I10207
aI2
aa(lp257
I10210
aI2
aa(lp258
I10210
aI4
aa(lp259
I10267
aI2
aa(lp260
I10293
aI1
aa(lp261
I10306
aI0
aa(lp262
I10306
aI2
aa(lp263
I10306
aI4
aa(lp264
I10310
aI0
aa(lp265
I10310
aI2
aa(lp266
I10310
aI4
aa(lp267
I10349
aI1
aa(lp268
I10349
aI3
aa(lp269
I10349
aI4
aa(lp270
I10382
aI2
aa(lp271
I10382
aI3
aa(lp272
I10382
aI4
aa(lp273
I10431
aI4
aa(lp274
I10465
aI2
aa(lp275
I10465
aI3
aa(lp276
I10511
aI2
aa(lp277
I10511
aI4
aa(lp278
I10524
aI0
aa(lp279
I10524
aI3
aa(lp280
I10628
aI0
aa(lp281
I10628
aI1
aa(lp282
I10628
aI2
aa(lp283
I10628
aI3
aa(lp284
I10628
aI4
aa(lp285
I10852
aI3
aa(lp286
I10852
aI4
aa(lp287
I10896
aI0
aa(lp288
I10904
aI0
aa(lp289
I10904
aI2
aa(lp290
I10904
aI3
aa(lp291
I10952
aI0
aa(lp292
I10952
aI2
aa(lp293
I11005
aI2
aa(lp294
I11027
aI0
aa(lp295
I11027
aI1
aa(lp296
I11058
aI3
aa(lp297
I11058
aI4
aa(lp298
I11137
aI0
aa(lp299
I11222
aI1
aa(lp300
I11222
aI2
aa(lp301
I11222
aI5
aa(lp302
I11330
aI1
aa(lp303
I11414
aI1
aa(lp304
I11474
aI0
aa(lp305
I11474
aI1
aa(lp306
I11474
aI2
aa(lp307
I11474
aI3
aa(lp308
I11474
aI4
aa(lp309
I11559
aI0
aa(lp310
I11769
aI0
aa(lp311
I11769
aI2
aa(lp312
I11769
aI3
aa(lp313
I11873
aI3
aa(lp314
I11980
aI0
aa(lp315
I11980
aI1
aa(lp316
I11980
aI4
aa(lp317
I11992
aI1
aa(lp318
I11992
aI3
aa(lp319
I12154
aI2
aa(lp320
I12154
aI3
aa(lp321
I12158
aI0
aa(lp322
I12158
aI1
aa(lp323
I12158
aI2
aa(lp324
I12199
aI0
aa(lp325
I12222
aI0
aa(lp326
I12360
aI0
aa(lp327
I12360
aI2
aa(lp328
I12360
aI4
aa(lp329
I12456
aI2
aa(lp330
I12456
aI3
aa(lp331
I12667
aI0
aa(lp332
I12667
aI1
aa(lp333
I12686
aI1
aa(lp334
I12686
aI4
aa(lp335
I12793
aI0
aa(lp336
I12793
aI4
aa(lp337
I12865
aI0
aa(lp338
I12865
aI3
aa(lp339
I12865
aI4
aa(lp340
I12952
aI0
aa(lp341
I12952
aI3
aa(lp342
I13005
aI2
aa(lp343
I13173
aI2
aa(lp344
I13413
aI3
aa(lp345
I13434
aI2
aa(lp346
I13434
aI4
aa(lp347
I13493
aI0
aa(lp348
I13493
aI1
aa(lp349
I13493
aI2
aa(lp350
I13493
aI3
aa(lp351
I13620
aI2
aa(lp352
I13778
aI2
aa(lp353
I13801
aI2
aa(lp354
I13801
aI4
aa(lp355
I13913
aI0
aa(lp356
I13913
aI4
aa(lp357
I14061
aI1
aa(lp358
I14096
aI4
aa(lp359
I14219
aI1
aa(lp360
I14245
aI3
aa(lp361
I14262
aI1
aa(lp362
I14262
aI2
aa(lp363
I14262
aI3
aa(lp364
I14262
aI4
aa(lp365
I14288
aI0
aa(lp366
I14288
aI3
aa(lp367
I14519
aI1
aa(lp368
I14577
aI0
aa(lp369
I14577
aI1
aa(lp370
I14577
aI3
aa(lp371
I14867
aI0
aa(lp372
I14867
aI4
aa(lp373
I15144
aI0
aa(lp374
I15183
aI1
aa(lp375
I15183
aI2
aa(lp376
I15214
aI0
aa(lp377
I15214
aI1
aa(lp378
I15249
aI0
aa(lp379
I15249
aI1
aa(lp380
I15249
aI2
aa(lp381
I15249
aI4
aa(lp382
I15316
aI1
aa(lp383
I15316
aI4
aa(lp384
I15356
aI0
aa(lp385
I15356
aI1
aa(lp386
I15356
aI3
aa(lp387
I15356
aI4
aa(lp388
I15390
aI1
aa(lp389
I15390
aI2
aa(lp390
I15390
aI4
aa(lp391
I15515
aI0
aa(lp392
I15515
aI3
aa(lp393
I15549
aI0
aa(lp394
I15549
aI1
aa(lp395
I15549
aI2
aa(lp396
I15549
aI3
aa(lp397
I15688
aI1
aa(lp398
I15688
aI3
aa(lp399
I15688
aI4
aa(lp400
I15868
aI3
aa(lp401
I15905
aI3
aa(lp402
I15964
aI1
aa(lp403
I15964
aI4
aa(lp404
I16108
aI1
aa(lp405
I16108
aI3
aa(lp406
I16199
aI2
aa(lp407
I16220
aI0
aa(lp408
I16220
aI2
aa(lp409
I16220
aI4
aa(lp410
I16285
aI0
aa(lp411
I16285
aI1
aa(lp412
I16285
aI4
aa(lp413
I16323
aI0
aa(lp414
I16323
aI1
aa(lp415
I16323
aI2
aa(lp416
I16492
aI0
aa(lp417
I16505
aI0
aa(lp418
I16505
aI4
aa(lp419
I16634
aI0
aa(lp420
I16634
aI2
aa(lp421
I16634
aI4
aa(lp422
I16703
aI2
aa(lp423
I16721
aI0
aa(lp424
I16721
aI1
aa(lp425
I16761
aI0
aa(lp426
I16808
aI0
aa(lp427
I16877
aI2
aa(lp428
I16976
aI1
aa(lp429
I17125
aI4
aa(lp430
I17143
aI0
aa(lp431
I17242
aI3
aa(lp432
I17343
aI2
aa(lp433
I17343
aI4
aa(lp434
I17484
aI0
aa(lp435
I17484
aI3
aa(lp436
I17490
aI0
aa(lp437
I17490
aI1
aa(lp438
I17731
aI2
aa(lp439
I17795
aI1
aa(lp440
I17796
aI4
aa(lp441
I17857
aI0
aa(lp442
I17997
aI3
aa(lp443
I18301
aI0
aa(lp444
I18301
aI4
aa(lp445
I18406
aI1
aa(lp446
I18456
aI0
aa(lp447
I18456
aI1
aa(lp448
I18461
aI2
aa(lp449
I18517
aI0
aa(lp450
I18517
aI3
aa(lp451
I18588
aI0
aa(lp452
I18588
aI1
aa(lp453
I18588
aI2
aa(lp454
I18588
aI4
aa(lp455
I18589
aI0
aa(lp456
I18620
aI0
aa(lp457
I18620
aI3
aa(lp458
I18620
aI4
aa(lp459
I18633
aI4
aa(lp460
I18682
aI0
aa(lp461
I18682
aI1
aa(lp462
I18682
aI2
aa(lp463
I18682
aI4
aa(lp464
I18704
aI1
aa(lp465
I18740
aI0
aa(lp466
I18740
aI3
aa(lp467
I18986
aI3
aa(lp468
I19183
aI3
aa(lp469
I19183
aI4
aa(lp470
I19221
aI4
aa(lp471
I19320
aI1
aa(lp472
I19320
aI4
aa(lp473
I19345
aI0
aa(lp474
I19379
aI1
aa(lp475
I19379
aI4
aa(lp476
I19542
aI0
aa(lp477
I19542
aI1
aa(lp478
I19551
aI0
aa(lp479
I19578
aI0
aa(lp480
I19578
aI1
aa(lp481
I19578
aI2
aa(lp482
I19578
aI4
aa(lp483
I19942
aI0
aa(lp484
I19942
aI1
aa(lp485
I19942
aI2
aa(lp486
I19942
aI3
aa(lp487
I19942
aI4
aa(lp488
I20065
aI1
aa(lp489
I20226
aI4
aa(lp490
I20249
aI0
aa(lp491
I20249
aI1
aa(lp492
I20249
aI2
aa(lp493
I20249
aI4
aa(lp494
I20519
aI1
aa(lp495
I20519
aI4
aa(lp496
I20689
aI1
aa(lp497
I20689
aI4
aa(lp498
I20711
aI0
aa(lp499
I20711
aI2
aa(lp500
I20711
aI3
aa(lp501
I20711
aI4
aa(lp502
I20867
aI1
aa(lp503
I20867
aI2
aa(lp504
I20867
aI4
aa(lp505
I20922
aI1
aa(lp506
I20922
aI2
aa(lp507
I20922
aI4
aa(lp508
I21024
aI0
aa(lp509
I21024
aI3
aa(lp510
I21119
aI1
aa(lp511
I21119
aI2
aa(lp512
I21119
aI3
aa(lp513
I21173
aI1
aa(lp514
I21173
aI4
aa(lp515
I21228
aI0
aa(lp516
I21228
aI1
aa(lp517
I21246
aI0
aa(lp518
I21246
aI1
aa(lp519
I21246
aI3
aa(lp520
I21246
aI4
aa(lp521
I21382
aI2
aa(lp522
I21384
aI0
aa(lp523
I21384
aI1
aa(lp524
I21384
aI2
aa(lp525
I21384
aI3
aa(lp526
I21384
aI4
aa(lp527
I21395
aI3
aa(lp528
I21531
aI0
aa(lp529
I21531
aI2
aa(lp530
I21568
aI1
aa(lp531
I21568
aI3
aa(lp532
I21568
aI4
aa(lp533
I21623
aI0
aa(lp534
I21623
aI1
aa(lp535
I21743
aI1
aa(lp536
I21743
aI4
aa(lp537
I21783
aI0
aa(lp538
I21783
aI2
aa(lp539
I21783
aI3
aa(lp540
I21783
aI4
aa(lp541
I21803
aI1
aa(lp542
I21892
aI2
aa(lp543
I21904
aI3
aa(lp544
I21919
aI0
aa(lp545
I21919
aI2
aa(lp546
I22006
aI2
aa(lp547
I22059
aI2
aa(lp548
I22059
aI3
aa(lp549
I22059
aI4
aa(lp550
I22159
aI0
aa(lp551
I22159
aI1
aa(lp552
I22159
aI3
aa(lp553
I22159
aI4
aa(lp554
I22271
aI0
aa(lp555
I22271
aI1
aa(lp556
I22271
aI4
aa(lp557
I22285
aI2
aa(lp558
I22465
aI1
aa(lp559
I22465
aI3
aa(lp560
I22465
aI4
aa(lp561
I22478
aI0
aa(lp562
I22478
aI3
aa(lp563
I22478
aI4
aa(lp564
I22516
aI0
aa(lp565
I22516
aI1
aa(lp566
I22516
aI2
aa(lp567
I22566
aI2
aa(lp568
I22566
aI4
aa(lp569
I22584
aI1
aa(lp570
I22584
aI3
aa(lp571
I22585
aI1
aa(lp572
I22585
aI2
aa(lp573
I22585
aI3
aa(lp574
I22585
aI4
aa(lp575
I22706
aI0
aa(lp576
I22706
aI2
aa(lp577
I22706
aI3
aa(lp578
I22732
aI3
aa(lp579
I22829
aI1
aa(lp580
I22829
aI3
aa(lp581
I22829
aI4
aa(lp582
I22879
aI2
aa(lp583
I22879
aI3
aa(lp584
I23004
aI0
aa(lp585
I23004
aI1
aa(lp586
I23004
aI2
aa(lp587
I23004
aI3
aa(lp588
I23006
aI4
aa(lp589
I23107
aI0
aa(lp590
I23239
aI0
aa(lp591
I23239
aI2
aa(lp592
I23239
aI4
aa(lp593
I23254
aI2
aa(lp594
I23440
aI1
aa(lp595
I23440
aI3
aa(lp596
I23457
aI2
aa(lp597
I23479
aI0
aa(lp598
I23479
aI3
aa(lp599
I23630
aI3
aa(lp600
I23690
aI0
aa(lp601
I23942
aI1
aa(lp602
I23946
aI3
aa(lp603
I23997
aI0
aa(lp604
I24146
aI0
aa(lp605
I24146
aI1
aa(lp606
I24146
aI4
aa(lp607
I24473
aI1
aa(lp608
I24473
aI4
aa(lp609
I24491
aI0
aa(lp610
I24491
aI1
aa(lp611
I24491
aI2
aa(lp612
I24491
aI3
aa(lp613
I24702
aI1
aa(lp614
I24809
aI0
aa(lp615
I24809
aI3
aa(lp616
I24809
aI4
aa(lp617
I24976
aI0
aa(lp618
I25016
aI1
aa(lp619
I25047
aI0
aa(lp620
I25047
aI1
aa(lp621
I25047
aI2
aa(lp622
I25059
aI2
aa(lp623
I25059
aI3
aa(lp624
I25148
aI3
aa(lp625
I25196
aI1
aa(lp626
I25273
aI0
aa(lp627
I25369
aI4
aa(lp628
I25373
aI3
aa(lp629
I25376
aI1
aa(lp630
I25376
aI2
aa(lp631
I25376
aI3
aa(lp632
I25376
aI4
aa(lp633
I25408
aI0
aa(lp634
I25408
aI1
aa(lp635
I25408
aI2
aa(lp636
I25408
aI3
aa(lp637
I25408
aI4
aa(lp638
I25485
aI0
aa(lp639
I25505
aI1
aa(lp640
I25530
aI1
aa(lp641
I25673
aI3
aa(lp642
I25816
aI0
aa(lp643
I25818
aI2
aa(lp644
I25818
aI3
aa(lp645
I25932
aI2
aa(lp646
I25932
aI4
aa(lp647
I26006
aI0
aa(lp648
I26006
aI1
aa(lp649
I26006
aI2
aa(lp650
I26006
aI4
aa(lp651
I26071
aI2
aa(lp652
I26075
aI2
aa(lp653
I26087
aI1
aa(lp654
I26148
aI1
aa(lp655
I26148
aI2
aa(lp656
I26148
aI3
aa(lp657
I26149
aI0
aa(lp658
I26222
aI2
aa(lp659
I26431
aI0
aa(lp660
I26431
aI2
aa(lp661
I26431
aI3
aa(lp662
I26486
aI1
aa(lp663
I26560
aI0
aa(lp664
I26560
aI3
aa(lp665
I26715
aI0
aa(lp666
I26715
aI1
aa(lp667
I26715
aI3
aa(lp668
I26715
aI4
aa(lp669
I26743
aI1
aa(lp670
I26816
aI1
aa(lp671
I26816
aI3
aa(lp672
I26880
aI0
aa(lp673
I26880
aI1
aa(lp674
I26880
aI2
aa(lp675
I26880
aI3
aa(lp676
I26966
aI1
aa(lp677
I26966
aI4
aa(lp678
I26971
aI2
aa(lp679
I26971
aI3
aa(lp680
I27143
aI0
aa(lp681
I27143
aI1
aa(lp682
I27343
aI3
aa(lp683
I27467
aI1
aa(lp684
I27482
aI0
aa(lp685
I27482
aI3
aa(lp686
I27501
aI2
aa(lp687
I27602
aI2
aa(lp688
I27643
aI2
aa(lp689
I27712
aI0
aa(lp690
I27712
aI4
aa(lp691
I27917
aI2
aa(lp692
I28026
aI1
aa(lp693
I28026
aI2
aa(lp694
I28026
aI4
aa(lp695
I28098
aI0
aa(lp696
I28130
aI0
aa(lp697
I28130
aI1
aa(lp698
I28130
aI2
aa(lp699
I28130
aI3
aa(lp700
I28130
aI4
aa(lp701
I28230
aI1
aa(lp702
I28257
aI0
aa(lp703
I28257
aI1
aa(lp704
I28316
aI1
aa(lp705
I28316
aI3
aa(lp706
I28316
aI4
aa(lp707
I28332
aI0
aa(lp708
I28353
aI2
aa(lp709
I28353
aI4
aa(lp710
I28446
aI4
aa(lp711
I28449
aI3
aa(lp712
I28456
aI2
aa(lp713
I28520
aI4
aa(lp714
I28538
aI0
aa(lp715
I28538
aI3
aa(lp716
I28538
aI4
aa(lp717
I28566
aI1
aa(lp718
I28603
aI0
aa(lp719
I28603
aI1
aa(lp720
I28603
aI2
aa(lp721
I28603
aI4
aa(lp722
I28624
aI0
aa(lp723
I28624
aI1
aa(lp724
I28736
aI0
aa(lp725
I28736
aI1
aa(lp726
I28780
aI0
aa(lp727
I28780
aI4
aa(lp728
I28818
aI4
aa(lp729
I28864
aI1
aa(lp730
I28864
aI2
aa(lp731
I28864
aI3
aa(lp732
I28932
aI0
aa(lp733
I28932
aI3
aa(lp734
I28932
aI4
aa(lp735
I29054
aI0
aa(lp736
I29054
aI4
aa(lp737
I29065
aI0
aa(lp738
I29065
aI2
aa(lp739
I29151
aI4
aa(lp740
I29496
aI4
aa(lp741
I29504
aI1
aa(lp742
I29581
aI0
aa(lp743
I29581
aI2
aa(lp744
I29627
aI2
aa(lp745
I29627
aI4
aa(lp746
I29689
aI2
aa(lp747
I29707
aI0
aa(lp748
I29707
aI4
aa(lp749
I29747
aI1
aa(lp750
I29747
aI2
aa(lp751
I29747
aI3
aa(lp752
I30105
aI3
aa(lp753
I30122
aI1
aa(lp754
I30276
aI0
aa(lp755
I30276
aI1
aa(lp756
I30276
aI2
aa(lp757
I30337
aI1
aa(lp758
I30502
aI0
aa(lp759
I30590
aI3
aa(lp760
I30717
aI1
aa(lp761
I30873
aI1
aa(lp762
I30873
aI2
aa(lp763
I30882
aI0
aa(lp764
I30912
aI2
aa(lp765
I30921
aI0
aa(lp766
I30937
aI0
aa(lp767
I30957
aI0
aa(lp768
I30957
aI1
aa(lp769
I30957
aI2
aa(lp770
I30957
aI3
aa(lp771
I30957
aI4
aa(lp772
I31076
aI4
aa(lp773
I31116
aI2
aa(lp774
I31120
aI2
aa(lp775
I31123
aI0
aa(lp776
I31123
aI1
aa(lp777
I31123
aI3
aa(lp778
I31123
aI4
aa(lp779
I31141
aI0
aa(lp780
I31141
aI1
aa(lp781
I31151
aI4
aa(lp782
I31172
aI1
aa(lp783
I31172
aI4
aa(lp784
I31223
aI4
aa(lp785
I31337
aI1
aa(lp786
I31337
aI2
aa(lp787
I31337
aI3
aa(lp788
I31337
aI4
aa(lp789
I31354
aI0
aa(lp790
I31354
aI1
aa(lp791
I31354
aI3
aa(lp792
I31354
aI4
aa(lp793
I31377
aI3
aa(lp794
I31377
aI4
aa(lp795
I31420
aI0
aa(lp796
I31420
aI1
aa(lp797
I31493
aI0
aa(lp798
I31493
aI2
aa(lp799
I31493
aI3
aa(lp800
I31504
aI0
aa(lp801
I31504
aI3
aa(lp802
I31504
aI4
aa(lp803
I31757
aI0
aa(lp804
I31757
aI1
aa(lp805
I31757
aI2
aa(lp806
I31757
aI3
aa(lp807
I31757
aI4
aa(lp808
I31765
aI1
aa(lp809
I31765
aI2
aa(lp810
I31765
aI3
aa(lp811
I31765
aI4
aa(lp812
I31800
aI2
aa(lp813
I31915
aI3
aa(lp814
I31915
aI4
aa(lp815
I32020
aI0
aa(lp816
I32020
aI3
aa(lp817
I32061
aI0
aa(lp818
I32061
aI2
aa(lp819
I32061
aI3
aa(lp820
I32130
aI3
aa(lp821
I32261
aI3
aa(lp822
I32311
aI2
aa(lp823
I32311
aI4
aa(lp824
I32389
aI0
aa(lp825
I32389
aI1
aa(lp826
I32389
aI2
aa(lp827
I32389
aI3
aa(lp828
I32389
aI4
aa(lp829
I32426
aI2
aa(lp830
I32431
aI1
aa(lp831
I32544
aI2
aa(lp832
I32568
aI2
aa(lp833
I32732
aI0
aa(lp834
I32747
aI0
aa(lp835
I32747
aI1
aa(lp836
I32747
aI2
aa(lp837
I32747
aI3
aa(lp838
I32771
aI2
aa(lp839
I33005
aI0
aa(lp840
I33005
aI3
aa(lp841
I33110
aI0
aa(lp842
I33110
aI1
aa(lp843
I33110
aI2
aa(lp844
I33110
aI3
aa(lp845
I33125
aI0
aa(lp846
I33125
aI2
aa(lp847
I33125
aI4
aa(lp848
I33324
aI1
aa(lp849
I33517
aI0
aa(lp850
I33614
aI4
aa(lp851
I33638
aI1
aa(lp852
I33712
aI1
aa(lp853
I33712
aI4
aa(lp854
I33735
aI1
aa(lp855
I33735
aI4
aa(lp856
I33972
aI0
aa(lp857
I33972
aI3
aa(lp858
I33972
aI4
aa(lp859
I33995
aI0
aa(lp860
I33995
aI2
aa(lp861
I33995
aI3
aa(lp862
I34150
aI0
aa(lp863
I34150
aI3
aa(lp864
I34258
aI0
aa(lp865
I34258
aI2
aa(lp866
I34625
aI0
aa(lp867
I34625
aI1
aa(lp868
I34625
aI2
aa(lp869
I34625
aI4
aa(lp870
I34631
aI0
aa(lp871
I34698
aI4
aa(lp872
I34736
aI2
aa(lp873
I34759
aI0
aa(lp874
I34759
aI2
aa(lp875
I34759
aI3
aa(lp876
I34852
aI0
aa(lp877
I34852
aI3
aa(lp878
I34886
aI1
aa(lp879
I34886
aI3
aa(lp880
I34922
aI0
aa(lp881
I34939
aI0
aa(lp882
I35001
aI2
aa(lp883
I35001
aI3
aa(lp884
I35001
aI4
aa(lp885
I35262
aI0
aa(lp886
I35305
aI0
aa(lp887
I35305
aI1
aa(lp888
I35305
aI4
aa(lp889
I35409
aI0
aa(lp890
I35417
aI3
aa(lp891
I35595
aI0
aa(lp892
I35624
aI0
aa(lp893
I35624
aI1
aa(lp894
I35624
aI3
aa(lp895
I35624
aI4
aa(lp896
I35676
aI1
aa(lp897
I35753
aI1
aa(lp898
I35753
aI4
aa(lp899
I35802
aI3
aa(lp900
I35873
aI1
aa(lp901
I35873
aI4
aa(lp902
I35979
aI0
aa(lp903
I35979
aI4
aa(lp904
I36038
aI0
aa(lp905
I36038
aI3
aa(lp906
I36038
aI4
aa(lp907
I36237
aI0
aa(lp908
I36337
aI1
aa(lp909
I36364
aI0
aa(lp910
I36369
aI1
aa(lp911
I36369
aI2
aa(lp912
I36369
aI4
aa(lp913
I36438
aI1
aa(lp914
I36438
aI2
aa(lp915
I36438
aI4
aa(lp916
I36487
aI0
aa(lp917
I36487
aI3
aa(lp918
I36487
aI4
aa(lp919
I36564
aI4
aa(lp920
I36568
aI1
aa(lp921
I36669
aI2
aa(lp922
I36679
aI4
aa(lp923
I36705
aI1
aa(lp924
I36706
aI0
aa(lp925
I36706
aI1
aa(lp926
I36761
aI0
aa(lp927
I36858
aI1
aa(lp928
I36858
aI2
aa(lp929
I36963
aI0
aa(lp930
I36963
aI2
aa(lp931
I36994
aI0
aa(lp932
I36994
aI1
aa(lp933
I36994
aI4
aa(lp934
I36999
aI0
aa(lp935
I36999
aI1
aa(lp936
I36999
aI4
aa(lp937
I37078
aI0
aa(lp938
I37104
aI3
aa(lp939
I37149
aI0
aa(lp940
I37149
aI3
aa(lp941
I37197
aI0
aa(lp942
I37197
aI2
aa(lp943
I37262
aI1
aa(lp944
I37262
aI2
aa(lp945
I37262
aI4
aa(lp946
I37267
aI2
aa(lp947
I37267
aI3
aa(lp948
I37267
aI4
aa(lp949
I37427
aI1
aa(lp950
I37427
aI4
aa(lp951
I37468
aI1
aa(lp952
I37468
aI2
aa(lp953
I37468
aI3
aa(lp954
I37468
aI4
aa(lp955
I37531
aI1
aa(lp956
I37531
aI3
aa(lp957
I37572
aI0
aa(lp958
I37572
aI3
aa(lp959
I37582
aI1
aa(lp960
I37584
aI0
aa(lp961
I37938
aI2
aa(lp962
I37938
aI3
aa(lp963
I38007
aI3
aa(lp964
I38009
aI0
aa(lp965
I38009
aI1
aa(lp966
I38009
aI3
aa(lp967
I38023
aI1
aa(lp968
I38023
aI2
aa(lp969
I38023
aI3
aa(lp970
I38032
aI2
aa(lp971
I38032
aI4
aa(lp972
I38065
aI0
aa(lp973
I38065
aI3
aa(lp974
I38080
aI0
aa(lp975
I38080
aI2
aa(lp976
I38154
aI0
aa(lp977
I38154
aI1
aa(lp978
I38154
aI4
aa(lp979
I38418
aI2
aa(lp980
I38418
aI3
aa(lp981
I38418
aI4
aa(lp982
I38429
aI0
aa(lp983
I38470
aI0
aa(lp984
I38470
aI2
aa(lp985
I38492
aI4
aa(lp986
I38536
aI0
aa(lp987
I38536
aI2
aa(lp988
I38567
aI0
aa(lp989
I38699
aI0
aa(lp990
I38795
aI0
aa(lp991
I38795
aI2
aa(lp992
I38812
aI0
aa(lp993
I38812
aI2
aa(lp994
I38812
aI3
aa(lp995
I38812
aI4
aa(lp996
I38830
aI4
aa(lp997
I38859
aI1
aa(lp998
I38861
aI2
aa(lp999
I38930
aI3
aa(lp1000
I38941
aI1
aa(lp1001
I38941
aI3
aa(lp1002
I38941
aI4
aa(lp1003
I39000
aI0
aa(lp1004
I39000
aI1
aa(lp1005
I39000
aI2
aa(lp1006
I39118
aI0
aa(lp1007
I39118
aI1
aa(lp1008
I39185
aI0
aa(lp1009
I39185
aI2
aa(lp1010
I39185
aI4
aa(lp1011
I39208
aI2
aa(lp1012
I39251
aI0
aa(lp1013
I39251
aI1
aa(lp1014
I39251
aI2
aa(lp1015
I39251
aI4
aa(lp1016
I39254
aI1
aa(lp1017
I39254
aI4
aa(lp1018
I39261
aI1
aa(lp1019
I39416
aI0
aa(lp1020
I39419
aI2
aa(lp1021
I39419
aI3
aa(lp1022
I39419
aI4
aa(lp1023
I39590
aI2
aa(lp1024
I39590
aI4
aa(lp1025
I39640
aI0
aa(lp1026
I39640
aI2
aa(lp1027
I39661
aI0
aa(lp1028
I39661
aI1
aa(lp1029
I39661
aI3
aa(lp1030
I39778
aI0
aa(lp1031
I39778
aI1
aa(lp1032
I39778
aI2
aa(lp1033
I39956
aI0
aa(lp1034
I39956
aI3
aa(lp1035
I40025
aI4
aa(lp1036
I40094
aI3
aa(lp1037
I40162
aI0
aa(lp1038
I40162
aI1
aa(lp1039
I40162
aI4
aa(lp1040
I40174
aI2
aa(lp1041
I40174
aI4
aa(lp1042
I40194
aI1
aa(lp1043
I40219
aI3
aa(lp1044
I40225
aI0
aa(lp1045
I40225
aI1
aa(lp1046
I40225
aI4
aa(lp1047
I40226
aI1
aa(lp1048
I40226
aI2
aa(lp1049
I40226
aI3
aa(lp1050
I40267
aI4
aa(lp1051
I40279
aI0
aa(lp1052
I40279
aI1
aa(lp1053
I40279
aI3
aa(lp1054
I40309
aI0
aa(lp1055
I40326
aI3
aa(lp1056
I40374
aI0
aa(lp1057
I40374
aI1
aa(lp1058
I40374
aI2
aa(lp1059
I40407
aI0
aa(lp1060
I40407
aI1
aa(lp1061
I40407
aI2
aa(lp1062
I40407
aI3
aa.