(lp0
(lp1
I63
aI2
aa(lp2
I169
aI4
aa(lp3
I230
aI2
aa(lp4
I230
aI3
aa(lp5
I271
aI3
aa(lp6
I271
aI4
aa(lp7
I279
aI2
aa(lp8
I333
aI1
aa(lp9
I333
aI4
aa(lp10
I443
aI3
aa(lp11
I464
aI1
aa(lp12
I533
aI0
aa(lp13
I533
aI2
aa(lp14
I533
aI3
aa(lp15
I540
aI0
aa(lp16
I562
aI1
aa(lp17
I562
aI3
aa(lp18
I608
aI2
aa(lp19
I737
aI2
aa(lp20
I786
aI1
aa(lp21
I786
aI3
aa(lp22
I808
aI3
aa(lp23
I812
aI0
aa(lp24
I812
aI2
aa(lp25
I947
aI1
aa(lp26
I974
aI0
aa(lp27
I1049
aI2
aa(lp28
I1049
aI3
aa(lp29
I1074
aI4
aa(lp30
I1219
aI0
aa(lp31
I1255
aI0
aa(lp32
I1291
aI4
aa(lp33
I1321
aI1
aa(lp34
I1330
aI1
aa(lp35
I1330
aI2
aa(lp36
I1330
aI4
aa(lp37
I1397
aI2
aa(lp38
I1397
aI3
aa(lp39
I1397
aI4
aa(lp40
I1441
aI2
aa(lp41
I1530
aI4
aa(lp42
I1602
aI1
aa(lp43
I1618
aI0
aa(lp44
I1618
aI3
aa(lp45
I1618
aI4
aa(lp46
I1676
aI4
aa(lp47
I1689
aI1
aa(lp48
I1699
aI4
aa(lp49
I1744
aI2
aa(lp50
I1768
aI0
aa(lp51
I1768
aI1
aa(lp52
I1768
aI3
aa(lp53
I1802
aI3
aa(lp54
I1909
aI0
aa(lp55
I1909
aI3
aa(lp56
I1998
aI2
aa(lp57
I1998
aI4
aa(lp58
I2102
aI3
aa(lp59
I2108
aI0
aa(lp60
I2108
aI2
aa(lp61
I2108
aI3
aa(lp62
I2108
aI4
aa(lp63
I2158
aI0
aa(lp64
I2249
aI1
aa(lp65
I2249
aI3
aa(lp66
I2313
aI4
aa(lp67
I2333
aI2
aa(lp68
I2333
aI3
aa(lp69
I2333
aI4
aa(lp70
I2389
aI0
aa(lp71
I2427
aI1
aa(lp72
I2427
aI4
aa(lp73
I2558
aI1
aa(lp74
I2630
aI4
aa(lp75
I2641
aI2
aa(lp76
I2641
aI3
aa(lp77
I2687
aI3
aa(lp78
I3162
aI3
aa(lp79
I3162
aI4
aa(lp80
I3205
aI0
aa(lp81
I3262
aI0
aa(lp82
I3278
aI1
aa(lp83
I3278
aI2
aa(lp84
I3278
aI3
aa(lp85
I3278
aI4
aa(lp86
I3287
aI3
aa(lp87
I3287
aI4
aa(lp88
I3302
aI3
aa(lp89
I3302
aI4
aa(lp90
I3353
aI4
aa(lp91
I3412
aI1
aa(lp92
I3412
aI2
aa(lp93
I3412
aI4
aa(lp94
I3423
aI0
aa(lp95
I3484
aI2
aa(lp96
I3484
aI3
aa(lp97
I3521
aI4
aa(lp98
I3571
aI0
aa(lp99
I3815
aI1
aa(lp100
I3851
aI0
aa(lp101
I3860
aI1
aa(lp102
I3860
aI3
aa(lp103
I3892
aI0
aa(lp104
I3892
aI1
aa(lp105
I3939
aI2
aa(lp106
I4095
aI1
aa(lp107
I4111
aI0
aa(lp108
I4111
aI3
aa(lp109
I4222
aI2
aa(lp110
I4229
aI0
aa(lp111
I4247
aI2
aa(lp112
I4259
aI3
aa(lp113
I4296
aI3
aa(lp114
I4446
aI3
aa(lp115
I4446
aI4
aa(lp116
I4447
aI2
aa(lp117
I4542
aI2
aa(lp118
I4693
aI4
aa(lp119
I4738
aI0
aa(lp120
I4822
aI0
aa(lp121
I4822
aI1
aa(lp122
I4822
aI2
aa(lp123
I4822
aI3
aa(lp124
I4822
aI4
aa(lp125
I4871
aI2
aa(lp126
I4886
aI1
aa(lp127
I4943
aI0
aa(lp128
I4943
aI1
aa(lp129
I4943
aI2
aa(lp130
I4969
aI0
aa(lp131
I4969
aI1
aa(lp132
I4969
aI2
aa(lp133
I4969
aI3
aa(lp134
I5055
aI1
aa(lp135
I5055
aI2
aa(lp136
I5058
aI0
aa(lp137
I5091
aI4
aa(lp138
I5182
aI4
aa(lp139
I5217
aI0
aa(lp140
I5217
aI4
aa(lp141
I5220
aI1
aa(lp142
I5254
aI0
aa(lp143
I5296
aI0
aa(lp144
I5296
aI2
aa(lp145
I5296
aI4
aa(lp146
I5410
aI3
aa(lp147
I5662
aI3
aa(lp148
I5692
aI4
aa(lp149
I5706
aI3
aa(lp150
I5721
aI2
aa(lp151
I5757
aI3
aa(lp152
I5757
aI4
aa(lp153
I5826
aI1
aa(lp154
I5836
aI4
aa(lp155
I5856
aI3
aa(lp156
I5878
aI0
aa(lp157
I5928
aI1
aa(lp158
I5928
aI3
aa(lp159
I5982
aI0
aa(lp160
I5999
aI1
aa(lp161
I6018
aI2
aa(lp162
I6031
aI0
aa(lp163
I6061
aI3
aa(lp164
I6145
aI0
aa(lp165
I6145
aI3
aa(lp166
I6211
aI1
aa(lp167
I6261
aI1
aa(lp168
I6423
aI1
aa(lp169
I6433
aI2
aa(lp170
I6470
aI3
aa(lp171
I6470
aI4
aa(lp172
I6496
aI3
aa(lp173
I6510
aI0
aa(lp174
I6512
aI1
aa(lp175
I6512
aI3
aa(lp176
I6522
aI1
aa(lp177
I6522
aI2
aa(lp178
I6522
aI3
aa(lp179
I6522
aI4
aa(lp180
I6719
aI1
aa(lp181
I6719
aI5
aa(lp182
I6720
aI1
aa(lp183
I6735
aI1
aa(lp184
I6839
aI0
aa(lp185
I6978
aI0
aa(lp186
I6978
aI1
aa(lp187
I6978
aI2
aa(lp188
I7008
aI1
aa(lp189
I7008
aI3
aa(lp190
I7009
aI2
aa(lp191
I7035
aI0
aa(lp192
I7035
aI1
aa(lp193
I7073
aI3
aa(lp194
I7079
aI2
aa(lp195
I7079
aI4
aa(lp196
I7106
aI2
aa(lp197
I7106
aI3
aa(lp198
I7113
aI2
aa(lp199
I7124
aI4
aa(lp200
I7180
aI0
aa(lp201
I7180
aI1
aa(lp202
I7180
aI2
aa(lp203
I7180
aI4
aa(lp204
I7359
aI0
aa(lp205
I7366
aI1
aa(lp206
I7377
aI2
aa(lp207
I7428
aI4
aa(lp208
I7461
aI1
aa(lp209
I7500
aI2
aa(lp210
I7500
aI4
aa(lp211
I7596
aI0
aa(lp212
I7596
aI1
aa(lp213
I7596
aI3
aa(lp214
I7659
aI1
aa(lp215
I7764
aI1
aa(lp216
I7764
aI3
aa(lp217
I7774
aI2
aa(lp218
I7890
aI0
aa(lp219
I7890
aI1
aa(lp220
I7890
aI3
aa(lp221
I7909
aI2
aa(lp222
I7977
aI2
aa(lp223
I8157
aI0
aa(lp224
I8235
aI0
aa(lp225
I8235
aI2
aa(lp226
I8401
aI4
aa(lp227
I8422
aI0
aa(lp228
I8455
aI0
aa(lp229
I8455
aI3
aa(lp230
I8644
aI0
aa(lp231
I8653
aI1
aa(lp232
I8653
aI2
aa(lp233
I8653
aI3
aa(lp234
I8671
aI4
aa(lp235
I8698
aI1
aa(lp236
I8698
aI2
aa(lp237
I8698
aI3
aa(lp238
I8819
aI1
aa(lp239
I8880
aI0
aa(lp240
I8880
aI3
aa(lp241
I8880
aI4
aa(lp242
I8923
aI1
aa(lp243
I8968
aI0
aa(lp244
I8990
aI2
aa(lp245
I8990
aI4
aa(lp246
I9004
aI1
aa(lp247
I9008
aI0
aa(lp248
I9008
aI1
aa(lp249
I9008
aI2
aa(lp250
I9008
aI4
aa(lp251
I9031
aI1
aa(lp252
I9031
aI2
aa(lp253
I9031
aI4
aa(lp254
I9042
aI3
aa(lp255
I9066
aI4
aa(lp256
I9129
aI2
aa(lp257
I9129
aI3
aa(lp258
I9341
aI4
aa(lp259
I9349
aI3
aa(lp260
I9397
aI0
aa(lp261
I9397
aI4
aa(lp262
I9451
aI0
aa(lp263
I9451
aI2
aa(lp264
I9490
aI0
aa(lp265
I9490
aI1
aa(lp266
I9686
aI1
aa(lp267
I9686
aI4
aa(lp268
I9692
aI2
aa(lp269
I9692
aI3
aa(lp270
I9692
aI4
aa(lp271
I9701
aI0
aa(lp272
I9755
aI4
aa(lp273
I9796
aI1
aa(lp274
I9842
aI0
aa(lp275
I9842
aI1
aa(lp276
I9938
aI1
aa(lp277
I9997
aI0
aa(lp278
I9997
aI3
aa(lp279
I10092
aI2
aa(lp280
I10126
aI2
aa(lp281
I10215
aI3
aa(lp282
I10287
aI2
aa(lp283
I10492
aI2
aa(lp284
I10550
aI2
aa(lp285
I10550
aI3
aa(lp286
I10587
aI0
aa(lp287
I10693
aI0
aa(lp288
I10693
aI1
aa(lp289
I10693
aI4
aa(lp290
I10781
aI0
aa(lp291
I10781
aI1
aa(lp292
I10781
aI2
aa(lp293
I10782
aI0
aa(lp294
I10782
aI1
aa(lp295
I10899
aI3
aa(lp296
I10907
aI0
aa(lp297
I10960
aI1
aa(lp298
I10960
aI2
aa(lp299
I11006
aI0
aa(lp300
I11006
aI2
aa(lp301
I11006
aI3
aa(lp302
I11042
aI1
aa(lp303
I11042
aI3
aa(lp304
I11045
aI1
aa(lp305
I11045
aI3
aa(lp306
I11091
aI3
aa(lp307
I11213
aI3
aa(lp308
I11279
aI0
aa(lp309
I11349
aI1
aa(lp310
I11349
aI4
aa(lp311
I11354
aI3
aa(lp312
I11354
aI4
aa(lp313
I11385
aI4
aa(lp314
I11447
aI1
aa(lp315
I11476
aI1
aa(lp316
I11476
aI2
aa(lp317
I11476
aI4
aa(lp318
I11488
aI4
aa(lp319
I11499
aI0
aa(lp320
I11499
aI3
aa(lp321
I11599
aI1
aa(lp322
I11645
aI0
aa(lp323
I11645
aI3
aa(lp324
I11651
aI2
aa(lp325
I11820
aI2
aa(lp326
I12030
aI3
aa(lp327
I12058
aI4
aa(lp328
I12112
aI3
aa(lp329
I12112
aI4
aa(lp330
I12160
aI2
aa(lp331
I12219
aI4
aa(lp332
I12310
aI0
aa(lp333
I12310
aI2
aa(lp334
I12364
aI4
aa(lp335
I12613
aI1
aa(lp336
I12613
aI3
aa(lp337
I12632
aI2
aa(lp338
I12705
aI1
aa(lp339
I12718
aI3
aa(lp340
I12947
aI4
aa(lp341
I13028
aI1
aa(lp342
I13028
aI3
aa(lp343
I13069
aI1
aa(lp344
I13074
aI4
aa(lp345
I13107
aI4
aa(lp346
I13206
aI3
aa(lp347
I13236
aI3
aa(lp348
I13267
aI2
aa(lp349
I13267
aI4
aa(lp350
I13324
aI1
aa(lp351
I13336
aI3
aa(lp352
I13467
aI2
aa(lp353
I13592
aI0
aa(lp354
I13592
aI1
aa(lp355
I13616
aI0
aa(lp356
I13634
aI2
aa(lp357
I13753
aI3
aa(lp358
I14011
aI2
aa(lp359
I14011
aI3
aa(lp360
I14013
aI3
aa(lp361
I14041
aI1
aa(lp362
I14041
aI2
aa(lp363
I14093
aI2
aa(lp364
I14186
aI0
aa(lp365
I14186
aI1
aa(lp366
I14269
aI2
aa(lp367
I14293
aI1
aa(lp368
I14293
aI2
aa(lp369
I14293
aI3
aa(lp370
I14293
aI4
aa(lp371
I14394
aI0
aa(lp372
I14431
aI0
aa(lp373
I14431
aI2
aa(lp374
I14482
aI1
aa(lp375
I14500
aI2
aa(lp376
I14561
aI3
aa(lp377
I14590
aI1
aa(lp378
I14590
aI2
aa(lp379
I14590
aI3
aa(lp380
I14590
aI4
aa(lp381
I14709
aI0
aa(lp382
I14709
aI1
aa(lp383
I14709
aI3
aa(lp384
I14737
aI4
aa(lp385
I14749
aI2
aa(lp386
I14749
aI4
aa(lp387
I14780
aI4
aa(lp388
I14781
aI3
aa(lp389
I14781
aI4
aa(lp390
I14814
aI1
aa(lp391
I14814
aI2
aa(lp392
I14835
aI3
aa(lp393
I14871
aI0
aa(lp394
I14871
aI1
aa(lp395
I14871
aI3
aa(lp396
I14871
aI4
aa(lp397
I14928
aI4
aa(lp398
I14999
aI0
aa(lp399
I14999
aI4
aa(lp400
I15118
aI1
aa(lp401
I15164
aI4
aa(lp402
I15191
aI1
aa(lp403
I15209
aI4
aa(lp404
I15348
aI0
aa(lp405
I15348
aI4
aa(lp406
I15429
aI3
aa(lp407
I15509
aI2
aa(lp408
I15526
aI4
aa(lp409
I15538
aI2
aa(lp410
I15557
aI1
aa(lp411
I15557
aI2
aa(lp412
I15645
aI2
aa(lp413
I15664
aI4
aa(lp414
I15707
aI1
aa(lp415
I15888
aI0
aa(lp416
I15974
aI2
aa(lp417
I15974
aI4
aa(lp418
I15989
aI1
aa(lp419
I15989
aI2
aa(lp420
I15993
aI1
aa(lp421
I16069
aI4
aa(lp422
I16251
aI4
aa(lp423
I16258
aI4
aa(lp424
I16289
aI1
aa(lp425
I16289
aI3
aa(lp426
I16311
aI1
aa(lp427
I16311
aI3
aa(lp428
I16484
aI0
aa(lp429
I16583
aI0
aa(lp430
I16611
aI1
aa(lp431
I16672
aI3
aa(lp432
I16732
aI3
aa(lp433
I16772
aI2
aa(lp434
I16876
aI4
aa(lp435
I16933
aI3
aa(lp436
I16975
aI0
aa(lp437
I16975
aI4
aa(lp438
I17023
aI2
aa(lp439
I17023
aI4
aa(lp440
I17157
aI0
aa(lp441
I17157
aI2
aa(lp442
I17225
aI4
aa(lp443
I17253
aI0
aa(lp444
I17253
aI1
aa(lp445
I17260
aI2
aa(lp446
I17350
aI1
aa(lp447
I17350
aI4
aa(lp448
I17379
aI2
aa(lp449
I17379
aI3
aa(lp450
I17523
aI2
aa(lp451
I17523
aI3
aa(lp452
I17536
aI3
aa(lp453
I17585
aI3
aa(lp454
I17624
aI3
aa(lp455
I17624
aI4
aa(lp456
I17709
aI3
aa(lp457
I17738
aI1
aa(lp458
I17745
aI1
aa(lp459
I17745
aI4
aa(lp460
I17752
aI0
aa(lp461
I17787
aI3
aa(lp462
I17832
aI0
aa(lp463
I17832
aI3
aa(lp464
I17849
aI3
aa(lp465
I17863
aI2
aa(lp466
I17898
aI0
aa(lp467
I17898
aI4
aa(lp468
I17942
aI4
aa(lp469
I17960
aI4
aa(lp470
I18054
aI1
aa(lp471
I18068
aI1
aa(lp472
I18068
aI2
aa(lp473
I18108
aI0
aa(lp474
I18114
aI3
aa(lp475
I18305
aI4
aa(lp476
I18431
aI3
aa(lp477
I18537
aI0
aa(lp478
I18538
aI1
aa(lp479
I18542
aI2
aa(lp480
I18568
aI2
aa(lp481
I18568
aI4
aa(lp482
I18570
aI3
aa(lp483
I18793
aI3
aa(lp484
I18793
aI4
aa(lp485
I18907
aI3
aa(lp486
I18982
aI4
aa(lp487
I19025
aI2
aa(lp488
I19070
aI0
aa(lp489
I19070
aI4
aa(lp490
I19163
aI2
aa(lp491
I19279
aI2
aa(lp492
I19299
aI2
aa(lp493
I19362
aI4
aa(lp494
I19372
aI2
aa(lp495
I19405
aI0
aa(lp496
I19418
aI1
aa(lp497
I19590
aI2
aa(lp498
I19636
aI2
aa(lp499
I19636
aI4
aa(lp500
I19639
aI0
aa(lp501
I19639
aI1
aa(lp502
I19639
aI3
aa(lp503
I19639
aI4
aa(lp504
I19711
aI3
aa(lp505
I19711
aI4
aa(lp506
I19835
aI2
aa(lp507
I19835
aI4
aa(lp508
I19870
aI3
aa(lp509
I19996
aI0
aa(lp510
I19997
aI2
aa(lp511
I19997
aI4
aa(lp512
I20069
aI0
aa(lp513
I20069
aI4
aa(lp514
I20142
aI1
aa(lp515
I20142
aI2
aa(lp516
I20297
aI1
aa(lp517
I20297
aI2
aa(lp518
I20626
aI1
aa(lp519
I20626
aI2
aa(lp520
I20626
aI4
aa(lp521
I20721
aI0
aa(lp522
I20770
aI2
aa(lp523
I20779
aI2
aa(lp524
I20794
aI0
aa(lp525
I20871
aI4
aa(lp526
I21032
aI2
aa(lp527
I21057
aI4
aa(lp528
I21074
aI0
aa(lp529
I21074
aI1
aa(lp530
I21074
aI4
aa(lp531
I21125
aI2
aa(lp532
I21154
aI3
aa(lp533
I21226
aI4
aa(lp534
I21250
aI4
aa(lp535
I21261
aI1
aa(lp536
I21261
aI2
aa(lp537
I21261
aI3
aa(lp538
I21261
aI4
aa(lp539
I21266
aI2
aa(lp540
I21368
aI1
aa(lp541
I21383
aI1
aa(lp542
I21383
aI3
aa(lp543
I21383
aI4
aa(lp544
I21472
aI1
aa(lp545
I21734
aI1
aa(lp546
I21818
aI0
aa(lp547
I21828
aI4
aa(lp548
I21930
aI1
aa(lp549
I21930
aI4
aa(lp550
I21934
aI0
aa(lp551
I21983
aI4
aa(lp552
I22032
aI1
aa(lp553
I22032
aI2
aa(lp554
I22032
aI3
aa(lp555
I22032
aI4
aa(lp556
I22052
aI4
aa(lp557
I22074
aI4
aa(lp558
I22121
aI1
aa(lp559
I22121
aI2
aa(lp560
I22121
aI3
aa(lp561
I22145
aI3
aa(lp562
I22233
aI2
aa(lp563
I22325
aI1
aa(lp564
I22325
aI4
aa(lp565
I22413
aI2
aa(lp566
I22413
aI3
aa(lp567
I22416
aI4
aa(lp568
I22539
aI0
aa(lp569
I22574
aI0
aa(lp570
I22621
aI2
aa(lp571
I22621
aI4
aa(lp572
I22775
aI2
aa(lp573
I22865
aI1
aa(lp574
I22948
aI1
aa(lp575
I22966
aI3
aa(lp576
I23071
aI3
aa(lp577
I23074
aI1
aa(lp578
I23134
aI4
aa(lp579
I23206
aI0
aa(lp580
I23206
aI1
aa(lp581
I23325
aI0
aa(lp582
I23412
aI1
aa(lp583
I23412
aI2
aa(lp584
I23412
aI3
aa(lp585
I23412
aI4
aa(lp586
I23472
aI3
aa(lp587
I23472
aI4
aa(lp588
I23552
aI1
aa(lp589
I23598
aI1
aa(lp590
I23598
aI4
aa(lp591
I23630
aI0
aa(lp592
I23630
aI4
aa(lp593
I23639
aI2
aa(lp594
I23639
aI3
aa(lp595
I23639
aI4
aa(lp596
I23710
aI2
aa(lp597
I23752
aI2
aa(lp598
I23810
aI4
aa(lp599
I23818
aI0
aa(lp600
I23849
aI4
aa(lp601
I23870
aI2
aa(lp602
I23870
aI4
aa(lp603
I24066
aI1
aa(lp604
I24066
aI4
aa(lp605
I24144
aI4
aa(lp606
I24149
aI1
aa(lp607
I24201
aI1
aa(lp608
I24201
aI3
aa(lp609
I24253
aI0
aa(lp610
I24253
aI2
aa(lp611
I24253
aI3
aa(lp612
I24396
aI4
aa(lp613
I24424
aI4
aa(lp614
I24692
aI2
aa(lp615
I24742
aI1
aa(lp616
I24742
aI4
aa(lp617
I24792
aI3
aa(lp618
I24969
aI2
aa(lp619
I25086
aI3
aa(lp620
I25138
aI4
aa(lp621
I25360
aI4
aa(lp622
I25415
aI1
aa(lp623
I25415
aI2
aa(lp624
I25517
aI3
aa(lp625
I25611
aI1
aa(lp626
I25618
aI1
aa(lp627
I25618
aI2
aa(lp628
I25733
aI1
aa(lp629
I25733
aI3
aa(lp630
I25871
aI1
aa(lp631
I25915
aI0
aa(lp632
I25928
aI1
aa(lp633
I25956
aI2
aa(lp634
I25964
aI1
aa(lp635
I26197
aI4
aa(lp636
I26256
aI4
aa(lp637
I26260
aI4
aa(lp638
I26346
aI1
aa(lp639
I26382
aI2
aa(lp640
I26449
aI0
aa(lp641
I26457
aI2
aa(lp642
I26554
aI3
aa(lp643
I26579
aI0
aa(lp644
I26579
aI3
aa(lp645
I26579
aI4
aa(lp646
I26627
aI0
aa(lp647
I26736
aI0
aa(lp648
I26745
aI3
aa(lp649
I26841
aI2
aa(lp650
I26974
aI1
aa(lp651
I26974
aI3
aa(lp652
I26974
aI4
aa(lp653
I27015
aI3
aa(lp654
I27069
aI2
aa(lp655
I27152
aI3
aa(lp656
I27229
aI1
aa(lp657
I27259
aI3
aa(lp658
I27264
aI1
aa(lp659
I27264
aI4
aa(lp660
I27408
aI0
aa(lp661
I27408
aI3
aa(lp662
I27408
aI4
aa(lp663
I27411
aI3
aa(lp664
I27411
aI4
aa(lp665
I27470
aI0
aa(lp666
I27495
aI1
aa(lp667
I27551
aI4
aa(lp668
I27582
aI0
aa(lp669
I27582
aI1
aa(lp670
I27715
aI2
aa(lp671
I27715
aI3
aa(lp672
I27834
aI0
aa(lp673
I27860
aI1
aa(lp674
I27916
aI1
aa(lp675
I27916
aI2
aa(lp676
I27916
aI3
aa(lp677
I28010
aI2
aa(lp678
I28010
aI3
aa(lp679
I28010
aI4
aa(lp680
I28106
aI0
aa(lp681
I28128
aI2
aa(lp682
I28165
aI0
aa(lp683
I28165
aI2
aa(lp684
I28165
aI3
aa(lp685
I28276
aI2
aa(lp686
I28294
aI2
aa(lp687
I28396
aI3
aa(lp688
I28413
aI0
aa(lp689
I28485
aI0
aa(lp690
I28485
aI1
aa(lp691
I28645
aI3
aa(lp692
I28645
aI4
aa(lp693
I28670
aI1
aa(lp694
I28758
aI0
aa(lp695
I28779
aI0
aa(lp696
I28779
aI1
aa(lp697
I28779
aI2
aa(lp698
I28779
aI3
aa(lp699
I28945
aI3
aa(lp700
I29003
aI2
aa(lp701
I29011
aI2
aa(lp702
I29017
aI2
aa(lp703
I29110
aI1
aa(lp704
I29110
aI2
aa(lp705
I29139
aI3
aa(lp706
I29139
aI4
aa(lp707
I29154
aI4
aa(lp708
I29185
aI1
aa(lp709
I29185
aI2
aa(lp710
I29259
aI4
aa(lp711
I29267
aI0
aa(lp712
I29267
aI2
aa(lp713
I29428
aI4
aa(lp714
I29434
aI0
aa(lp715
I29472
aI4
aa(lp716
I29530
aI2
aa(lp717
I29553
aI4
aa(lp718
I29633
aI0
aa(lp719
I29633
aI2
aa(lp720
I29633
aI3
aa(lp721
I29680
aI4
aa(lp722
I29768
aI2
aa(lp723
I29825
aI0
aa(lp724
I29896
aI1
aa(lp725
I29896
aI2
aa(lp726
I30019
aI1
aa(lp727
I30030
aI4
aa(lp728
I30106
aI2
aa(lp729
I30106
aI3
aa(lp730
I30192
aI0
aa(lp731
I30237
aI2
aa(lp732
I30244
aI4
aa(lp733
I30397
aI3
aa(lp734
I30397
aI4
aa(lp735
I30408
aI3
aa(lp736
I30408
aI4
aa(lp737
I30417
aI1
aa(lp738
I30417
aI3
aa(lp739
I30462
aI0
aa(lp740
I30462
aI1
aa(lp741
I30581
aI0
aa(lp742
I30581
aI4
aa(lp743
I30613
aI1
aa(lp744
I30613
aI2
aa(lp745
I30666
aI0
aa(lp746
I30693
aI2
aa(lp747
I30760
aI1
aa(lp748
I30760
aI2
aa(lp749
I30760
aI3
aa(lp750
I30760
aI4
aa(lp751
I30857
aI0
aa(lp752
I30857
aI1
aa(lp753
I30857
aI2
aa(lp754
I30857
aI4
aa(lp755
I30858
aI3
aa(lp756
I30923
aI1
aa(lp757
I30923
aI2
aa(lp758
I30923
aI4
aa(lp759
I31014
aI1
aa(lp760
I31038
aI2
aa(lp761
I31038
aI4
aa(lp762
I31048
aI4
aa(lp763
I31090
aI1
aa(lp764
I31103
aI3
aa(lp765
I31313
aI4
aa(lp766
I31315
aI1
aa(lp767
I31315
aI3
aa(lp768
I31343
aI3
aa(lp769
I31437
aI2
aa(lp770
I31437
aI4
aa(lp771
I31467
aI2
aa(lp772
I31467
aI3
aa(lp773
I31467
aI4
aa(lp774
I31572
aI2
aa(lp775
I31572
aI3
aa(lp776
I31594
aI2
aa(lp777
I31594
aI4
aa(lp778
I31826
aI0
aa(lp779
I31827
aI0
aa(lp780
I31827
aI4
aa(lp781
I31839
aI1
aa(lp782
I31839
aI2
aa(lp783
I31961
aI3
aa(lp784
I31961
aI4
aa(lp785
I31999
aI0
aa(lp786
I32000
aI0
aa(lp787
I32000
aI2
aa(lp788
I32000
aI3
aa(lp789
I32207
aI4
aa(lp790
I32217
aI0
aa(lp791
I32275
aI2
aa(lp792
I32275
aI3
aa(lp793
I32275
aI4
aa(lp794
I32362
aI3
aa(lp795
I32362
aI4
aa(lp796
I32617
aI0
aa(lp797
I32617
aI3
aa(lp798
I32628
aI0
aa(lp799
I32662
aI4
aa(lp800
I32686
aI3
aa(lp801
I32722
aI1
aa(lp802
I32722
aI2
aa(lp803
I32768
aI4
aa(lp804
I32803
aI2
aa(lp805
I32828
aI0
aa(lp806
I33079
aI1
aa(lp807
I33241
aI1
aa(lp808
I33241
aI3
aa(lp809
I33296
aI3
aa(lp810
I33335
aI0
aa(lp811
I33335
aI2
aa(lp812
I33349
aI2
aa(lp813
I33349
aI4
aa(lp814
I33356
aI1
aa(lp815
I33523
aI3
aa(lp816
I33528
aI1
aa(lp817
I33545
aI3
aa(lp818
I33551
aI1
aa(lp819
I33716
aI0
aa(lp820
I33716
aI2
aa(lp821
I33745
aI2
aa(lp822
I33812
aI0
aa(lp823
I33817
aI4
aa(lp824
I33838
aI2
aa(lp825
I33868
aI2
aa(lp826
I33928
aI3
aa(lp827
I34008
aI1
aa(lp828
I34105
aI1
aa(lp829
I34152
aI1
aa(lp830
I34152
aI4
aa(lp831
I34194
aI1
aa(lp832
I34194
aI4
aa(lp833
I34244
aI4
aa(lp834
I34463
aI0
aa(lp835
I34463
aI2
aa(lp836
I34574
aI1
aa(lp837
I34628
aI1
aa(lp838
I34670
aI1
aa(lp839
I34708
aI3
aa(lp840
I34728
aI2
aa(lp841
I34871
aI2
aa(lp842
I34871
aI3
aa(lp843
I34871
aI4
aa(lp844
I34907
aI0
aa(lp845
I34930
aI2
aa(lp846
I34930
aI4
aa(lp847
I34932
aI4
aa(lp848
I34971
aI2
aa(lp849
I35008
aI2
aa(lp850
I35008
aI4
aa(lp851
I35037
aI0
aa(lp852
I35098
aI2
aa(lp853
I35098
aI3
aa(lp854
I35098
aI4
aa(lp855
I35131
aI4
aa(lp856
I35154
aI3
aa(lp857
I35189
aI1
aa(lp858
I35189
aI3
aa(lp859
I35263
aI0
aa(lp860
I35263
aI1
aa(lp861
I35263
aI4
aa(lp862
I35320
aI2
aa(lp863
I35320
aI4
aa(lp864
I35352
aI1
aa(lp865
I35371
aI0
aa(lp866
I35371
aI4
aa(lp867
I35384
aI0
aa(lp868
I35544
aI0
aa(lp869
I35544
aI2
aa(lp870
I35551
aI0
aa(lp871
I35568
aI0
aa(lp872
I35601
aI0
aa(lp873
I35691
aI1
aa(lp874
I35691
aI3
aa(lp875
I35721
aI2
aa(lp876
I35721
aI3
aa(lp877
I35749
aI0
aa(lp878
I35749
aI4
aa(lp879
I35816
aI0
aa(lp880
I35816
aI3
aa(lp881
I36151
aI1
aa(lp882
I36174
aI2
aa(lp883
I36347
aI1
aa(lp884
I36347
aI3
aa(lp885
I36456
aI3
aa(lp886
I36456
aI4
aa(lp887
I36462
aI0
aa(lp888
I36537
aI0
aa(lp889
I36689
aI2
aa(lp890
I36689
aI3
aa(lp891
I36731
aI3
aa(lp892
I36731
aI4
aa(lp893
I36784
aI1
aa(lp894
I36795
aI3
aa(lp895
I36796
aI0
aa(lp896
I36797
aI1
aa(lp897
I37026
aI1
aa(lp898
I37026
aI4
aa(lp899
I37047
aI4
aa(lp900
I37187
aI2
aa(lp901
I37187
aI4
aa(lp902
I37306
aI1
aa(lp903
I37316
aI0
aa(lp904
I37316
aI1
aa(lp905
I37383
aI4
aa(lp906
I37431
aI2
aa(lp907
I37431
aI3
aa(lp908
I37447
aI3
aa(lp909
I37506
aI0
aa(lp910
I37506
aI1
aa(lp911
I37534
aI1
aa(lp912
I37570
aI2
aa(lp913
I37595
aI1
aa(lp914
I37622
aI0
aa(lp915
I37624
aI3
aa(lp916
I37668
aI2
aa(lp917
I37736
aI1
aa(lp918
I37790
aI1
aa(lp919
I37797
aI0
aa(lp920
I37905
aI4
aa(lp921
I37909
aI2
aa(lp922
I37929
aI3
aa(lp923
I38012
aI1
aa(lp924
I38012
aI3
aa(lp925
I38013
aI1
aa(lp926
I38013
aI4
aa(lp927
I38288
aI3
aa(lp928
I38311
aI1
aa(lp929
I38311
aI3
aa(lp930
I38328
aI1
aa(lp931
I38328
aI4
aa(lp932
I38360
aI0
aa(lp933
I38360
aI2
aa(lp934
I38360
aI3
aa(lp935
I38386
aI3
aa(lp936
I38485
aI3
aa(lp937
I38704
aI4
aa(lp938
I38777
aI2
aa(lp939
I38848
aI4
aa(lp940
I38867
aI0
aa(lp941
I38867
aI2
aa(lp942
I38867
aI3
aa(lp943
I38875
aI4
aa(lp944
I38907
aI3
aa(lp945
I38925
aI2
aa(lp946
I38983
aI2
aa(lp947
I39016
aI0
aa(lp948
I39016
aI1
aa(lp949
I39039
aI0
aa(lp950
I39039
aI1
aa(lp951
I39308
aI1
aa(lp952
I39327
aI4
aa(lp953
I39407
aI4
aa(lp954
I39426
aI1
aa(lp955
I39426
aI3
aa(lp956
I39426
aI4
aa(lp957
I39449
aI4
aa(lp958
I39516
aI0
aa(lp959
I39601
aI1
aa(lp960
I39601
aI2
aa(lp961
I39626
aI2
aa(lp962
I39671
aI0
aa(lp963
I39671
aI4
aa(lp964
I39696
aI0
aa(lp965
I39696
aI2
aa(lp966
I39705
aI0
aa(lp967
I39705
aI2
aa(lp968
I39767
aI1
aa(lp969
I39783
aI1
aa(lp970
I39783
aI4
aa(lp971
I39810
aI4
aa(lp972
I39816
aI1
aa(lp973
I39816
aI3
aa(lp974
I39828
aI2
aa(lp975
I39860
aI3
aa(lp976
I39876
aI1
aa(lp977
I39876
aI3
aa(lp978
I39922
aI1
aa(lp979
I39922
aI3
aa(lp980
I40017
aI2
aa(lp981
I40017
aI4
aa(lp982
I40105
aI1
aa(lp983
I40105
aI2
aa(lp984
I40105
aI4
aa(lp985
I40122
aI0
aa(lp986
I40122
aI1
aa(lp987
I40122
aI4
aa(lp988
I40151
aI2
aa(lp989
I40176
aI2
aa(lp990
I40201
aI4
aa(lp991
I40244
aI0
aa(lp992
I40244
aI3
aa(lp993
I40300
aI3
aa.