(lp0
(lp1
I17
aI3
aa(lp2
I17
aI4
aa(lp3
I26
aI0
aa(lp4
I26
aI1
aa(lp5
I26
aI2
aa(lp6
I26
aI3
aa(lp7
I172
aI2
aa(lp8
I172
aI3
aa(lp9
I172
aI4
aa(lp10
I181
aI0
aa(lp11
I181
aI1
aa(lp12
I181
aI2
aa(lp13
I181
aI4
aa(lp14
I216
aI0
aa(lp15
I216
aI3
aa(lp16
I225
aI0
aa(lp17
I225
aI3
aa(lp18
I225
aI4
aa(lp19
I293
aI3
aa(lp20
I293
aI4
aa(lp21
I631
aI2
aa(lp22
I676
aI0
aa(lp23
I676
aI4
aa(lp24
I719
aI0
aa(lp25
I719
aI1
aa(lp26
I719
aI4
aa(lp27
I740
aI0
aa(lp28
I740
aI3
aa(lp29
I740
aI4
aa(lp30
I834
aI0
aa(lp31
I834
aI1
aa(lp32
I834
aI2
aa(lp33
I834
aI3
aa(lp34
I834
aI4
aa(lp35
I860
aI0
aa(lp36
I860
aI1
aa(lp37
I860
aI3
aa(lp38
I868
aI2
aa(lp39
I916
aI0
aa(lp40
I916
aI1
aa(lp41
I1006
aI4
aa(lp42
I1103
aI2
aa(lp43
I1140
aI1
aa(lp44
I1140
aI3
aa(lp45
I1184
aI2
aa(lp46
I1185
aI4
aa(lp47
I1453
aI0
aa(lp48
I1453
aI1
aa(lp49
I1453
aI3
aa(lp50
I1453
aI4
aa(lp51
I1583
aI0
aa(lp52
I1583
aI2
aa(lp53
I1583
aI3
aa(lp54
I1619
aI1
aa(lp55
I1619
aI4
aa(lp56
I1737
aI0
aa(lp57
I1737
aI3
aa(lp58
I2029
aI1
aa(lp59
I2029
aI3
aa(lp60
I2039
aI4
aa(lp61
I2198
aI3
aa(lp62
I2198
aI4
aa(lp63
I2233
aI1
aa(lp64
I2233
aI4
aa(lp65
I2298
aI0
aa(lp66
I2298
aI2
aa(lp67
I2467
aI2
aa(lp68
I2494
aI0
aa(lp69
I2938
aI0
aa(lp70
I2967
aI0
aa(lp71
I2967
aI3
aa(lp72
I2967
aI4
aa(lp73
I3181
aI0
aa(lp74
I3181
aI2
aa(lp75
I3497
aI2
aa(lp76
I3497
aI3
aa(lp77
I3497
aI4
aa(lp78
I3516
aI0
aa(lp79
I3516
aI2
aa(lp80
I3516
aI4
aa(lp81
I3562
aI3
aa(lp82
I3562
aI4
aa(lp83
I3641
aI1
aa(lp84
I3641
aI2
aa(lp85
I3641
aI4
aa(lp86
I3856
aI2
aa(lp87
I4308
aI4
aa(lp88
I4454
aI2
aa(lp89
I4454
aI4
aa(lp90
I4697
aI0
aa(lp91
I4697
aI1
aa(lp92
I4697
aI4
aa(lp93
I4894
aI1
aa(lp94
I4897
aI1
aa(lp95
I4897
aI4
aa(lp96
I4912
aI1
aa(lp97
I4984
aI0
aa(lp98
I4984
aI1
aa(lp99
I4984
aI4
aa(lp100
I5225
aI0
aa(lp101
I5225
aI1
aa(lp102
I5249
aI1
aa(lp103
I5352
aI3
aa(lp104
I5483
aI0
aa(lp105
I5483
aI1
aa(lp106
I5483
aI2
aa(lp107
I5485
aI4
aa(lp108
I5675
aI0
aa(lp109
I5675
aI1
aa(lp110
I5675
aI2
aa(lp111
I5675
aI4
aa(lp112
I5699
aI0
aa(lp113
I5699
aI1
aa(lp114
I5699
aI2
aa(lp115
I5699
aI3
aa(lp116
I5699
aI4
aa(lp117
I5917
aI0
aa(lp118
I5917
aI2
aa(lp119
I5917
aI3
aa(lp120
I5921
aI0
aa(lp121
I5921
aI1
aa(lp122
I5957
aI0
aa(lp123
I5973
aI1
aa(lp124
I5973
aI4
aa(lp125
I5996
aI2
aa(lp126
I6040
aI2
aa(lp127
I6169
aI3
aa(lp128
I6189
aI3
aa(lp129
I6279
aI0
aa(lp130
I6279
aI3
aa(lp131
I6380
aI0
aa(lp132
I6380
aI2
aa(lp133
I6444
aI1
aa(lp134
I6444
aI2
aa(lp135
I6523
aI4
aa(lp136
I6538
aI1
aa(lp137
I6538
aI3
aa(lp138
I6826
aI2
aa(lp139
I6949
aI0
aa(lp140
I6950
aI0
aa(lp141
I7029
aI0
aa(lp142
I7029
aI2
aa(lp143
I7029
aI3
aa(lp144
I7049
aI0
aa(lp145
I7071
aI3
aa(lp146
I7107
aI0
aa(lp147
I7107
aI1
aa(lp148
I7121
aI1
aa(lp149
I7121
aI2
aa(lp150
I7314
aI1
aa(lp151
I7663
aI0
aa(lp152
I7663
aI1
aa(lp153
I7679
aI4
aa(lp154
I7756
aI0
aa(lp155
I7756
aI4
aa(lp156
I8274
aI1
aa(lp157
I8274
aI3
aa(lp158
I8388
aI0
aa(lp159
I8446
aI4
aa(lp160
I8460
aI1
aa(lp161
I8559
aI2
aa(lp162
I8559
aI3
aa(lp163
I8559
aI4
aa(lp164
I8753
aI4
aa(lp165
I8894
aI0
aa(lp166
I8946
aI0
aa(lp167
I8946
aI1
aa(lp168
I8946
aI2
aa(lp169
I8946
aI3
aa(lp170
I9074
aI1
aa(lp171
I9074
aI2
aa(lp172
I9109
aI1
aa(lp173
I9260
aI1
aa(lp174
I9260
aI2
aa(lp175
I9304
aI3
aa(lp176
I9304
aI4
aa(lp177
I9327
aI0
aa(lp178
I9327
aI1
aa(lp179
I9327
aI4
aa(lp180
I9347
aI1
aa(lp181
I9347
aI4
aa(lp182
I9376
aI1
aa(lp183
I9376
aI3
aa(lp184
I9736
aI0
aa(lp185
I9736
aI2
aa(lp186
I9853
aI4
aa(lp187
I9967
aI4
aa(lp188
I9969
aI2
aa(lp189
I9969
aI4
aa(lp190
I10032
aI0
aa(lp191
I10032
aI3
aa(lp192
I10059
aI0
aa(lp193
I10059
aI1
aa(lp194
I10059
aI4
aa(lp195
I10131
aI1
aa(lp196
I10337
aI0
aa(lp197
I10387
aI0
aa(lp198
I10424
aI1
aa(lp199
I10424
aI2
aa(lp200
I10424
aI4
aa(lp201
I10489
aI2
aa(lp202
I10489
aI4
aa(lp203
I10579
aI2
aa(lp204
I10634
aI0
aa(lp205
I10639
aI1
aa(lp206
I10639
aI2
aa(lp207
I10639
aI3
aa(lp208
I10639
aI4
aa(lp209
I10757
aI1
aa(lp210
I11054
aI1
aa(lp211
I11200
aI1
aa(lp212
I11200
aI2
aa(lp213
I11237
aI0
aa(lp214
I11309
aI0
aa(lp215
I11309
aI1
aa(lp216
I11309
aI2
aa(lp217
I11309
aI3
aa(lp218
I11309
aI4
aa(lp219
I11659
aI2
aa(lp220
I11659
aI3
aa(lp221
I11794
aI1
aa(lp222
I11794
aI2
aa(lp223
I11876
aI3
aa(lp224
I11929
aI0
aa(lp225
I11929
aI2
aa(lp226
I11953
aI0
aa(lp227
I12337
aI0
aa(lp228
I12337
aI1
aa(lp229
I12353
aI4
aa(lp230
I12372
aI3
aa(lp231
I12396
aI0
aa(lp232
I12396
aI1
aa(lp233
I12396
aI2
aa(lp234
I12396
aI3
aa(lp235
I12459
aI4
aa(lp236
I12484
aI0
aa(lp237
I12484
aI3
aa(lp238
I12484
aI4
aa(lp239
I12534
aI4
aa(lp240
I12598
aI0
aa(lp241
I12598
aI3
aa(lp242
I12634
aI2
aa(lp243
I12634
aI3
aa(lp244
I12707
aI0
aa(lp245
I12712
aI1
aa(lp246
I12712
aI2
aa(lp247
I12712
aI3
aa(lp248
I12722
aI0
aa(lp249
I12722
aI2
aa(lp250
I12722
aI4
aa(lp251
I12846
aI0
aa(lp252
I12846
aI1
aa(lp253
I12846
aI2
aa(lp254
I13201
aI0
aa(lp255
I13201
aI1
aa(lp256
I13201
aI2
aa(lp257
I13201
aI4
aa(lp258
I13224
aI3
aa(lp259
I13238
aI0
aa(lp260
I13238
aI2
aa(lp261
I13238
aI4
aa(lp262
I13252
aI0
aa(lp263
I13252
aI2
aa(lp264
I13419
aI4
aa(lp265
I13427
aI1
aa(lp266
I13427
aI2
aa(lp267
I13427
aI3
aa(lp268
I13435
aI0
aa(lp269
I13435
aI2
aa(lp270
I13501
aI0
aa(lp271
I13501
aI1
aa(lp272
I13859
aI0
aa(lp273
I13945
aI0
aa(lp274
I14044
aI0
aa(lp275
I14044
aI1
aa(lp276
I14047
aI2
aa(lp277
I14047
aI4
aa(lp278
I14367
aI4
aa(lp279
I14615
aI2
aa(lp280
I14615
aI3
aa(lp281
I14855
aI0
aa(lp282
I14855
aI1
aa(lp283
I14855
aI2
aa(lp284
I14855
aI3
aa(lp285
I14855
aI4
aa(lp286
I14918
aI0
aa(lp287
I14918
aI1
aa(lp288
I14918
aI2
aa(lp289
I14918
aI3
aa(lp290
I15045
aI0
aa(lp291
I15080
aI0
aa(lp292
I15364
aI2
aa(lp293
I15364
aI4
aa(lp294
I15399
aI0
aa(lp295
I15399
aI1
aa(lp296
I15399
aI3
aa(lp297
I15479
aI0
aa(lp298
I15479
aI1
aa(lp299
I15479
aI2
aa(lp300
I15479
aI3
aa(lp301
I15479
aI4
aa(lp302
I15601
aI4
aa(lp303
I15724
aI0
aa(lp304
I15724
aI3
aa(lp305
I15748
aI2
aa(lp306
I15758
aI1
aa(lp307
I15959
aI2
aa(lp308
I16060
aI0
aa(lp309
I16060
aI2
aa(lp310
I16060
aI3
aa(lp311
I16060
aI4
aa(lp312
I16143
aI1
aa(lp313
I16143
aI3
aa(lp314
I16143
aI4
aa(lp315
I16379
aI2
aa(lp316
I16766
aI2
aa(lp317
I16766
aI3
aa(lp318
I16766
aI4
aa(lp319
I17071
aI2
aa(lp320
I17071
aI3
aa(lp321
I17226
aI1
aa(lp322
I17284
aI0
aa(lp323
I17332
aI3
aa(lp324
I17352
aI0
aa(lp325
I17352
aI3
aa(lp326
I17449
aI0
aa(lp327
I17449
aI2
aa(lp328
I17449
aI3
aa(lp329
I17485
aI3
aa(lp330
I17629
aI2
aa(lp331
I17641
aI0
aa(lp332
I17641
aI2
aa(lp333
I17641
aI4
aa(lp334
I17750
aI2
aa(lp335
I17826
aI3
aa(lp336
I17951
aI2
aa(lp337
I17951
aI3
aa(lp338
I18032
aI0
aa(lp339
I18032
aI4
aa(lp340
I18252
aI0
aa(lp341
I18270
aI2
aa(lp342
I18270
aI4
aa(lp343
I18340
aI0
aa(lp344
I18340
aI2
aa(lp345
I18340
aI3
aa(lp346
I18392
aI0
aa(lp347
I18437
aI0
aa(lp348
I18437
aI4
aa(lp349
I18524
aI4
aa(lp350
I18535
aI0
aa(lp351
I18535
aI1
aa(lp352
I18535
aI2
aa(lp353
I18539
aI0
aa(lp354
I18547
aI2
aa(lp355
I18563
aI0
aa(lp356
I18566
aI3
aa(lp357
I18756
aI4
aa(lp358
I18806
aI1
aa(lp359
I18909
aI1
aa(lp360
I18909
aI2
aa(lp361
I18909
aI4
aa(lp362
I19315
aI0
aa(lp363
I19315
aI1
aa(lp364
I19315
aI2
aa(lp365
I19536
aI0
aa(lp366
I19536
aI3
aa(lp367
I19536
aI4
aa(lp368
I19600
aI3
aa(lp369
I19691
aI1
aa(lp370
I19691
aI4
aa(lp371
I19792
aI2
aa(lp372
I19902
aI1
aa(lp373
I19902
aI2
aa(lp374
I19902
aI4
aa(lp375
I20016
aI0
aa(lp376
I20016
aI1
aa(lp377
I20061
aI0
aa(lp378
I20061
aI1
aa(lp379
I20061
aI2
aa(lp380
I20062
aI1
aa(lp381
I20157
aI2
aa(lp382
I20172
aI0
aa(lp383
I20172
aI3
aa(lp384
I20218
aI1
aa(lp385
I20288
aI3
aa(lp386
I20738
aI3
aa(lp387
I21012
aI4
aa(lp388
I21204
aI0
aa(lp389
I21204
aI1
aa(lp390
I21204
aI2
aa(lp391
I21394
aI4
aa(lp392
I21474
aI4
aa(lp393
I21480
aI0
aa(lp394
I21514
aI1
aa(lp395
I21528
aI1
aa(lp396
I21528
aI2
aa(lp397
I21740
aI0
aa(lp398
I21740
aI3
aa(lp399
I21740
aI4
aa(lp400
I21821
aI0
aa(lp401
I21995
aI4
aa(lp402
I22031
aI0
aa(lp403
I22031
aI1
aa(lp404
I22109
aI0
aa(lp405
I22109
aI3
aa(lp406
I22170
aI0
aa(lp407
I22191
aI1
aa(lp408
I22191
aI2
aa(lp409
I22304
aI1
aa(lp410
I22370
aI0
aa(lp411
I22370
aI1
aa(lp412
I22370
aI2
aa(lp413
I22500
aI1
aa(lp414
I22541
aI0
aa(lp415
I22541
aI4
aa(lp416
I22657
aI0
aa(lp417
I22657
aI4
aa(lp418
I22688
aI2
aa(lp419
I22747
aI1
aa(lp420
I22747
aI2
aa(lp421
I22747
aI3
aa(lp422
I22765
aI4
aa(lp423
I22777
aI0
aa(lp424
I22777
aI2
aa(lp425
I22777
aI4
aa(lp426
I22874
aI2
aa(lp427
I22898
aI1
aa(lp428
I23103
aI3
aa(lp429
I23327
aI0
aa(lp430
I23327
aI1
aa(lp431
I23441
aI3
aa(lp432
I23449
aI0
aa(lp433
I23449
aI4
aa(lp434
I23520
aI1
aa(lp435
I23520
aI2
aa(lp436
I23520
aI3
aa(lp437
I23520
aI4
aa(lp438
I23749
aI3
aa(lp439
I23931
aI1
aa(lp440
I23931
aI2
aa(lp441
I23931
aI3
aa(lp442
I23931
aI4
aa(lp443
I23991
aI2
aa(lp444
I24053
aI0
aa(lp445
I24053
aI1
aa(lp446
I24326
aI0
aa(lp447
I24326
aI3
aa(lp448
I24360
aI2
aa(lp449
I24360
aI3
aa(lp450
I24434
aI1
aa(lp451
I24722
aI1
aa(lp452
I24722
aI2
aa(lp453
I24722
aI3
aa(lp454
I24777
aI0
aa(lp455
I24777
aI4
aa(lp456
I24811
aI1
aa(lp457
I24995
aI1
aa(lp458
I24995
aI2
aa(lp459
I24995
aI4
aa(lp460
I25021
aI0
aa(lp461
I25021
aI2
aa(lp462
I25039
aI1
aa(lp463
I25039
aI2
aa(lp464
I25128
aI1
aa(lp465
I25192
aI2
aa(lp466
I25367
aI3
aa(lp467
I25432
aI1
aa(lp468
I25432
aI4
aa(lp469
I25440
aI2
aa(lp470
I25724
aI3
aa(lp471
I25726
aI0
aa(lp472
I25839
aI0
aa(lp473
I25839
aI1
aa(lp474
I25839
aI2
aa(lp475
I25873
aI0
aa(lp476
I25873
aI3
aa(lp477
I25922
aI0
aa(lp478
I26018
aI0
aa(lp479
I26018
aI1
aa(lp480
I26018
aI3
aa(lp481
I26320
aI0
aa(lp482
I26406
aI0
aa(lp483
I26406
aI1
aa(lp484
I26406
aI3
aa(lp485
I26406
aI4
aa(lp486
I26667
aI0
aa(lp487
I26667
aI1
aa(lp488
I26667
aI4
aa(lp489
I26824
aI3
aa(lp490
I26970
aI0
aa(lp491
I26970
aI3
aa(lp492
I27005
aI1
aa(lp493
I27011
aI0
aa(lp494
I27011
aI1
aa(lp495
I27011
aI2
aa(lp496
I27029
aI1
aa(lp497
I27059
aI1
aa(lp498
I27059
aI4
aa(lp499
I27469
aI4
aa(lp500
I27516
aI0
aa(lp501
I27516
aI1
aa(lp502
I27516
aI3
aa(lp503
I27516
aI4
aa(lp504
I27969
aI3
aa(lp505
I27979
aI2
aa(lp506
I27979
aI4
aa(lp507
I28058
aI0
aa(lp508
I28058
aI1
aa(lp509
I28075
aI2
aa(lp510
I28075
aI4
aa(lp511
I28226
aI0
aa(lp512
I28226
aI1
aa(lp513
I28226
aI2
aa(lp514
I28378
aI1
aa(lp515
I28378
aI2
aa(lp516
I28420
aI0
aa(lp517
I28521
aI0
aa(lp518
I28521
aI2
aa(lp519
I28521
aI4
aa(lp520
I28649
aI0
aa(lp521
I28853
aI1
aa(lp522
I29032
aI0
aa(lp523
I29032
aI3
aa(lp524
I29055
aI1
aa(lp525
I29055
aI2
aa(lp526
I29055
aI3
aa(lp527
I29278
aI0
aa(lp528
I29314
aI3
aa(lp529
I29356
aI0
aa(lp530
I29356
aI2
aa(lp531
I29356
aI3
aa(lp532
I29513
aI0
aa(lp533
I29513
aI2
aa(lp534
I29609
aI1
aa(lp535
I29670
aI0
aa(lp536
I29670
aI1
aa(lp537
I29670
aI4
aa(lp538
I29987
aI2
aa(lp539
I30015
aI3
aa(lp540
I30306
aI3
aa(lp541
I30352
aI2
aa(lp542
I30352
aI3
aa(lp543
I30396
aI0
aa(lp544
I30396
aI4
aa(lp545
I30420
aI4
aa(lp546
I30493
aI3
aa(lp547
I30513
aI0
aa(lp548
I30513
aI1
aa(lp549
I30537
aI4
aa(lp550
I30654
aI0
aa(lp551
I30654
aI2
aa(lp552
I30654
aI4
aa(lp553
I30667
aI0
aa(lp554
I30667
aI1
aa(lp555
I30667
aI2
aa(lp556
I30667
aI3
aa(lp557
I30902
aI2
aa(lp558
I30902
aI3
aa(lp559
I30902
aI4
aa(lp560
I30908
aI1
aa(lp561
I31022
aI0
aa(lp562
I31022
aI3
aa(lp563
I31064
aI2
aa(lp564
I31064
aI4
aa(lp565
I31088
aI0
aa(lp566
I31105
aI0
aa(lp567
I31105
aI1
aa(lp568
I31285
aI0
aa(lp569
I31724
aI1
aa(lp570
I31917
aI2
aa(lp571
I31917
aI4
aa(lp572
I32091
aI0
aa(lp573
I32091
aI2
aa(lp574
I32120
aI0
aa(lp575
I32176
aI0
aa(lp576
I32176
aI1
aa(lp577
I32176
aI2
aa(lp578
I32383
aI1
aa(lp579
I32392
aI1
aa(lp580
I32392
aI3
aa(lp581
I32402
aI1
aa(lp582
I32402
aI3
aa(lp583
I32462
aI0
aa(lp584
I32548
aI0
aa(lp585
I32577
aI0
aa(lp586
I32577
aI3
aa(lp587
I32633
aI1
aa(lp588
I32746
aI0
aa(lp589
I32746
aI2
aa(lp590
I32854
aI2
aa(lp591
I32854
aI3
aa(lp592
I32885
aI0
aa(lp593
I32885
aI1
aa(lp594
I32885
aI4
aa(lp595
I32931
aI4
aa(lp596
I33087
aI0
aa(lp597
I33087
aI2
aa(lp598
I33087
aI3
aa(lp599
I33167
aI0
aa(lp600
I33167
aI1
aa(lp601
I33167
aI2
aa(lp602
I33167
aI4
aa(lp603
I33255
aI0
aa(lp604
I33255
aI2
aa(lp605
I33358
aI2
aa(lp606
I33419
aI0
aa(lp607
I33419
aI1
aa(lp608
I33562
aI2
aa(lp609
I33594
aI2
aa(lp610
I33627
aI0
aa(lp611
I33627
aI1
aa(lp612
I33680
aI0
aa(lp613
I33680
aI3
aa(lp614
I33829
aI0
aa(lp615
I33829
aI1
aa(lp616
I33829
aI4
aa(lp617
I33858
aI0
aa(lp618
I33858
aI2
aa(lp619
I34002
aI0
aa(lp620
I34002
aI1
aa(lp621
I34002
aI3
aa(lp622
I34002
aI4
aa(lp623
I34230
aI0
aa(lp624
I34230
aI1
aa(lp625
I34230
aI2
aa(lp626
I34606
aI0
aa(lp627
I34606
aI1
aa(lp628
I34682
aI0
aa(lp629
I34682
aI3
aa(lp630
I34738
aI4
aa(lp631
I34776
aI0
aa(lp632
I34776
aI1
aa(lp633
I34776
aI4
aa(lp634
I34797
aI2
aa(lp635
I34890
aI2
aa(lp636
I34890
aI3
aa(lp637
I34995
aI0
aa(lp638
I34995
aI1
aa(lp639
I34995
aI2
aa(lp640
I34995
aI3
aa(lp641
I34995
aI4
aa(lp642
I35043
aI0
aa(lp643
I35043
aI1
aa(lp644
I35043
aI2
aa(lp645
I35090
aI2
aa(lp646
I35090
aI4
aa(lp647
I35106
aI4
aa(lp648
I35259
aI2
aa(lp649
I35386
aI0
aa(lp650
I35386
aI3
aa(lp651
I35386
aI4
aa(lp652
I35419
aI3
aa(lp653
I35483
aI0
aa(lp654
I35483
aI2
aa(lp655
I35483
aI4
aa(lp656
I35487
aI0
aa(lp657
I35487
aI3
aa(lp658
I35707
aI0
aa(lp659
I35707
aI1
aa(lp660
I35707
aI4
aa(lp661
I35725
aI2
aa(lp662
I35951
aI2
aa(lp663
I35958
aI3
aa(lp664
I36019
aI0
aa(lp665
I36098
aI2
aa(lp666
I36255
aI1
aa(lp667
I36255
aI3
aa(lp668
I36255
aI4
aa(lp669
I36448
aI1
aa(lp670
I36543
aI0
aa(lp671
I36543
aI1
aa(lp672
I36543
aI3
aa(lp673
I36603
aI0
aa(lp674
I36654
aI4
aa(lp675
I36807
aI1
aa(lp676
I36807
aI2
aa(lp677
I36836
aI2
aa(lp678
I36900
aI0
aa(lp679
I36900
aI1
aa(lp680
I36945
aI1
aa(lp681
I36972
aI4
aa(lp682
I37101
aI0
aa(lp683
I37101
aI1
aa(lp684
I37136
aI0
aa(lp685
I37136
aI2
aa(lp686
I37396
aI4
aa(lp687
I37397
aI0
aa(lp688
I37656
aI0
aa(lp689
I37656
aI4
aa(lp690
I37923
aI2
aa(lp691
I37923
aI4
aa(lp692
I38044
aI2
aa(lp693
I38195
aI1
aa(lp694
I38197
aI1
aa(lp695
I38197
aI3
aa(lp696
I38393
aI0
aa(lp697
I38393
aI1
aa(lp698
I38393
aI2
aa(lp699
I38393
aI3
aa(lp700
I38393
aI4
aa(lp701
I38647
aI1
aa(lp702
I38647
aI2
aa(lp703
I38647
aI3
aa(lp704
I38647
aI4
aa(lp705
I39191
aI0
aa(lp706
I39191
aI2
aa(lp707
I39191
aI3
aa(lp708
I39191
aI4
aa(lp709
I39252
aI1
aa(lp710
I39252
aI2
aa(lp711
I39252
aI4
aa(lp712
I39278
aI3
aa(lp713
I39394
aI0
aa(lp714
I39505
aI0
aa(lp715
I39505
aI2
aa(lp716
I39836
aI0
aa(lp717
I39836
aI3
aa(lp718
I39836
aI4
aa(lp719
I39841
aI0
aa(lp720
I39866
aI0
aa(lp721
I39866
aI2
aa(lp722
I39866
aI3
aa(lp723
I39866
aI4
aa(lp724
I39951
aI3
aa(lp725
I39951
aI4
aa(lp726
I40042
aI2
aa(lp727
I40042
aI3
aa(lp728
I40042
aI4
aa(lp729
I40121
aI2
aa(lp730
I40208
aI1
aa(lp731
I40208
aI3
aa(lp732
I40259
aI3
aa.